; Listing generated by Microsoft (R) Optimizing Compiler Version 16.00.30319.01 

include listing.inc

INCLUDELIB LIBCMTD
INCLUDELIB OLDNAMES

PUBLIC	?has_denorm@_Num_base@std@@2W4float_denorm_style@2@B ; std::_Num_base::has_denorm
PUBLIC	?has_denorm_loss@_Num_base@std@@2_NB		; std::_Num_base::has_denorm_loss
PUBLIC	?has_infinity@_Num_base@std@@2_NB		; std::_Num_base::has_infinity
PUBLIC	?has_quiet_NaN@_Num_base@std@@2_NB		; std::_Num_base::has_quiet_NaN
PUBLIC	?has_signaling_NaN@_Num_base@std@@2_NB		; std::_Num_base::has_signaling_NaN
PUBLIC	?is_bounded@_Num_base@std@@2_NB			; std::_Num_base::is_bounded
PUBLIC	?is_exact@_Num_base@std@@2_NB			; std::_Num_base::is_exact
PUBLIC	?is_iec559@_Num_base@std@@2_NB			; std::_Num_base::is_iec559
PUBLIC	?is_integer@_Num_base@std@@2_NB			; std::_Num_base::is_integer
PUBLIC	?is_modulo@_Num_base@std@@2_NB			; std::_Num_base::is_modulo
PUBLIC	?is_signed@_Num_base@std@@2_NB			; std::_Num_base::is_signed
PUBLIC	?is_specialized@_Num_base@std@@2_NB		; std::_Num_base::is_specialized
PUBLIC	?tinyness_before@_Num_base@std@@2_NB		; std::_Num_base::tinyness_before
PUBLIC	?traps@_Num_base@std@@2_NB			; std::_Num_base::traps
PUBLIC	?round_style@_Num_base@std@@2W4float_round_style@2@B ; std::_Num_base::round_style
PUBLIC	?digits@_Num_base@std@@2HB			; std::_Num_base::digits
PUBLIC	?digits10@_Num_base@std@@2HB			; std::_Num_base::digits10
PUBLIC	?max_digits10@_Num_base@std@@2HB		; std::_Num_base::max_digits10
PUBLIC	?max_exponent@_Num_base@std@@2HB		; std::_Num_base::max_exponent
PUBLIC	?max_exponent10@_Num_base@std@@2HB		; std::_Num_base::max_exponent10
PUBLIC	?min_exponent@_Num_base@std@@2HB		; std::_Num_base::min_exponent
PUBLIC	?min_exponent10@_Num_base@std@@2HB		; std::_Num_base::min_exponent10
PUBLIC	?radix@_Num_base@std@@2HB			; std::_Num_base::radix
PUBLIC	?is_bounded@_Num_int_base@std@@2_NB		; std::_Num_int_base::is_bounded
PUBLIC	?is_exact@_Num_int_base@std@@2_NB		; std::_Num_int_base::is_exact
PUBLIC	?is_integer@_Num_int_base@std@@2_NB		; std::_Num_int_base::is_integer
PUBLIC	?is_modulo@_Num_int_base@std@@2_NB		; std::_Num_int_base::is_modulo
PUBLIC	?is_specialized@_Num_int_base@std@@2_NB		; std::_Num_int_base::is_specialized
PUBLIC	?radix@_Num_int_base@std@@2HB			; std::_Num_int_base::radix
PUBLIC	?has_denorm@_Num_float_base@std@@2W4float_denorm_style@2@B ; std::_Num_float_base::has_denorm
PUBLIC	?has_denorm_loss@_Num_float_base@std@@2_NB	; std::_Num_float_base::has_denorm_loss
PUBLIC	?has_infinity@_Num_float_base@std@@2_NB		; std::_Num_float_base::has_infinity
PUBLIC	?has_quiet_NaN@_Num_float_base@std@@2_NB	; std::_Num_float_base::has_quiet_NaN
PUBLIC	?has_signaling_NaN@_Num_float_base@std@@2_NB	; std::_Num_float_base::has_signaling_NaN
PUBLIC	?is_bounded@_Num_float_base@std@@2_NB		; std::_Num_float_base::is_bounded
PUBLIC	?is_exact@_Num_float_base@std@@2_NB		; std::_Num_float_base::is_exact
PUBLIC	?is_iec559@_Num_float_base@std@@2_NB		; std::_Num_float_base::is_iec559
PUBLIC	?is_integer@_Num_float_base@std@@2_NB		; std::_Num_float_base::is_integer
PUBLIC	?is_modulo@_Num_float_base@std@@2_NB		; std::_Num_float_base::is_modulo
PUBLIC	?is_signed@_Num_float_base@std@@2_NB		; std::_Num_float_base::is_signed
PUBLIC	?is_specialized@_Num_float_base@std@@2_NB	; std::_Num_float_base::is_specialized
PUBLIC	?tinyness_before@_Num_float_base@std@@2_NB	; std::_Num_float_base::tinyness_before
PUBLIC	?traps@_Num_float_base@std@@2_NB		; std::_Num_float_base::traps
PUBLIC	?round_style@_Num_float_base@std@@2W4float_round_style@2@B ; std::_Num_float_base::round_style
PUBLIC	?radix@_Num_float_base@std@@2HB			; std::_Num_float_base::radix
PUBLIC	?is_signed@?$numeric_limits@D@std@@2_NB		; std::numeric_limits<char>::is_signed
PUBLIC	?digits@?$numeric_limits@D@std@@2HB		; std::numeric_limits<char>::digits
PUBLIC	?digits10@?$numeric_limits@D@std@@2HB		; std::numeric_limits<char>::digits10
PUBLIC	?max_digits10@?$numeric_limits@D@std@@2HB	; std::numeric_limits<char>::max_digits10
PUBLIC	?is_signed@?$numeric_limits@_W@std@@2_NB	; std::numeric_limits<wchar_t>::is_signed
PUBLIC	?digits@?$numeric_limits@_W@std@@2HB		; std::numeric_limits<wchar_t>::digits
PUBLIC	?digits10@?$numeric_limits@_W@std@@2HB		; std::numeric_limits<wchar_t>::digits10
PUBLIC	?max_digits10@?$numeric_limits@_W@std@@2HB	; std::numeric_limits<wchar_t>::max_digits10
PUBLIC	?is_modulo@?$numeric_limits@_N@std@@2_NB	; std::numeric_limits<bool>::is_modulo
PUBLIC	?is_signed@?$numeric_limits@_N@std@@2_NB	; std::numeric_limits<bool>::is_signed
PUBLIC	?digits@?$numeric_limits@_N@std@@2HB		; std::numeric_limits<bool>::digits
PUBLIC	?digits10@?$numeric_limits@_N@std@@2HB		; std::numeric_limits<bool>::digits10
PUBLIC	?max_digits10@?$numeric_limits@_N@std@@2HB	; std::numeric_limits<bool>::max_digits10
PUBLIC	?is_signed@?$numeric_limits@C@std@@2_NB		; std::numeric_limits<signed char>::is_signed
PUBLIC	?digits@?$numeric_limits@C@std@@2HB		; std::numeric_limits<signed char>::digits
PUBLIC	?digits10@?$numeric_limits@C@std@@2HB		; std::numeric_limits<signed char>::digits10
PUBLIC	?max_digits10@?$numeric_limits@C@std@@2HB	; std::numeric_limits<signed char>::max_digits10
PUBLIC	?is_signed@?$numeric_limits@E@std@@2_NB		; std::numeric_limits<unsigned char>::is_signed
PUBLIC	?digits@?$numeric_limits@E@std@@2HB		; std::numeric_limits<unsigned char>::digits
PUBLIC	?digits10@?$numeric_limits@E@std@@2HB		; std::numeric_limits<unsigned char>::digits10
PUBLIC	?max_digits10@?$numeric_limits@E@std@@2HB	; std::numeric_limits<unsigned char>::max_digits10
PUBLIC	?is_signed@?$numeric_limits@F@std@@2_NB		; std::numeric_limits<short>::is_signed
PUBLIC	?digits@?$numeric_limits@F@std@@2HB		; std::numeric_limits<short>::digits
PUBLIC	?digits10@?$numeric_limits@F@std@@2HB		; std::numeric_limits<short>::digits10
PUBLIC	?max_digits10@?$numeric_limits@F@std@@2HB	; std::numeric_limits<short>::max_digits10
PUBLIC	?is_signed@?$numeric_limits@G@std@@2_NB		; std::numeric_limits<unsigned short>::is_signed
PUBLIC	?digits@?$numeric_limits@G@std@@2HB		; std::numeric_limits<unsigned short>::digits
PUBLIC	?digits10@?$numeric_limits@G@std@@2HB		; std::numeric_limits<unsigned short>::digits10
PUBLIC	?max_digits10@?$numeric_limits@G@std@@2HB	; std::numeric_limits<unsigned short>::max_digits10
PUBLIC	?is_signed@?$numeric_limits@H@std@@2_NB		; std::numeric_limits<int>::is_signed
PUBLIC	?digits@?$numeric_limits@H@std@@2HB		; std::numeric_limits<int>::digits
PUBLIC	?digits10@?$numeric_limits@H@std@@2HB		; std::numeric_limits<int>::digits10
PUBLIC	?max_digits10@?$numeric_limits@H@std@@2HB	; std::numeric_limits<int>::max_digits10
PUBLIC	?is_signed@?$numeric_limits@I@std@@2_NB		; std::numeric_limits<unsigned int>::is_signed
PUBLIC	?digits@?$numeric_limits@I@std@@2HB		; std::numeric_limits<unsigned int>::digits
PUBLIC	?digits10@?$numeric_limits@I@std@@2HB		; std::numeric_limits<unsigned int>::digits10
PUBLIC	?max_digits10@?$numeric_limits@I@std@@2HB	; std::numeric_limits<unsigned int>::max_digits10
PUBLIC	?is_signed@?$numeric_limits@J@std@@2_NB		; std::numeric_limits<long>::is_signed
PUBLIC	?digits@?$numeric_limits@J@std@@2HB		; std::numeric_limits<long>::digits
PUBLIC	?digits10@?$numeric_limits@J@std@@2HB		; std::numeric_limits<long>::digits10
PUBLIC	?max_digits10@?$numeric_limits@J@std@@2HB	; std::numeric_limits<long>::max_digits10
PUBLIC	?is_signed@?$numeric_limits@K@std@@2_NB		; std::numeric_limits<unsigned long>::is_signed
PUBLIC	?digits@?$numeric_limits@K@std@@2HB		; std::numeric_limits<unsigned long>::digits
PUBLIC	?digits10@?$numeric_limits@K@std@@2HB		; std::numeric_limits<unsigned long>::digits10
PUBLIC	?max_digits10@?$numeric_limits@K@std@@2HB	; std::numeric_limits<unsigned long>::max_digits10
PUBLIC	?is_signed@?$numeric_limits@_J@std@@2_NB	; std::numeric_limits<__int64>::is_signed
PUBLIC	?digits@?$numeric_limits@_J@std@@2HB		; std::numeric_limits<__int64>::digits
PUBLIC	?digits10@?$numeric_limits@_J@std@@2HB		; std::numeric_limits<__int64>::digits10
PUBLIC	?max_digits10@?$numeric_limits@_J@std@@2HB	; std::numeric_limits<__int64>::max_digits10
PUBLIC	?is_signed@?$numeric_limits@_K@std@@2_NB	; std::numeric_limits<unsigned __int64>::is_signed
PUBLIC	?digits@?$numeric_limits@_K@std@@2HB		; std::numeric_limits<unsigned __int64>::digits
PUBLIC	?digits10@?$numeric_limits@_K@std@@2HB		; std::numeric_limits<unsigned __int64>::digits10
PUBLIC	?max_digits10@?$numeric_limits@_K@std@@2HB	; std::numeric_limits<unsigned __int64>::max_digits10
PUBLIC	?digits@?$numeric_limits@M@std@@2HB		; std::numeric_limits<float>::digits
PUBLIC	?digits10@?$numeric_limits@M@std@@2HB		; std::numeric_limits<float>::digits10
PUBLIC	?max_digits10@?$numeric_limits@M@std@@2HB	; std::numeric_limits<float>::max_digits10
PUBLIC	?max_exponent@?$numeric_limits@M@std@@2HB	; std::numeric_limits<float>::max_exponent
PUBLIC	?max_exponent10@?$numeric_limits@M@std@@2HB	; std::numeric_limits<float>::max_exponent10
PUBLIC	?min_exponent@?$numeric_limits@M@std@@2HB	; std::numeric_limits<float>::min_exponent
PUBLIC	?min_exponent10@?$numeric_limits@M@std@@2HB	; std::numeric_limits<float>::min_exponent10
PUBLIC	?digits@?$numeric_limits@N@std@@2HB		; std::numeric_limits<double>::digits
PUBLIC	?digits10@?$numeric_limits@N@std@@2HB		; std::numeric_limits<double>::digits10
PUBLIC	?max_digits10@?$numeric_limits@N@std@@2HB	; std::numeric_limits<double>::max_digits10
PUBLIC	?max_exponent@?$numeric_limits@N@std@@2HB	; std::numeric_limits<double>::max_exponent
PUBLIC	?max_exponent10@?$numeric_limits@N@std@@2HB	; std::numeric_limits<double>::max_exponent10
PUBLIC	?min_exponent@?$numeric_limits@N@std@@2HB	; std::numeric_limits<double>::min_exponent
PUBLIC	?min_exponent10@?$numeric_limits@N@std@@2HB	; std::numeric_limits<double>::min_exponent10
PUBLIC	?digits@?$numeric_limits@O@std@@2HB		; std::numeric_limits<long double>::digits
PUBLIC	?digits10@?$numeric_limits@O@std@@2HB		; std::numeric_limits<long double>::digits10
PUBLIC	?max_digits10@?$numeric_limits@O@std@@2HB	; std::numeric_limits<long double>::max_digits10
PUBLIC	?max_exponent@?$numeric_limits@O@std@@2HB	; std::numeric_limits<long double>::max_exponent
PUBLIC	?max_exponent10@?$numeric_limits@O@std@@2HB	; std::numeric_limits<long double>::max_exponent10
PUBLIC	?min_exponent@?$numeric_limits@O@std@@2HB	; std::numeric_limits<long double>::min_exponent
PUBLIC	?min_exponent10@?$numeric_limits@O@std@@2HB	; std::numeric_limits<long double>::min_exponent10
PUBLIC	?value@?$integral_constant@_N$0A@@tr1@std@@2_NB	; std::tr1::integral_constant<bool,0>::value
PUBLIC	?value@?$integral_constant@_N$00@tr1@std@@2_NB	; std::tr1::integral_constant<bool,1>::value
PUBLIC	?value@?$integral_constant@_K$0A@@tr1@std@@2_KB	; std::tr1::integral_constant<unsigned __int64,0>::value
PUBLIC	?_Rank@?$_Arithmetic_traits@_N@std@@2HB		; std::_Arithmetic_traits<bool>::_Rank
PUBLIC	?_Rank@?$_Arithmetic_traits@D@std@@2HB		; std::_Arithmetic_traits<char>::_Rank
PUBLIC	?_Rank@?$_Arithmetic_traits@C@std@@2HB		; std::_Arithmetic_traits<signed char>::_Rank
PUBLIC	?_Rank@?$_Arithmetic_traits@E@std@@2HB		; std::_Arithmetic_traits<unsigned char>::_Rank
PUBLIC	?_Rank@?$_Arithmetic_traits@F@std@@2HB		; std::_Arithmetic_traits<short>::_Rank
PUBLIC	?_Rank@?$_Arithmetic_traits@G@std@@2HB		; std::_Arithmetic_traits<unsigned short>::_Rank
PUBLIC	?_Rank@?$_Arithmetic_traits@H@std@@2HB		; std::_Arithmetic_traits<int>::_Rank
PUBLIC	?_Rank@?$_Arithmetic_traits@I@std@@2HB		; std::_Arithmetic_traits<unsigned int>::_Rank
PUBLIC	?_Rank@?$_Arithmetic_traits@J@std@@2HB		; std::_Arithmetic_traits<long>::_Rank
PUBLIC	?_Rank@?$_Arithmetic_traits@K@std@@2HB		; std::_Arithmetic_traits<unsigned long>::_Rank
PUBLIC	?_Rank@?$_Arithmetic_traits@_J@std@@2HB		; std::_Arithmetic_traits<__int64>::_Rank
PUBLIC	?_Rank@?$_Arithmetic_traits@_K@std@@2HB		; std::_Arithmetic_traits<unsigned __int64>::_Rank
PUBLIC	?_Rank@?$_Arithmetic_traits@M@std@@2HB		; std::_Arithmetic_traits<float>::_Rank
PUBLIC	?_Rank@?$_Arithmetic_traits@N@std@@2HB		; std::_Arithmetic_traits<double>::_Rank
PUBLIC	?_Rank@?$_Arithmetic_traits@O@std@@2HB		; std::_Arithmetic_traits<long double>::_Rank
PUBLIC	?collate@?$_Locbase@H@std@@2HB			; std::_Locbase<int>::collate
PUBLIC	?ctype@?$_Locbase@H@std@@2HB			; std::_Locbase<int>::ctype
PUBLIC	?monetary@?$_Locbase@H@std@@2HB			; std::_Locbase<int>::monetary
PUBLIC	?numeric@?$_Locbase@H@std@@2HB			; std::_Locbase<int>::numeric
PUBLIC	?time@?$_Locbase@H@std@@2HB			; std::_Locbase<int>::time
PUBLIC	?messages@?$_Locbase@H@std@@2HB			; std::_Locbase<int>::messages
PUBLIC	?all@?$_Locbase@H@std@@2HB			; std::_Locbase<int>::all
PUBLIC	?none@?$_Locbase@H@std@@2HB			; std::_Locbase<int>::none
PUBLIC	?table_size@?$ctype@D@std@@2_KB			; std::ctype<char>::table_size
PUBLIC	?skipws@?$_Iosb@H@std@@2W4_Fmtflags@12@B	; std::_Iosb<int>::skipws
PUBLIC	?unitbuf@?$_Iosb@H@std@@2W4_Fmtflags@12@B	; std::_Iosb<int>::unitbuf
PUBLIC	?uppercase@?$_Iosb@H@std@@2W4_Fmtflags@12@B	; std::_Iosb<int>::uppercase
PUBLIC	?showbase@?$_Iosb@H@std@@2W4_Fmtflags@12@B	; std::_Iosb<int>::showbase
PUBLIC	?showpoint@?$_Iosb@H@std@@2W4_Fmtflags@12@B	; std::_Iosb<int>::showpoint
PUBLIC	?showpos@?$_Iosb@H@std@@2W4_Fmtflags@12@B	; std::_Iosb<int>::showpos
PUBLIC	?left@?$_Iosb@H@std@@2W4_Fmtflags@12@B		; std::_Iosb<int>::left
PUBLIC	?right@?$_Iosb@H@std@@2W4_Fmtflags@12@B		; std::_Iosb<int>::right
PUBLIC	?internal@?$_Iosb@H@std@@2W4_Fmtflags@12@B	; std::_Iosb<int>::internal
PUBLIC	?dec@?$_Iosb@H@std@@2W4_Fmtflags@12@B		; std::_Iosb<int>::dec
PUBLIC	?oct@?$_Iosb@H@std@@2W4_Fmtflags@12@B		; std::_Iosb<int>::oct
PUBLIC	?hex@?$_Iosb@H@std@@2W4_Fmtflags@12@B		; std::_Iosb<int>::hex
PUBLIC	?scientific@?$_Iosb@H@std@@2W4_Fmtflags@12@B	; std::_Iosb<int>::scientific
PUBLIC	?fixed@?$_Iosb@H@std@@2W4_Fmtflags@12@B		; std::_Iosb<int>::fixed
PUBLIC	?hexfloat@?$_Iosb@H@std@@2W4_Fmtflags@12@B	; std::_Iosb<int>::hexfloat
PUBLIC	?boolalpha@?$_Iosb@H@std@@2W4_Fmtflags@12@B	; std::_Iosb<int>::boolalpha
PUBLIC	?_Stdio@?$_Iosb@H@std@@2W4_Fmtflags@12@B	; std::_Iosb<int>::_Stdio
PUBLIC	?adjustfield@?$_Iosb@H@std@@2W4_Fmtflags@12@B	; std::_Iosb<int>::adjustfield
PUBLIC	?basefield@?$_Iosb@H@std@@2W4_Fmtflags@12@B	; std::_Iosb<int>::basefield
PUBLIC	?floatfield@?$_Iosb@H@std@@2W4_Fmtflags@12@B	; std::_Iosb<int>::floatfield
PUBLIC	?goodbit@?$_Iosb@H@std@@2W4_Iostate@12@B	; std::_Iosb<int>::goodbit
PUBLIC	?eofbit@?$_Iosb@H@std@@2W4_Iostate@12@B		; std::_Iosb<int>::eofbit
PUBLIC	?failbit@?$_Iosb@H@std@@2W4_Iostate@12@B	; std::_Iosb<int>::failbit
PUBLIC	?badbit@?$_Iosb@H@std@@2W4_Iostate@12@B		; std::_Iosb<int>::badbit
PUBLIC	?_Hardfail@?$_Iosb@H@std@@2W4_Iostate@12@B	; std::_Iosb<int>::_Hardfail
PUBLIC	?in@?$_Iosb@H@std@@2W4_Openmode@12@B		; std::_Iosb<int>::in
PUBLIC	?out@?$_Iosb@H@std@@2W4_Openmode@12@B		; std::_Iosb<int>::out
PUBLIC	?ate@?$_Iosb@H@std@@2W4_Openmode@12@B		; std::_Iosb<int>::ate
PUBLIC	?app@?$_Iosb@H@std@@2W4_Openmode@12@B		; std::_Iosb<int>::app
PUBLIC	?trunc@?$_Iosb@H@std@@2W4_Openmode@12@B		; std::_Iosb<int>::trunc
PUBLIC	?_Nocreate@?$_Iosb@H@std@@2W4_Openmode@12@B	; std::_Iosb<int>::_Nocreate
PUBLIC	?_Noreplace@?$_Iosb@H@std@@2W4_Openmode@12@B	; std::_Iosb<int>::_Noreplace
PUBLIC	?binary@?$_Iosb@H@std@@2W4_Openmode@12@B	; std::_Iosb<int>::binary
PUBLIC	?beg@?$_Iosb@H@std@@2W4_Seekdir@12@B		; std::_Iosb<int>::beg
PUBLIC	?cur@?$_Iosb@H@std@@2W4_Seekdir@12@B		; std::_Iosb<int>::cur
PUBLIC	?end@?$_Iosb@H@std@@2W4_Seekdir@12@B		; std::_Iosb<int>::end
_BSS	SEGMENT
forceWorkSize DD 01H DUP (?)
_BSS	ENDS
_DATA	SEGMENT
workGroupSize DD 01H
	ORG $+4
kernelFileName DQ FLAT:$SG23155
_DATA	ENDS
CONST	SEGMENT
$SG23059 DB	'1:', 00H
	ORG $+1
$SG23091 DB	'2:', 00H
	ORG $+1
$SG23098 DB	'3:', 00H
	ORG $+1
$SG23105 DB	'4:', 00H
	ORG $+1
$SG23112 DB	'5:', 00H
	ORG $+1
$SG23119 DB	'6:', 00H
	ORG $+1
$SG23126 DB	'7:', 00H
	ORG $+1
$SG23133 DB	'8:', 00H
	ORG $+1
$SG23140 DB	'9:', 00H
	ORG $+1
$SG23184 DB	'rb', 00H
	ORG $+1
$SG23155 DB	'openCLcode.cl', 00H
	ORG $+2
$SG23161 DB	'Failed to release OpenCL pixel buffer: %d', 0aH, 00H
	ORG $+5
$SG23163 DB	'Failed to release OpenCL pixel buffer: %d', 0aH, 00H
	ORG $+5
$SG23171 DB	'Failed to create OpenCL output buffer: %d', 0aH, 00H
	ORG $+5
$SG23173 DB	'Failed to write the OpenCL seeds buffer: %d', 0aH, 00H
	ORG $+3
$SG23177 DB	'Failed to create OpenCL scene buffer: %d', 0aH, 00H
	ORG $+6
$SG23179 DB	'Failed to write the OpenCL scene buffer: %d', 0aH, 00H
	ORG $+3
$SG23186 DB	'Failed to open file ''%s''', 0aH, 00H
	ORG $+6
$SG23188 DB	'Failed to seek file ''%s''', 0aH, 00H
	ORG $+6
$SG23191 DB	'Failed to check position on file ''%s''', 0aH, 00H
	ORG $+1
$SG23196 DB	'Failed to allocate memory for file ''%s''', 0aH, 00H
	ORG $+7
$SG23197 DB	'Reading file ''%s'' (size %ld bytes)', 0aH, 00H
	ORG $+4
$SG23202 DB	'Failed to read file ''%s'' (read %ld)', 0aH, 00H
	ORG $+3
$SG23213 DB	'Failed to get OpenCL platforms', 0aH, 00H
$SG23219 DB	'Failed to get OpenCL platform IDs', 0aH, 00H
	ORG $+5
$SG23226 DB	'Failed to get OpenCL platform IDs', 0aH, 00H
	ORG $+5
$SG23227 DB	'OpenCL Platform %d: %s', 0aH, 00H
$SG23233 DB	'OpenCL Platform %d: %s      ', 00H
	ORG $+3
$SG23237 DB	'Failed to get OpenCL device IDs', 0aH, 00H
	ORG $+7
$SG23247 DB	'Failed to get OpenCL device info: %d', 0aH, 00H
	ORG $+2
$SG23254 DB	'TYPE_ALL', 00H
	ORG $+7
$SG23256 DB	'TYPE_DEFAULT', 00H
	ORG $+3
$SG23258 DB	'TYPE_CPU', 00H
	ORG $+7
$SG23261 DB	'TYPE_GPU', 00H
	ORG $+7
$SG23264 DB	'TYPE_UNKNOWN', 00H
	ORG $+3
$SG23265 DB	'OpenCL Device %d: Type = %s', 0aH, 00H
	ORG $+3
$SG23266 DB	'OpenCL Device %d: Type = %s    ', 00H
$SG23270 DB	'Failed to get OpenCL device info: %d', 0aH, 00H
	ORG $+2
$SG23271 DB	'OpenCL Device %d: Name = %s', 0aH, 00H
	ORG $+3
$SG23272 DB	'OpenCL Device %d: Name = %s    ', 00H
$SG23276 DB	'Failed to get OpenCL device info: %d', 0aH, 00H
	ORG $+2
$SG23277 DB	'OpenCL Device %d: Compute units = %u', 0aH, 00H
	ORG $+2
$SG23278 DB	'OpenCL Device %d: Compute units = %u    ', 00H
	ORG $+7
$SG23282 DB	'Failed to get OpenCL device info: %d', 0aH, 00H
	ORG $+2
$SG23284 DB	'OpenCL Device %d: Max. work group size = %d', 0aH, 00H
	ORG $+3
$SG23286 DB	'OpenCL Device %d: Max. work group size = %d    ', 00H
$SG23288 DB	'Unable to select an appropriate device', 0aH, 00H
$SG23293 DB	'Failed to open OpenCL context', 0aH, 00H
	ORG $+1
$SG23296 DB	'Failed to get OpenCL context info: %d', 0aH, 00H
	ORG $+1
$SG23304 DB	'Failed to get OpenCL device info: %d', 0aH, 00H
	ORG $+2
$SG23311 DB	'TYPE_ALL', 00H
	ORG $+7
$SG23313 DB	'TYPE_DEFAULT', 00H
	ORG $+3
$SG23315 DB	'TYPE_CPU', 00H
	ORG $+7
$SG23317 DB	'TYPE_GPU', 00H
	ORG $+7
$SG23319 DB	'TYPE_UNKNOWN', 00H
	ORG $+3
$SG23320 DB	'[SELECTED] OpenCL Device %d: Type = %s', 0aH, 00H
$SG23321 DB	'[SELECTED] OpenCL Device %d: Type = %s    ', 00H
	ORG $+5
$SG23325 DB	'Failed to get OpenCL device info: %d', 0aH, 00H
	ORG $+2
$SG23326 DB	'[SELECTED] OpenCL Device %d: Name = %s', 0aH, 00H
$SG23327 DB	'[SELECTED] OpenCL Device %d: Name = %s    ', 00H
	ORG $+5
$SG23331 DB	'Failed to get OpenCL device info: %d', 0aH, 00H
	ORG $+2
$SG23332 DB	'[SELECTED] OpenCL Device %d: Compute units = %u', 0aH, 00H
	ORG $+7
$SG23333 DB	'[SELECTED] OpenCL Device %d: Compute units = %u    ', 00H
	ORG $+4
$SG23337 DB	'Failed to get OpenCL device info: %d', 0aH, 00H
	ORG $+2
$SG23339 DB	'[SELECTED] OpenCL Device %d: Max. work group size = %d', 0aH
	DB	00H
$SG23341 DB	'[SELECTED] OpenCL Device %d: Max. work group size = %d  '
	DB	'  ', 00H
	ORG $+5
$SG23344 DB	'Failed to create OpenCL command queue: %d', 0aH, 00H
	ORG $+5
$SG23347 DB	'Failed to open OpenCL kernel sources: %d', 0aH, 00H
	ORG $+2
$SG23348 DB	'-I. ', 00H
	ORG $+7
$SG23350 DB	'Failed to build OpenCL kernel: %d', 0aH, 00H
	ORG $+5
$SG23353 DB	'Failed to get OpenCL kernel info size: %d', 0aH, 00H
	ORG $+5
$SG23357 DB	'Failed to get OpenCL kernel info: %d', 0aH, 00H
	ORG $+2
$SG23358 DB	'OpenCL Programm Build Log: %s', 0aH, 00H
	ORG $+1
$SG23359 DB	'raytrace_kernel', 00H
$SG23361 DB	'Failed to create OpenCL kernel: %d', 0aH, 00H
	ORG $+4
$SG23365 DB	'Failed to get OpenCL kernel work group size info: %d', 0aH
	DB	00H
	ORG $+2
$SG23367 DB	'OpenCL Device 0: kernel work group size = %d', 0aH, 00H
	ORG $+2
$SG23369 DB	'OpenCL Device 0: forced kernel work group size = %d', 0aH
	DB	00H
	ORG $+3
$SG23378 DB	'Failed to enqueue OpenCL work: %d', 0aH, 00H
	ORG $+5
$SG23385 DB	'Failed to set OpenCL arg. #0: %d', 0aH, 00H
	ORG $+6
$SG23389 DB	'Failed to set OpenCL arg. #1: %d', 0aH, 00H
	ORG $+6
$SG23393 DB	'Failed to set OpenCL arg. #2: %d', 0aH, 00H
	ORG $+6
$SG23397 DB	'Failed to set OpenCL arg. #3: %d', 0aH, 00H
	ORG $+6
$SG23402 DB	'Failed to set OpenCL arg. #4: %d', 0aH, 00H
	ORG $+6
$SG23408 DB	'Failed to read the OpenCL pixel buffer: %d', 0aH, 00H
CONST	ENDS
;	COMDAT ?end@?$_Iosb@H@std@@2W4_Seekdir@12@B
CONST	SEGMENT
?end@?$_Iosb@H@std@@2W4_Seekdir@12@B DD 02H		; std::_Iosb<int>::end
CONST	ENDS
;	COMDAT ?cur@?$_Iosb@H@std@@2W4_Seekdir@12@B
CONST	SEGMENT
?cur@?$_Iosb@H@std@@2W4_Seekdir@12@B DD 01H		; std::_Iosb<int>::cur
CONST	ENDS
;	COMDAT ?beg@?$_Iosb@H@std@@2W4_Seekdir@12@B
CONST	SEGMENT
?beg@?$_Iosb@H@std@@2W4_Seekdir@12@B DD 00H		; std::_Iosb<int>::beg
CONST	ENDS
;	COMDAT ?binary@?$_Iosb@H@std@@2W4_Openmode@12@B
CONST	SEGMENT
?binary@?$_Iosb@H@std@@2W4_Openmode@12@B DD 020H	; std::_Iosb<int>::binary
CONST	ENDS
;	COMDAT ?_Noreplace@?$_Iosb@H@std@@2W4_Openmode@12@B
CONST	SEGMENT
?_Noreplace@?$_Iosb@H@std@@2W4_Openmode@12@B DD 080H	; std::_Iosb<int>::_Noreplace
CONST	ENDS
;	COMDAT ?_Nocreate@?$_Iosb@H@std@@2W4_Openmode@12@B
CONST	SEGMENT
?_Nocreate@?$_Iosb@H@std@@2W4_Openmode@12@B DD 040H	; std::_Iosb<int>::_Nocreate
CONST	ENDS
;	COMDAT ?trunc@?$_Iosb@H@std@@2W4_Openmode@12@B
CONST	SEGMENT
?trunc@?$_Iosb@H@std@@2W4_Openmode@12@B DD 010H		; std::_Iosb<int>::trunc
CONST	ENDS
;	COMDAT ?app@?$_Iosb@H@std@@2W4_Openmode@12@B
CONST	SEGMENT
?app@?$_Iosb@H@std@@2W4_Openmode@12@B DD 08H		; std::_Iosb<int>::app
CONST	ENDS
;	COMDAT ?ate@?$_Iosb@H@std@@2W4_Openmode@12@B
CONST	SEGMENT
?ate@?$_Iosb@H@std@@2W4_Openmode@12@B DD 04H		; std::_Iosb<int>::ate
CONST	ENDS
;	COMDAT ?out@?$_Iosb@H@std@@2W4_Openmode@12@B
CONST	SEGMENT
?out@?$_Iosb@H@std@@2W4_Openmode@12@B DD 02H		; std::_Iosb<int>::out
CONST	ENDS
;	COMDAT ?in@?$_Iosb@H@std@@2W4_Openmode@12@B
CONST	SEGMENT
?in@?$_Iosb@H@std@@2W4_Openmode@12@B DD 01H		; std::_Iosb<int>::in
CONST	ENDS
;	COMDAT ?_Hardfail@?$_Iosb@H@std@@2W4_Iostate@12@B
CONST	SEGMENT
?_Hardfail@?$_Iosb@H@std@@2W4_Iostate@12@B DD 010H	; std::_Iosb<int>::_Hardfail
CONST	ENDS
;	COMDAT ?badbit@?$_Iosb@H@std@@2W4_Iostate@12@B
CONST	SEGMENT
?badbit@?$_Iosb@H@std@@2W4_Iostate@12@B DD 04H		; std::_Iosb<int>::badbit
CONST	ENDS
;	COMDAT ?failbit@?$_Iosb@H@std@@2W4_Iostate@12@B
CONST	SEGMENT
?failbit@?$_Iosb@H@std@@2W4_Iostate@12@B DD 02H		; std::_Iosb<int>::failbit
CONST	ENDS
;	COMDAT ?eofbit@?$_Iosb@H@std@@2W4_Iostate@12@B
CONST	SEGMENT
?eofbit@?$_Iosb@H@std@@2W4_Iostate@12@B DD 01H		; std::_Iosb<int>::eofbit
CONST	ENDS
;	COMDAT ?goodbit@?$_Iosb@H@std@@2W4_Iostate@12@B
CONST	SEGMENT
?goodbit@?$_Iosb@H@std@@2W4_Iostate@12@B DD 00H		; std::_Iosb<int>::goodbit
CONST	ENDS
;	COMDAT ?floatfield@?$_Iosb@H@std@@2W4_Fmtflags@12@B
CONST	SEGMENT
?floatfield@?$_Iosb@H@std@@2W4_Fmtflags@12@B DD 03000H	; std::_Iosb<int>::floatfield
CONST	ENDS
;	COMDAT ?basefield@?$_Iosb@H@std@@2W4_Fmtflags@12@B
CONST	SEGMENT
?basefield@?$_Iosb@H@std@@2W4_Fmtflags@12@B DD 0e00H	; std::_Iosb<int>::basefield
CONST	ENDS
;	COMDAT ?adjustfield@?$_Iosb@H@std@@2W4_Fmtflags@12@B
CONST	SEGMENT
?adjustfield@?$_Iosb@H@std@@2W4_Fmtflags@12@B DD 01c0H	; std::_Iosb<int>::adjustfield
CONST	ENDS
;	COMDAT ?_Stdio@?$_Iosb@H@std@@2W4_Fmtflags@12@B
CONST	SEGMENT
?_Stdio@?$_Iosb@H@std@@2W4_Fmtflags@12@B DD 08000H	; std::_Iosb<int>::_Stdio
CONST	ENDS
;	COMDAT ?boolalpha@?$_Iosb@H@std@@2W4_Fmtflags@12@B
CONST	SEGMENT
?boolalpha@?$_Iosb@H@std@@2W4_Fmtflags@12@B DD 04000H	; std::_Iosb<int>::boolalpha
CONST	ENDS
;	COMDAT ?hexfloat@?$_Iosb@H@std@@2W4_Fmtflags@12@B
CONST	SEGMENT
?hexfloat@?$_Iosb@H@std@@2W4_Fmtflags@12@B DD 03000H	; std::_Iosb<int>::hexfloat
CONST	ENDS
;	COMDAT ?fixed@?$_Iosb@H@std@@2W4_Fmtflags@12@B
CONST	SEGMENT
?fixed@?$_Iosb@H@std@@2W4_Fmtflags@12@B DD 02000H	; std::_Iosb<int>::fixed
CONST	ENDS
;	COMDAT ?scientific@?$_Iosb@H@std@@2W4_Fmtflags@12@B
CONST	SEGMENT
?scientific@?$_Iosb@H@std@@2W4_Fmtflags@12@B DD 01000H	; std::_Iosb<int>::scientific
CONST	ENDS
;	COMDAT ?hex@?$_Iosb@H@std@@2W4_Fmtflags@12@B
CONST	SEGMENT
?hex@?$_Iosb@H@std@@2W4_Fmtflags@12@B DD 0800H		; std::_Iosb<int>::hex
CONST	ENDS
;	COMDAT ?oct@?$_Iosb@H@std@@2W4_Fmtflags@12@B
CONST	SEGMENT
?oct@?$_Iosb@H@std@@2W4_Fmtflags@12@B DD 0400H		; std::_Iosb<int>::oct
CONST	ENDS
;	COMDAT ?dec@?$_Iosb@H@std@@2W4_Fmtflags@12@B
CONST	SEGMENT
?dec@?$_Iosb@H@std@@2W4_Fmtflags@12@B DD 0200H		; std::_Iosb<int>::dec
CONST	ENDS
;	COMDAT ?internal@?$_Iosb@H@std@@2W4_Fmtflags@12@B
CONST	SEGMENT
?internal@?$_Iosb@H@std@@2W4_Fmtflags@12@B DD 0100H	; std::_Iosb<int>::internal
CONST	ENDS
;	COMDAT ?right@?$_Iosb@H@std@@2W4_Fmtflags@12@B
CONST	SEGMENT
?right@?$_Iosb@H@std@@2W4_Fmtflags@12@B DD 080H		; std::_Iosb<int>::right
CONST	ENDS
;	COMDAT ?left@?$_Iosb@H@std@@2W4_Fmtflags@12@B
CONST	SEGMENT
?left@?$_Iosb@H@std@@2W4_Fmtflags@12@B DD 040H		; std::_Iosb<int>::left
CONST	ENDS
;	COMDAT ?showpos@?$_Iosb@H@std@@2W4_Fmtflags@12@B
CONST	SEGMENT
?showpos@?$_Iosb@H@std@@2W4_Fmtflags@12@B DD 020H	; std::_Iosb<int>::showpos
CONST	ENDS
;	COMDAT ?showpoint@?$_Iosb@H@std@@2W4_Fmtflags@12@B
CONST	SEGMENT
?showpoint@?$_Iosb@H@std@@2W4_Fmtflags@12@B DD 010H	; std::_Iosb<int>::showpoint
CONST	ENDS
;	COMDAT ?showbase@?$_Iosb@H@std@@2W4_Fmtflags@12@B
CONST	SEGMENT
?showbase@?$_Iosb@H@std@@2W4_Fmtflags@12@B DD 08H	; std::_Iosb<int>::showbase
CONST	ENDS
;	COMDAT ?uppercase@?$_Iosb@H@std@@2W4_Fmtflags@12@B
CONST	SEGMENT
?uppercase@?$_Iosb@H@std@@2W4_Fmtflags@12@B DD 04H	; std::_Iosb<int>::uppercase
CONST	ENDS
;	COMDAT ?unitbuf@?$_Iosb@H@std@@2W4_Fmtflags@12@B
CONST	SEGMENT
?unitbuf@?$_Iosb@H@std@@2W4_Fmtflags@12@B DD 02H	; std::_Iosb<int>::unitbuf
CONST	ENDS
;	COMDAT ?skipws@?$_Iosb@H@std@@2W4_Fmtflags@12@B
CONST	SEGMENT
?skipws@?$_Iosb@H@std@@2W4_Fmtflags@12@B DD 01H		; std::_Iosb<int>::skipws
CONST	ENDS
;	COMDAT ?table_size@?$ctype@D@std@@2_KB
CONST	SEGMENT
?table_size@?$ctype@D@std@@2_KB DQ 0000000000000100H	; std::ctype<char>::table_size
CONST	ENDS
;	COMDAT ?none@?$_Locbase@H@std@@2HB
CONST	SEGMENT
?none@?$_Locbase@H@std@@2HB DD 00H			; std::_Locbase<int>::none
CONST	ENDS
;	COMDAT ?all@?$_Locbase@H@std@@2HB
CONST	SEGMENT
?all@?$_Locbase@H@std@@2HB DD 03fH			; std::_Locbase<int>::all
CONST	ENDS
;	COMDAT ?messages@?$_Locbase@H@std@@2HB
CONST	SEGMENT
?messages@?$_Locbase@H@std@@2HB DD 020H			; std::_Locbase<int>::messages
CONST	ENDS
;	COMDAT ?time@?$_Locbase@H@std@@2HB
CONST	SEGMENT
?time@?$_Locbase@H@std@@2HB DD 010H			; std::_Locbase<int>::time
CONST	ENDS
;	COMDAT ?numeric@?$_Locbase@H@std@@2HB
CONST	SEGMENT
?numeric@?$_Locbase@H@std@@2HB DD 08H			; std::_Locbase<int>::numeric
CONST	ENDS
;	COMDAT ?monetary@?$_Locbase@H@std@@2HB
CONST	SEGMENT
?monetary@?$_Locbase@H@std@@2HB DD 04H			; std::_Locbase<int>::monetary
CONST	ENDS
;	COMDAT ?ctype@?$_Locbase@H@std@@2HB
CONST	SEGMENT
?ctype@?$_Locbase@H@std@@2HB DD 02H			; std::_Locbase<int>::ctype
CONST	ENDS
;	COMDAT ?collate@?$_Locbase@H@std@@2HB
CONST	SEGMENT
?collate@?$_Locbase@H@std@@2HB DD 01H			; std::_Locbase<int>::collate
CONST	ENDS
;	COMDAT ?_Rank@?$_Arithmetic_traits@O@std@@2HB
CONST	SEGMENT
?_Rank@?$_Arithmetic_traits@O@std@@2HB DD 09H		; std::_Arithmetic_traits<long double>::_Rank
CONST	ENDS
;	COMDAT ?_Rank@?$_Arithmetic_traits@N@std@@2HB
CONST	SEGMENT
?_Rank@?$_Arithmetic_traits@N@std@@2HB DD 08H		; std::_Arithmetic_traits<double>::_Rank
CONST	ENDS
;	COMDAT ?_Rank@?$_Arithmetic_traits@M@std@@2HB
CONST	SEGMENT
?_Rank@?$_Arithmetic_traits@M@std@@2HB DD 07H		; std::_Arithmetic_traits<float>::_Rank
CONST	ENDS
;	COMDAT ?_Rank@?$_Arithmetic_traits@_K@std@@2HB
CONST	SEGMENT
?_Rank@?$_Arithmetic_traits@_K@std@@2HB DD 06H		; std::_Arithmetic_traits<unsigned __int64>::_Rank
CONST	ENDS
;	COMDAT ?_Rank@?$_Arithmetic_traits@_J@std@@2HB
CONST	SEGMENT
?_Rank@?$_Arithmetic_traits@_J@std@@2HB DD 06H		; std::_Arithmetic_traits<__int64>::_Rank
CONST	ENDS
;	COMDAT ?_Rank@?$_Arithmetic_traits@K@std@@2HB
CONST	SEGMENT
?_Rank@?$_Arithmetic_traits@K@std@@2HB DD 05H		; std::_Arithmetic_traits<unsigned long>::_Rank
CONST	ENDS
;	COMDAT ?_Rank@?$_Arithmetic_traits@J@std@@2HB
CONST	SEGMENT
?_Rank@?$_Arithmetic_traits@J@std@@2HB DD 05H		; std::_Arithmetic_traits<long>::_Rank
CONST	ENDS
;	COMDAT ?_Rank@?$_Arithmetic_traits@I@std@@2HB
CONST	SEGMENT
?_Rank@?$_Arithmetic_traits@I@std@@2HB DD 04H		; std::_Arithmetic_traits<unsigned int>::_Rank
CONST	ENDS
;	COMDAT ?_Rank@?$_Arithmetic_traits@H@std@@2HB
CONST	SEGMENT
?_Rank@?$_Arithmetic_traits@H@std@@2HB DD 04H		; std::_Arithmetic_traits<int>::_Rank
CONST	ENDS
;	COMDAT ?_Rank@?$_Arithmetic_traits@G@std@@2HB
CONST	SEGMENT
?_Rank@?$_Arithmetic_traits@G@std@@2HB DD 03H		; std::_Arithmetic_traits<unsigned short>::_Rank
CONST	ENDS
;	COMDAT ?_Rank@?$_Arithmetic_traits@F@std@@2HB
CONST	SEGMENT
?_Rank@?$_Arithmetic_traits@F@std@@2HB DD 03H		; std::_Arithmetic_traits<short>::_Rank
CONST	ENDS
;	COMDAT ?_Rank@?$_Arithmetic_traits@E@std@@2HB
CONST	SEGMENT
?_Rank@?$_Arithmetic_traits@E@std@@2HB DD 02H		; std::_Arithmetic_traits<unsigned char>::_Rank
CONST	ENDS
;	COMDAT ?_Rank@?$_Arithmetic_traits@C@std@@2HB
CONST	SEGMENT
?_Rank@?$_Arithmetic_traits@C@std@@2HB DD 02H		; std::_Arithmetic_traits<signed char>::_Rank
CONST	ENDS
;	COMDAT ?_Rank@?$_Arithmetic_traits@D@std@@2HB
CONST	SEGMENT
?_Rank@?$_Arithmetic_traits@D@std@@2HB DD 02H		; std::_Arithmetic_traits<char>::_Rank
CONST	ENDS
;	COMDAT ?_Rank@?$_Arithmetic_traits@_N@std@@2HB
CONST	SEGMENT
?_Rank@?$_Arithmetic_traits@_N@std@@2HB DD 01H		; std::_Arithmetic_traits<bool>::_Rank
CONST	ENDS
;	COMDAT ?value@?$integral_constant@_K$0A@@tr1@std@@2_KB
CONST	SEGMENT
?value@?$integral_constant@_K$0A@@tr1@std@@2_KB DQ 0000000000000000H ; std::tr1::integral_constant<unsigned __int64,0>::value
CONST	ENDS
;	COMDAT ?value@?$integral_constant@_N$00@tr1@std@@2_NB
CONST	SEGMENT
?value@?$integral_constant@_N$00@tr1@std@@2_NB DB 01H	; std::tr1::integral_constant<bool,1>::value
CONST	ENDS
;	COMDAT ?value@?$integral_constant@_N$0A@@tr1@std@@2_NB
CONST	SEGMENT
?value@?$integral_constant@_N$0A@@tr1@std@@2_NB DB 00H	; std::tr1::integral_constant<bool,0>::value
CONST	ENDS
;	COMDAT ?min_exponent10@?$numeric_limits@O@std@@2HB
CONST	SEGMENT
?min_exponent10@?$numeric_limits@O@std@@2HB DD 0fffffecdH ; std::numeric_limits<long double>::min_exponent10
CONST	ENDS
;	COMDAT ?min_exponent@?$numeric_limits@O@std@@2HB
CONST	SEGMENT
?min_exponent@?$numeric_limits@O@std@@2HB DD 0fffffc03H	; std::numeric_limits<long double>::min_exponent
CONST	ENDS
;	COMDAT ?max_exponent10@?$numeric_limits@O@std@@2HB
CONST	SEGMENT
?max_exponent10@?$numeric_limits@O@std@@2HB DD 0134H	; std::numeric_limits<long double>::max_exponent10
CONST	ENDS
;	COMDAT ?max_exponent@?$numeric_limits@O@std@@2HB
CONST	SEGMENT
?max_exponent@?$numeric_limits@O@std@@2HB DD 0400H	; std::numeric_limits<long double>::max_exponent
CONST	ENDS
;	COMDAT ?max_digits10@?$numeric_limits@O@std@@2HB
CONST	SEGMENT
?max_digits10@?$numeric_limits@O@std@@2HB DD 011H	; std::numeric_limits<long double>::max_digits10
CONST	ENDS
;	COMDAT ?digits10@?$numeric_limits@O@std@@2HB
CONST	SEGMENT
?digits10@?$numeric_limits@O@std@@2HB DD 0fH		; std::numeric_limits<long double>::digits10
CONST	ENDS
;	COMDAT ?digits@?$numeric_limits@O@std@@2HB
CONST	SEGMENT
?digits@?$numeric_limits@O@std@@2HB DD 035H		; std::numeric_limits<long double>::digits
CONST	ENDS
;	COMDAT ?min_exponent10@?$numeric_limits@N@std@@2HB
CONST	SEGMENT
?min_exponent10@?$numeric_limits@N@std@@2HB DD 0fffffecdH ; std::numeric_limits<double>::min_exponent10
CONST	ENDS
;	COMDAT ?min_exponent@?$numeric_limits@N@std@@2HB
CONST	SEGMENT
?min_exponent@?$numeric_limits@N@std@@2HB DD 0fffffc03H	; std::numeric_limits<double>::min_exponent
CONST	ENDS
;	COMDAT ?max_exponent10@?$numeric_limits@N@std@@2HB
CONST	SEGMENT
?max_exponent10@?$numeric_limits@N@std@@2HB DD 0134H	; std::numeric_limits<double>::max_exponent10
CONST	ENDS
;	COMDAT ?max_exponent@?$numeric_limits@N@std@@2HB
CONST	SEGMENT
?max_exponent@?$numeric_limits@N@std@@2HB DD 0400H	; std::numeric_limits<double>::max_exponent
CONST	ENDS
;	COMDAT ?max_digits10@?$numeric_limits@N@std@@2HB
CONST	SEGMENT
?max_digits10@?$numeric_limits@N@std@@2HB DD 011H	; std::numeric_limits<double>::max_digits10
CONST	ENDS
;	COMDAT ?digits10@?$numeric_limits@N@std@@2HB
CONST	SEGMENT
?digits10@?$numeric_limits@N@std@@2HB DD 0fH		; std::numeric_limits<double>::digits10
CONST	ENDS
;	COMDAT ?digits@?$numeric_limits@N@std@@2HB
CONST	SEGMENT
?digits@?$numeric_limits@N@std@@2HB DD 035H		; std::numeric_limits<double>::digits
CONST	ENDS
;	COMDAT ?min_exponent10@?$numeric_limits@M@std@@2HB
CONST	SEGMENT
?min_exponent10@?$numeric_limits@M@std@@2HB DD 0ffffffdbH ; std::numeric_limits<float>::min_exponent10
CONST	ENDS
;	COMDAT ?min_exponent@?$numeric_limits@M@std@@2HB
CONST	SEGMENT
?min_exponent@?$numeric_limits@M@std@@2HB DD 0ffffff83H	; std::numeric_limits<float>::min_exponent
CONST	ENDS
;	COMDAT ?max_exponent10@?$numeric_limits@M@std@@2HB
CONST	SEGMENT
?max_exponent10@?$numeric_limits@M@std@@2HB DD 026H	; std::numeric_limits<float>::max_exponent10
CONST	ENDS
;	COMDAT ?max_exponent@?$numeric_limits@M@std@@2HB
CONST	SEGMENT
?max_exponent@?$numeric_limits@M@std@@2HB DD 080H	; std::numeric_limits<float>::max_exponent
CONST	ENDS
;	COMDAT ?max_digits10@?$numeric_limits@M@std@@2HB
CONST	SEGMENT
?max_digits10@?$numeric_limits@M@std@@2HB DD 08H	; std::numeric_limits<float>::max_digits10
CONST	ENDS
;	COMDAT ?digits10@?$numeric_limits@M@std@@2HB
CONST	SEGMENT
?digits10@?$numeric_limits@M@std@@2HB DD 06H		; std::numeric_limits<float>::digits10
CONST	ENDS
;	COMDAT ?digits@?$numeric_limits@M@std@@2HB
CONST	SEGMENT
?digits@?$numeric_limits@M@std@@2HB DD 018H		; std::numeric_limits<float>::digits
CONST	ENDS
;	COMDAT ?max_digits10@?$numeric_limits@_K@std@@2HB
CONST	SEGMENT
?max_digits10@?$numeric_limits@_K@std@@2HB DD 015H	; std::numeric_limits<unsigned __int64>::max_digits10
CONST	ENDS
;	COMDAT ?digits10@?$numeric_limits@_K@std@@2HB
CONST	SEGMENT
?digits10@?$numeric_limits@_K@std@@2HB DD 013H		; std::numeric_limits<unsigned __int64>::digits10
CONST	ENDS
;	COMDAT ?digits@?$numeric_limits@_K@std@@2HB
CONST	SEGMENT
?digits@?$numeric_limits@_K@std@@2HB DD 040H		; std::numeric_limits<unsigned __int64>::digits
CONST	ENDS
;	COMDAT ?is_signed@?$numeric_limits@_K@std@@2_NB
CONST	SEGMENT
?is_signed@?$numeric_limits@_K@std@@2_NB DB 00H		; std::numeric_limits<unsigned __int64>::is_signed
CONST	ENDS
;	COMDAT ?max_digits10@?$numeric_limits@_J@std@@2HB
CONST	SEGMENT
?max_digits10@?$numeric_limits@_J@std@@2HB DD 014H	; std::numeric_limits<__int64>::max_digits10
CONST	ENDS
;	COMDAT ?digits10@?$numeric_limits@_J@std@@2HB
CONST	SEGMENT
?digits10@?$numeric_limits@_J@std@@2HB DD 012H		; std::numeric_limits<__int64>::digits10
CONST	ENDS
;	COMDAT ?digits@?$numeric_limits@_J@std@@2HB
CONST	SEGMENT
?digits@?$numeric_limits@_J@std@@2HB DD 03fH		; std::numeric_limits<__int64>::digits
CONST	ENDS
;	COMDAT ?is_signed@?$numeric_limits@_J@std@@2_NB
CONST	SEGMENT
?is_signed@?$numeric_limits@_J@std@@2_NB DB 01H		; std::numeric_limits<__int64>::is_signed
CONST	ENDS
;	COMDAT ?max_digits10@?$numeric_limits@K@std@@2HB
CONST	SEGMENT
?max_digits10@?$numeric_limits@K@std@@2HB DD 0bH	; std::numeric_limits<unsigned long>::max_digits10
CONST	ENDS
;	COMDAT ?digits10@?$numeric_limits@K@std@@2HB
CONST	SEGMENT
?digits10@?$numeric_limits@K@std@@2HB DD 09H		; std::numeric_limits<unsigned long>::digits10
CONST	ENDS
;	COMDAT ?digits@?$numeric_limits@K@std@@2HB
CONST	SEGMENT
?digits@?$numeric_limits@K@std@@2HB DD 020H		; std::numeric_limits<unsigned long>::digits
CONST	ENDS
;	COMDAT ?is_signed@?$numeric_limits@K@std@@2_NB
CONST	SEGMENT
?is_signed@?$numeric_limits@K@std@@2_NB DB 00H		; std::numeric_limits<unsigned long>::is_signed
CONST	ENDS
;	COMDAT ?max_digits10@?$numeric_limits@J@std@@2HB
CONST	SEGMENT
?max_digits10@?$numeric_limits@J@std@@2HB DD 0bH	; std::numeric_limits<long>::max_digits10
CONST	ENDS
;	COMDAT ?digits10@?$numeric_limits@J@std@@2HB
CONST	SEGMENT
?digits10@?$numeric_limits@J@std@@2HB DD 09H		; std::numeric_limits<long>::digits10
CONST	ENDS
;	COMDAT ?digits@?$numeric_limits@J@std@@2HB
CONST	SEGMENT
?digits@?$numeric_limits@J@std@@2HB DD 01fH		; std::numeric_limits<long>::digits
CONST	ENDS
;	COMDAT ?is_signed@?$numeric_limits@J@std@@2_NB
CONST	SEGMENT
?is_signed@?$numeric_limits@J@std@@2_NB DB 01H		; std::numeric_limits<long>::is_signed
CONST	ENDS
;	COMDAT ?max_digits10@?$numeric_limits@I@std@@2HB
CONST	SEGMENT
?max_digits10@?$numeric_limits@I@std@@2HB DD 0bH	; std::numeric_limits<unsigned int>::max_digits10
CONST	ENDS
;	COMDAT ?digits10@?$numeric_limits@I@std@@2HB
CONST	SEGMENT
?digits10@?$numeric_limits@I@std@@2HB DD 09H		; std::numeric_limits<unsigned int>::digits10
CONST	ENDS
;	COMDAT ?digits@?$numeric_limits@I@std@@2HB
CONST	SEGMENT
?digits@?$numeric_limits@I@std@@2HB DD 020H		; std::numeric_limits<unsigned int>::digits
CONST	ENDS
;	COMDAT ?is_signed@?$numeric_limits@I@std@@2_NB
CONST	SEGMENT
?is_signed@?$numeric_limits@I@std@@2_NB DB 00H		; std::numeric_limits<unsigned int>::is_signed
CONST	ENDS
;	COMDAT ?max_digits10@?$numeric_limits@H@std@@2HB
CONST	SEGMENT
?max_digits10@?$numeric_limits@H@std@@2HB DD 0bH	; std::numeric_limits<int>::max_digits10
CONST	ENDS
;	COMDAT ?digits10@?$numeric_limits@H@std@@2HB
CONST	SEGMENT
?digits10@?$numeric_limits@H@std@@2HB DD 09H		; std::numeric_limits<int>::digits10
CONST	ENDS
;	COMDAT ?digits@?$numeric_limits@H@std@@2HB
CONST	SEGMENT
?digits@?$numeric_limits@H@std@@2HB DD 01fH		; std::numeric_limits<int>::digits
CONST	ENDS
;	COMDAT ?is_signed@?$numeric_limits@H@std@@2_NB
CONST	SEGMENT
?is_signed@?$numeric_limits@H@std@@2_NB DB 01H		; std::numeric_limits<int>::is_signed
CONST	ENDS
;	COMDAT ?max_digits10@?$numeric_limits@G@std@@2HB
CONST	SEGMENT
?max_digits10@?$numeric_limits@G@std@@2HB DD 06H	; std::numeric_limits<unsigned short>::max_digits10
CONST	ENDS
;	COMDAT ?digits10@?$numeric_limits@G@std@@2HB
CONST	SEGMENT
?digits10@?$numeric_limits@G@std@@2HB DD 04H		; std::numeric_limits<unsigned short>::digits10
CONST	ENDS
;	COMDAT ?digits@?$numeric_limits@G@std@@2HB
CONST	SEGMENT
?digits@?$numeric_limits@G@std@@2HB DD 010H		; std::numeric_limits<unsigned short>::digits
CONST	ENDS
;	COMDAT ?is_signed@?$numeric_limits@G@std@@2_NB
CONST	SEGMENT
?is_signed@?$numeric_limits@G@std@@2_NB DB 00H		; std::numeric_limits<unsigned short>::is_signed
CONST	ENDS
;	COMDAT ?max_digits10@?$numeric_limits@F@std@@2HB
CONST	SEGMENT
?max_digits10@?$numeric_limits@F@std@@2HB DD 06H	; std::numeric_limits<short>::max_digits10
CONST	ENDS
;	COMDAT ?digits10@?$numeric_limits@F@std@@2HB
CONST	SEGMENT
?digits10@?$numeric_limits@F@std@@2HB DD 04H		; std::numeric_limits<short>::digits10
CONST	ENDS
;	COMDAT ?digits@?$numeric_limits@F@std@@2HB
CONST	SEGMENT
?digits@?$numeric_limits@F@std@@2HB DD 0fH		; std::numeric_limits<short>::digits
CONST	ENDS
;	COMDAT ?is_signed@?$numeric_limits@F@std@@2_NB
CONST	SEGMENT
?is_signed@?$numeric_limits@F@std@@2_NB DB 01H		; std::numeric_limits<short>::is_signed
CONST	ENDS
;	COMDAT ?max_digits10@?$numeric_limits@E@std@@2HB
CONST	SEGMENT
?max_digits10@?$numeric_limits@E@std@@2HB DD 04H	; std::numeric_limits<unsigned char>::max_digits10
CONST	ENDS
;	COMDAT ?digits10@?$numeric_limits@E@std@@2HB
CONST	SEGMENT
?digits10@?$numeric_limits@E@std@@2HB DD 02H		; std::numeric_limits<unsigned char>::digits10
CONST	ENDS
;	COMDAT ?digits@?$numeric_limits@E@std@@2HB
CONST	SEGMENT
?digits@?$numeric_limits@E@std@@2HB DD 08H		; std::numeric_limits<unsigned char>::digits
CONST	ENDS
;	COMDAT ?is_signed@?$numeric_limits@E@std@@2_NB
CONST	SEGMENT
?is_signed@?$numeric_limits@E@std@@2_NB DB 00H		; std::numeric_limits<unsigned char>::is_signed
CONST	ENDS
;	COMDAT ?max_digits10@?$numeric_limits@C@std@@2HB
CONST	SEGMENT
?max_digits10@?$numeric_limits@C@std@@2HB DD 04H	; std::numeric_limits<signed char>::max_digits10
CONST	ENDS
;	COMDAT ?digits10@?$numeric_limits@C@std@@2HB
CONST	SEGMENT
?digits10@?$numeric_limits@C@std@@2HB DD 02H		; std::numeric_limits<signed char>::digits10
CONST	ENDS
;	COMDAT ?digits@?$numeric_limits@C@std@@2HB
CONST	SEGMENT
?digits@?$numeric_limits@C@std@@2HB DD 07H		; std::numeric_limits<signed char>::digits
CONST	ENDS
;	COMDAT ?is_signed@?$numeric_limits@C@std@@2_NB
CONST	SEGMENT
?is_signed@?$numeric_limits@C@std@@2_NB DB 01H		; std::numeric_limits<signed char>::is_signed
CONST	ENDS
;	COMDAT ?max_digits10@?$numeric_limits@_N@std@@2HB
CONST	SEGMENT
?max_digits10@?$numeric_limits@_N@std@@2HB DD 00H	; std::numeric_limits<bool>::max_digits10
CONST	ENDS
;	COMDAT ?digits10@?$numeric_limits@_N@std@@2HB
CONST	SEGMENT
?digits10@?$numeric_limits@_N@std@@2HB DD 00H		; std::numeric_limits<bool>::digits10
CONST	ENDS
;	COMDAT ?digits@?$numeric_limits@_N@std@@2HB
CONST	SEGMENT
?digits@?$numeric_limits@_N@std@@2HB DD 01H		; std::numeric_limits<bool>::digits
CONST	ENDS
;	COMDAT ?is_signed@?$numeric_limits@_N@std@@2_NB
CONST	SEGMENT
?is_signed@?$numeric_limits@_N@std@@2_NB DB 00H		; std::numeric_limits<bool>::is_signed
CONST	ENDS
;	COMDAT ?is_modulo@?$numeric_limits@_N@std@@2_NB
CONST	SEGMENT
?is_modulo@?$numeric_limits@_N@std@@2_NB DB 00H		; std::numeric_limits<bool>::is_modulo
CONST	ENDS
;	COMDAT ?max_digits10@?$numeric_limits@_W@std@@2HB
CONST	SEGMENT
?max_digits10@?$numeric_limits@_W@std@@2HB DD 06H	; std::numeric_limits<wchar_t>::max_digits10
CONST	ENDS
;	COMDAT ?digits10@?$numeric_limits@_W@std@@2HB
CONST	SEGMENT
?digits10@?$numeric_limits@_W@std@@2HB DD 04H		; std::numeric_limits<wchar_t>::digits10
CONST	ENDS
;	COMDAT ?digits@?$numeric_limits@_W@std@@2HB
CONST	SEGMENT
?digits@?$numeric_limits@_W@std@@2HB DD 010H		; std::numeric_limits<wchar_t>::digits
CONST	ENDS
;	COMDAT ?is_signed@?$numeric_limits@_W@std@@2_NB
CONST	SEGMENT
?is_signed@?$numeric_limits@_W@std@@2_NB DB 00H		; std::numeric_limits<wchar_t>::is_signed
CONST	ENDS
;	COMDAT ?max_digits10@?$numeric_limits@D@std@@2HB
CONST	SEGMENT
?max_digits10@?$numeric_limits@D@std@@2HB DD 04H	; std::numeric_limits<char>::max_digits10
CONST	ENDS
;	COMDAT ?digits10@?$numeric_limits@D@std@@2HB
CONST	SEGMENT
?digits10@?$numeric_limits@D@std@@2HB DD 02H		; std::numeric_limits<char>::digits10
CONST	ENDS
;	COMDAT ?digits@?$numeric_limits@D@std@@2HB
CONST	SEGMENT
?digits@?$numeric_limits@D@std@@2HB DD 07H		; std::numeric_limits<char>::digits
CONST	ENDS
;	COMDAT ?is_signed@?$numeric_limits@D@std@@2_NB
CONST	SEGMENT
?is_signed@?$numeric_limits@D@std@@2_NB DB 01H		; std::numeric_limits<char>::is_signed
CONST	ENDS
;	COMDAT ?radix@_Num_float_base@std@@2HB
CONST	SEGMENT
?radix@_Num_float_base@std@@2HB DD 02H			; std::_Num_float_base::radix
CONST	ENDS
;	COMDAT ?round_style@_Num_float_base@std@@2W4float_round_style@2@B
CONST	SEGMENT
?round_style@_Num_float_base@std@@2W4float_round_style@2@B DD 01H ; std::_Num_float_base::round_style
CONST	ENDS
;	COMDAT ?traps@_Num_float_base@std@@2_NB
CONST	SEGMENT
?traps@_Num_float_base@std@@2_NB DB 01H			; std::_Num_float_base::traps
CONST	ENDS
;	COMDAT ?tinyness_before@_Num_float_base@std@@2_NB
CONST	SEGMENT
?tinyness_before@_Num_float_base@std@@2_NB DB 01H	; std::_Num_float_base::tinyness_before
CONST	ENDS
;	COMDAT ?is_specialized@_Num_float_base@std@@2_NB
CONST	SEGMENT
?is_specialized@_Num_float_base@std@@2_NB DB 01H	; std::_Num_float_base::is_specialized
CONST	ENDS
;	COMDAT ?is_signed@_Num_float_base@std@@2_NB
CONST	SEGMENT
?is_signed@_Num_float_base@std@@2_NB DB 01H		; std::_Num_float_base::is_signed
CONST	ENDS
;	COMDAT ?is_modulo@_Num_float_base@std@@2_NB
CONST	SEGMENT
?is_modulo@_Num_float_base@std@@2_NB DB 00H		; std::_Num_float_base::is_modulo
CONST	ENDS
;	COMDAT ?is_integer@_Num_float_base@std@@2_NB
CONST	SEGMENT
?is_integer@_Num_float_base@std@@2_NB DB 00H		; std::_Num_float_base::is_integer
CONST	ENDS
;	COMDAT ?is_iec559@_Num_float_base@std@@2_NB
CONST	SEGMENT
?is_iec559@_Num_float_base@std@@2_NB DB 01H		; std::_Num_float_base::is_iec559
CONST	ENDS
;	COMDAT ?is_exact@_Num_float_base@std@@2_NB
CONST	SEGMENT
?is_exact@_Num_float_base@std@@2_NB DB 00H		; std::_Num_float_base::is_exact
CONST	ENDS
;	COMDAT ?is_bounded@_Num_float_base@std@@2_NB
CONST	SEGMENT
?is_bounded@_Num_float_base@std@@2_NB DB 01H		; std::_Num_float_base::is_bounded
CONST	ENDS
;	COMDAT ?has_signaling_NaN@_Num_float_base@std@@2_NB
CONST	SEGMENT
?has_signaling_NaN@_Num_float_base@std@@2_NB DB 01H	; std::_Num_float_base::has_signaling_NaN
CONST	ENDS
;	COMDAT ?has_quiet_NaN@_Num_float_base@std@@2_NB
CONST	SEGMENT
?has_quiet_NaN@_Num_float_base@std@@2_NB DB 01H		; std::_Num_float_base::has_quiet_NaN
CONST	ENDS
;	COMDAT ?has_infinity@_Num_float_base@std@@2_NB
CONST	SEGMENT
?has_infinity@_Num_float_base@std@@2_NB DB 01H		; std::_Num_float_base::has_infinity
CONST	ENDS
;	COMDAT ?has_denorm_loss@_Num_float_base@std@@2_NB
CONST	SEGMENT
?has_denorm_loss@_Num_float_base@std@@2_NB DB 01H	; std::_Num_float_base::has_denorm_loss
CONST	ENDS
;	COMDAT ?has_denorm@_Num_float_base@std@@2W4float_denorm_style@2@B
CONST	SEGMENT
?has_denorm@_Num_float_base@std@@2W4float_denorm_style@2@B DD 01H ; std::_Num_float_base::has_denorm
CONST	ENDS
;	COMDAT ?radix@_Num_int_base@std@@2HB
CONST	SEGMENT
?radix@_Num_int_base@std@@2HB DD 02H			; std::_Num_int_base::radix
CONST	ENDS
;	COMDAT ?is_specialized@_Num_int_base@std@@2_NB
CONST	SEGMENT
?is_specialized@_Num_int_base@std@@2_NB DB 01H		; std::_Num_int_base::is_specialized
CONST	ENDS
;	COMDAT ?is_modulo@_Num_int_base@std@@2_NB
CONST	SEGMENT
?is_modulo@_Num_int_base@std@@2_NB DB 01H		; std::_Num_int_base::is_modulo
CONST	ENDS
;	COMDAT ?is_integer@_Num_int_base@std@@2_NB
CONST	SEGMENT
?is_integer@_Num_int_base@std@@2_NB DB 01H		; std::_Num_int_base::is_integer
CONST	ENDS
;	COMDAT ?is_exact@_Num_int_base@std@@2_NB
CONST	SEGMENT
?is_exact@_Num_int_base@std@@2_NB DB 01H		; std::_Num_int_base::is_exact
CONST	ENDS
;	COMDAT ?is_bounded@_Num_int_base@std@@2_NB
CONST	SEGMENT
?is_bounded@_Num_int_base@std@@2_NB DB 01H		; std::_Num_int_base::is_bounded
CONST	ENDS
;	COMDAT ?radix@_Num_base@std@@2HB
CONST	SEGMENT
?radix@_Num_base@std@@2HB DD 00H			; std::_Num_base::radix
CONST	ENDS
;	COMDAT ?min_exponent10@_Num_base@std@@2HB
CONST	SEGMENT
?min_exponent10@_Num_base@std@@2HB DD 00H		; std::_Num_base::min_exponent10
CONST	ENDS
;	COMDAT ?min_exponent@_Num_base@std@@2HB
CONST	SEGMENT
?min_exponent@_Num_base@std@@2HB DD 00H			; std::_Num_base::min_exponent
CONST	ENDS
;	COMDAT ?max_exponent10@_Num_base@std@@2HB
CONST	SEGMENT
?max_exponent10@_Num_base@std@@2HB DD 00H		; std::_Num_base::max_exponent10
CONST	ENDS
;	COMDAT ?max_exponent@_Num_base@std@@2HB
CONST	SEGMENT
?max_exponent@_Num_base@std@@2HB DD 00H			; std::_Num_base::max_exponent
CONST	ENDS
;	COMDAT ?max_digits10@_Num_base@std@@2HB
CONST	SEGMENT
?max_digits10@_Num_base@std@@2HB DD 00H			; std::_Num_base::max_digits10
CONST	ENDS
;	COMDAT ?digits10@_Num_base@std@@2HB
CONST	SEGMENT
?digits10@_Num_base@std@@2HB DD 00H			; std::_Num_base::digits10
CONST	ENDS
;	COMDAT ?digits@_Num_base@std@@2HB
CONST	SEGMENT
?digits@_Num_base@std@@2HB DD 00H			; std::_Num_base::digits
CONST	ENDS
;	COMDAT ?round_style@_Num_base@std@@2W4float_round_style@2@B
CONST	SEGMENT
?round_style@_Num_base@std@@2W4float_round_style@2@B DD 00H ; std::_Num_base::round_style
CONST	ENDS
;	COMDAT ?traps@_Num_base@std@@2_NB
CONST	SEGMENT
?traps@_Num_base@std@@2_NB DB 00H			; std::_Num_base::traps
CONST	ENDS
;	COMDAT ?tinyness_before@_Num_base@std@@2_NB
CONST	SEGMENT
?tinyness_before@_Num_base@std@@2_NB DB 00H		; std::_Num_base::tinyness_before
CONST	ENDS
;	COMDAT ?is_specialized@_Num_base@std@@2_NB
CONST	SEGMENT
?is_specialized@_Num_base@std@@2_NB DB 00H		; std::_Num_base::is_specialized
CONST	ENDS
;	COMDAT ?is_signed@_Num_base@std@@2_NB
CONST	SEGMENT
?is_signed@_Num_base@std@@2_NB DB 00H			; std::_Num_base::is_signed
CONST	ENDS
;	COMDAT ?is_modulo@_Num_base@std@@2_NB
CONST	SEGMENT
?is_modulo@_Num_base@std@@2_NB DB 00H			; std::_Num_base::is_modulo
CONST	ENDS
;	COMDAT ?is_integer@_Num_base@std@@2_NB
CONST	SEGMENT
?is_integer@_Num_base@std@@2_NB DB 00H			; std::_Num_base::is_integer
CONST	ENDS
;	COMDAT ?is_iec559@_Num_base@std@@2_NB
CONST	SEGMENT
?is_iec559@_Num_base@std@@2_NB DB 00H			; std::_Num_base::is_iec559
CONST	ENDS
;	COMDAT ?is_exact@_Num_base@std@@2_NB
CONST	SEGMENT
?is_exact@_Num_base@std@@2_NB DB 00H			; std::_Num_base::is_exact
CONST	ENDS
;	COMDAT ?is_bounded@_Num_base@std@@2_NB
CONST	SEGMENT
?is_bounded@_Num_base@std@@2_NB DB 00H			; std::_Num_base::is_bounded
CONST	ENDS
;	COMDAT ?has_signaling_NaN@_Num_base@std@@2_NB
CONST	SEGMENT
?has_signaling_NaN@_Num_base@std@@2_NB DB 00H		; std::_Num_base::has_signaling_NaN
CONST	ENDS
;	COMDAT ?has_quiet_NaN@_Num_base@std@@2_NB
CONST	SEGMENT
?has_quiet_NaN@_Num_base@std@@2_NB DB 00H		; std::_Num_base::has_quiet_NaN
CONST	ENDS
;	COMDAT ?has_infinity@_Num_base@std@@2_NB
CONST	SEGMENT
?has_infinity@_Num_base@std@@2_NB DB 00H		; std::_Num_base::has_infinity
CONST	ENDS
;	COMDAT ?has_denorm_loss@_Num_base@std@@2_NB
CONST	SEGMENT
?has_denorm_loss@_Num_base@std@@2_NB DB 00H		; std::_Num_base::has_denorm_loss
CONST	ENDS
;	COMDAT ?has_denorm@_Num_base@std@@2W4float_denorm_style@2@B
CONST	SEGMENT
?has_denorm@_Num_base@std@@2W4float_denorm_style@2@B DD 00H ; std::_Num_base::has_denorm
CONST	ENDS
PUBLIC	?AllocateBuffers@@YAXXZ				; AllocateBuffers
EXTRN	?m_Scene@@3PEAUScene@@EA:QWORD			; m_Scene
EXTRN	clEnqueueWriteBuffer:PROC
EXTRN	?m_Dest@@3PEAIEA:QWORD				; m_Dest
EXTRN	exit:PROC
EXTRN	fprintf:PROC
EXTRN	__iob_func:PROC
EXTRN	clCreateBuffer:PROC
EXTRN	?m_Height@@3HA:DWORD				; m_Height
EXTRN	?m_Width@@3HA:DWORD				; m_Width
EXTRN	_RTC_CheckStackVars:PROC
EXTRN	_RTC_Shutdown:PROC
EXTRN	_RTC_InitBase:PROC
_BSS	SEGMENT
	ALIGN	8

primitiveBuffer DQ 01H DUP (?)
commandQueue DQ	01H DUP (?)
m_DestBuffer DQ	01H DUP (?)
context	DQ	01H DUP (?)
_BSS	ENDS
pdata	SEGMENT
$pdata$?AllocateBuffers@@YAXXZ DD imagerel $LN7
	DD	imagerel $LN7+538
	DD	imagerel $unwind$?AllocateBuffers@@YAXXZ
pdata	ENDS
xdata	SEGMENT
$unwind$?AllocateBuffers@@YAXXZ DD 021801H
	DD	07002f209H
xdata	ENDS
CONST	SEGMENT
?AllocateBuffers@@YAXXZ$rtcName$0 DB 073H		; AllocateBuffers
	DB	074H
	DB	061H
	DB	074H
	DB	075H
	DB	073H
	DB	00H
	ORG $+13
?AllocateBuffers@@YAXXZ$rtcVarDesc DD 064H		; AllocateBuffers
	DD	04H
	DQ	FLAT:?AllocateBuffers@@YAXXZ$rtcName$0
	ORG $+48
?AllocateBuffers@@YAXXZ$rtcFrameData DD 01H		; AllocateBuffers
	DD	00H
	DQ	FLAT:?AllocateBuffers@@YAXXZ$rtcVarDesc
CONST	ENDS
;	COMDAT rtc$TMZ
; File c:\users\mark\documents\devmaster_raytracing\raytracer3.0.06.no_rec.samp\openclcode.cpp
rtc$TMZ	SEGMENT
_RTC_Shutdown.rtc$TMZ DQ FLAT:_RTC_Shutdown
rtc$TMZ	ENDS
;	COMDAT rtc$IMZ
rtc$IMZ	SEGMENT
_RTC_InitBase.rtc$IMZ DQ FLAT:_RTC_InitBase
; Function compile flags: /Odtp /RTCsu
rtc$IMZ	ENDS
_TEXT	SEGMENT
pixelCount$ = 80
status$ = 100
sizeBytes$ = 116
primCount$ = 120
?AllocateBuffers@@YAXXZ PROC				; AllocateBuffers
; Line 64
$LN7:
	push	rdi
	sub	rsp, 128				; 00000080H
	mov	rdi, rsp
	mov	ecx, 32					; 00000020H
	mov	eax, -858993460				; ccccccccH
	rep stosd
; Line 65
	mov	eax, DWORD PTR ?m_Width@@3HA		; m_Width
	imul	eax, DWORD PTR ?m_Height@@3HA		; m_Height
	mov	DWORD PTR pixelCount$[rsp], eax
; Line 68
	movsxd	rax, DWORD PTR pixelCount$[rsp]
	shl	rax, 2
	mov	DWORD PTR sizeBytes$[rsp], eax
; Line 74
	mov	eax, DWORD PTR sizeBytes$[rsp]
	lea	rcx, QWORD PTR status$[rsp]
	mov	QWORD PTR [rsp+32], rcx
	xor	r9d, r9d
	mov	r8d, eax
	mov	edx, 1
	mov	rcx, QWORD PTR context
	call	clCreateBuffer
	mov	QWORD PTR m_DestBuffer, rax
; Line 75
	cmp	DWORD PTR status$[rsp], 0
	je	SHORT $LN4@AllocateBu
; Line 76
	call	__iob_func
	add	rax, 96					; 00000060H
	mov	r8d, DWORD PTR status$[rsp]
	lea	rdx, OFFSET FLAT:$SG23171
	mov	rcx, rax
	call	fprintf
; Line 77
	mov	ecx, -1
	call	exit
$LN4@AllocateBu:
; Line 88
	mov	eax, DWORD PTR sizeBytes$[rsp]
	mov	QWORD PTR [rsp+64], 0
	mov	QWORD PTR [rsp+56], 0
	mov	DWORD PTR [rsp+48], 0
	mov	rcx, QWORD PTR ?m_Dest@@3PEAIEA		; m_Dest
	mov	QWORD PTR [rsp+40], rcx
	mov	QWORD PTR [rsp+32], rax
	xor	r9d, r9d
	mov	r8d, 1
	mov	rdx, QWORD PTR m_DestBuffer
	mov	rcx, QWORD PTR commandQueue
	call	clEnqueueWriteBuffer
	mov	DWORD PTR status$[rsp], eax
; Line 89
	cmp	DWORD PTR status$[rsp], 0
	je	SHORT $LN3@AllocateBu
; Line 90
	call	__iob_func
	add	rax, 96					; 00000060H
	mov	r8d, DWORD PTR status$[rsp]
	lea	rdx, OFFSET FLAT:$SG23173
	mov	rcx, rax
	call	fprintf
; Line 91
	mov	ecx, -1
	call	exit
$LN3@AllocateBu:
; Line 94
	mov	rax, QWORD PTR ?m_Scene@@3PEAUScene@@EA	; m_Scene
	mov	eax, DWORD PTR [rax]
	mov	DWORD PTR primCount$[rsp], eax
; Line 95
	movsxd	rax, DWORD PTR primCount$[rsp]
	imul	rax, 96					; 00000060H
	mov	DWORD PTR sizeBytes$[rsp], eax
; Line 101
	mov	eax, DWORD PTR sizeBytes$[rsp]
	lea	rcx, QWORD PTR status$[rsp]
	mov	QWORD PTR [rsp+32], rcx
	xor	r9d, r9d
	mov	r8d, eax
	mov	edx, 1
	mov	rcx, QWORD PTR context
	call	clCreateBuffer
	mov	QWORD PTR primitiveBuffer, rax
; Line 102
	cmp	DWORD PTR status$[rsp], 0
	je	SHORT $LN2@AllocateBu
; Line 103
	call	__iob_func
	add	rax, 96					; 00000060H
	mov	r8d, DWORD PTR status$[rsp]
	lea	rdx, OFFSET FLAT:$SG23177
	mov	rcx, rax
	call	fprintf
; Line 104
	mov	ecx, -1
	call	exit
$LN2@AllocateBu:
; Line 115
	mov	eax, DWORD PTR sizeBytes$[rsp]
	mov	QWORD PTR [rsp+64], 0
	mov	QWORD PTR [rsp+56], 0
	mov	DWORD PTR [rsp+48], 0
	mov	rcx, QWORD PTR ?m_Scene@@3PEAUScene@@EA	; m_Scene
	mov	rcx, QWORD PTR [rcx+8]
	mov	QWORD PTR [rsp+40], rcx
	mov	QWORD PTR [rsp+32], rax
	xor	r9d, r9d
	mov	r8d, 1
	mov	rdx, QWORD PTR primitiveBuffer
	mov	rcx, QWORD PTR commandQueue
	call	clEnqueueWriteBuffer
	mov	DWORD PTR status$[rsp], eax
; Line 116
	cmp	DWORD PTR status$[rsp], 0
	je	SHORT $LN1@AllocateBu
; Line 117
	call	__iob_func
	add	rax, 96					; 00000060H
	mov	r8d, DWORD PTR status$[rsp]
	lea	rdx, OFFSET FLAT:$SG23179
	mov	rcx, rax
	call	fprintf
; Line 118
	mov	ecx, -1
	call	exit
$LN1@AllocateBu:
$LN6@AllocateBu:
; Line 120
	mov	rcx, rsp
	lea	rdx, OFFSET FLAT:?AllocateBuffers@@YAXXZ$rtcFrameData
	call	_RTC_CheckStackVars
	add	rsp, 128				; 00000080H
	pop	rdi
	ret	0
?AllocateBuffers@@YAXXZ ENDP				; AllocateBuffers
_TEXT	ENDS
PUBLIC	?c_str@?$basic_string@DU?$char_traits@D@std@@V?$allocator@D@2@@std@@QEBAPEBDXZ ; std::basic_string<char,std::char_traits<char>,std::allocator<char> >::c_str
PUBLIC	??Y?$basic_string@DU?$char_traits@D@std@@V?$allocator@D@2@@std@@QEAAAEAV01@PEBD@Z ; std::basic_string<char,std::char_traits<char>,std::allocator<char> >::operator+=
PUBLIC	??$sprintf_s@$0EAA@@@YAHAEAY0EAA@DPEBDZZ	; sprintf_s<1024>
PUBLIC	__$ArrayPad$
PUBLIC	?openCLcode@@YAPEADXZ				; openCLcode
EXTRN	__GSHandlerCheck:PROC
EXTRN	_strdup:PROC
EXTRN	clGetKernelWorkGroupInfo:PROC
EXTRN	clCreateKernel:PROC
EXTRN	clGetProgramBuildInfo:PROC
EXTRN	clBuildProgram:PROC
EXTRN	clCreateProgramWithSource:PROC
EXTRN	clCreateCommandQueue:PROC
EXTRN	clGetContextInfo:PROC
EXTRN	clCreateContext:PROC
EXTRN	clGetDeviceInfo:PROC
EXTRN	clGetDeviceIDs:PROC
EXTRN	free:PROC
EXTRN	clGetPlatformInfo:PROC
EXTRN	malloc:PROC
EXTRN	clGetPlatformIDs:PROC
EXTRN	?useGPU@@3HA:DWORD				; useGPU
EXTRN	__security_cookie:QWORD
EXTRN	__security_check_cookie:PROC
_BSS	SEGMENT
kernel	DQ	01H DUP (?)
program	DQ	01H DUP (?)
_BSS	ENDS
pdata	SEGMENT
$pdata$?openCLcode@@YAPEADXZ DD imagerel $LN56
	DD	imagerel $LN56+4267
	DD	imagerel $unwind$?openCLcode@@YAPEADXZ
pdata	ENDS
xdata	SEGMENT
$unwind$?openCLcode@@YAPEADXZ DD 032a19H
	DD	01500109H
	DD	07002H
	DD	imagerel __GSHandlerCheck
	DD	0a78H
xdata	ENDS
CONST	SEGMENT
?openCLcode@@YAPEADXZ$rtcName$0 DB 062H			; openCLcode
	DB	075H
	DB	066H
	DB	066H
	DB	065H
	DB	072H
	DB	00H
	ORG $+1
?openCLcode@@YAPEADXZ$rtcName$1 DB 06eH			; openCLcode
	DB	075H
	DB	06dH
	DB	050H
	DB	06cH
	DB	061H
	DB	074H
	DB	066H
	DB	06fH
	DB	072H
	DB	06dH
	DB	073H
	DB	00H
	ORG $+3
?openCLcode@@YAPEADXZ$rtcName$2 DB 073H			; openCLcode
	DB	074H
	DB	061H
	DB	074H
	DB	075H
	DB	073H
	DB	00H
	ORG $+1
?openCLcode@@YAPEADXZ$rtcName$3 DB 070H			; openCLcode
	DB	062H
	DB	075H
	DB	066H
	DB	00H
	ORG $+3
?openCLcode@@YAPEADXZ$rtcName$4 DB 064H			; openCLcode
	DB	065H
	DB	076H
	DB	069H
	DB	063H
	DB	065H
	DB	073H
	DB	00H
?openCLcode@@YAPEADXZ$rtcName$5 DB 064H			; openCLcode
	DB	065H
	DB	076H
	DB	069H
	DB	063H
	DB	065H
	DB	043H
	DB	06fH
	DB	075H
	DB	06eH
	DB	074H
	DB	00H
?openCLcode@@YAPEADXZ$rtcName$8 DB 062H			; openCLcode
	DB	075H
	DB	066H
	DB	00H
?openCLcode@@YAPEADXZ$rtcName$6 DB 073H			; openCLcode
	DB	065H
	DB	06cH
	DB	065H
	DB	063H
	DB	074H
	DB	065H
	DB	064H
	DB	044H
	DB	065H
	DB	076H
	DB	069H
	DB	063H
	DB	065H
	DB	00H
	ORG $+1
?openCLcode@@YAPEADXZ$rtcName$7 DB 074H			; openCLcode
	DB	079H
	DB	070H
	DB	065H
	DB	00H
	ORG $+3
?openCLcode@@YAPEADXZ$rtcName$9 DB 075H			; openCLcode
	DB	06eH
	DB	069H
	DB	074H
	DB	073H
	DB	00H
	ORG $+2
?openCLcode@@YAPEADXZ$rtcName$10 DB 067H		; openCLcode
	DB	073H
	DB	069H
	DB	07aH
	DB	065H
	DB	00H
	ORG $+2
?openCLcode@@YAPEADXZ$rtcName$11 DB 063H		; openCLcode
	DB	070H
	DB	073H
	DB	00H
?openCLcode@@YAPEADXZ$rtcName$14 DB 062H		; openCLcode
	DB	075H
	DB	066H
	DB	00H
?openCLcode@@YAPEADXZ$rtcName$12 DB 064H		; openCLcode
	DB	065H
	DB	076H
	DB	069H
	DB	063H
	DB	065H
	DB	04cH
	DB	069H
	DB	073H
	DB	074H
	DB	053H
	DB	069H
	DB	07aH
	DB	065H
	DB	00H
	ORG $+1
?openCLcode@@YAPEADXZ$rtcName$13 DB 074H		; openCLcode
	DB	079H
	DB	070H
	DB	065H
	DB	00H
	ORG $+3
?openCLcode@@YAPEADXZ$rtcName$15 DB 075H		; openCLcode
	DB	06eH
	DB	069H
	DB	074H
	DB	073H
	DB	00H
	ORG $+2
?openCLcode@@YAPEADXZ$rtcName$16 DB 067H		; openCLcode
	DB	073H
	DB	069H
	DB	07aH
	DB	065H
	DB	00H
	ORG $+2
?openCLcode@@YAPEADXZ$rtcName$17 DB 073H		; openCLcode
	DB	06fH
	DB	075H
	DB	072H
	DB	063H
	DB	065H
	DB	073H
	DB	00H
?openCLcode@@YAPEADXZ$rtcName$18 DB 072H		; openCLcode
	DB	065H
	DB	074H
	DB	056H
	DB	061H
	DB	06cH
	DB	053H
	DB	069H
	DB	07aH
	DB	065H
	DB	00H
	ORG $+1
?openCLcode@@YAPEADXZ$rtcName$19 DB 067H		; openCLcode
	DB	073H
	DB	069H
	DB	07aH
	DB	065H
	DB	00H
	ORG $+6
?openCLcode@@YAPEADXZ$rtcFrameData DD 014H		; openCLcode
	DD	00H
	DQ	FLAT:?openCLcode@@YAPEADXZ$rtcVarDesc
	ORG $+8
?openCLcode@@YAPEADXZ$rtcVarDesc DD 0a38H		; openCLcode
	DD	08H
	DQ	FLAT:?openCLcode@@YAPEADXZ$rtcName$19
	DD	0a18H
	DD	08H
	DQ	FLAT:?openCLcode@@YAPEADXZ$rtcName$18
	DD	09f8H
	DD	08H
	DQ	FLAT:?openCLcode@@YAPEADXZ$rtcName$17
	DD	09d8H
	DD	08H
	DQ	FLAT:?openCLcode@@YAPEADXZ$rtcName$16
	DD	09b4H
	DD	04H
	DQ	FLAT:?openCLcode@@YAPEADXZ$rtcName$15
	DD	08a0H
	DD	0100H
	DQ	FLAT:?openCLcode@@YAPEADXZ$rtcName$14
	DD	0878H
	DD	08H
	DQ	FLAT:?openCLcode@@YAPEADXZ$rtcName$13
	DD	0858H
	DD	08H
	DQ	FLAT:?openCLcode@@YAPEADXZ$rtcName$12
	DD	0828H
	DD	018H
	DQ	FLAT:?openCLcode@@YAPEADXZ$rtcName$11
	DD	0808H
	DD	08H
	DQ	FLAT:?openCLcode@@YAPEADXZ$rtcName$10
	DD	07e4H
	DD	04H
	DQ	FLAT:?openCLcode@@YAPEADXZ$rtcName$9
	DD	06d0H
	DD	0100H
	DQ	FLAT:?openCLcode@@YAPEADXZ$rtcName$8
	DD	06a8H
	DD	08H
	DQ	FLAT:?openCLcode@@YAPEADXZ$rtcName$7
	DD	0688H
	DD	08H
	DQ	FLAT:?openCLcode@@YAPEADXZ$rtcName$6
	DD	0664H
	DD	04H
	DQ	FLAT:?openCLcode@@YAPEADXZ$rtcName$5
	DD	0550H
	DD	0100H
	DQ	FLAT:?openCLcode@@YAPEADXZ$rtcName$4
	DD	04c0H
	DD	064H
	DQ	FLAT:?openCLcode@@YAPEADXZ$rtcName$3
	DD	0484H
	DD	04H
	DQ	FLAT:?openCLcode@@YAPEADXZ$rtcName$2
	DD	0464H
	DD	04H
	DQ	FLAT:?openCLcode@@YAPEADXZ$rtcName$1
	DD	050H
	DD	0400H
	DQ	FLAT:?openCLcode@@YAPEADXZ$rtcName$0
; Function compile flags: /Odtp /RTCsu
CONST	ENDS
_TEXT	SEGMENT
dType$ = 48
buffer$ = 80
numPlatforms$ = 1124
platform$ = 1144
status$ = 1156
platforms$23215 = 1176
i$23220 = 1184
pbuf$23224 = 1216
devices$ = 1360
deviceCount$ = 1636
deviceFound$ = 1652
selectedDevice$ = 1672
i$ = 1684
type$23244 = 1704
stype$23248 = 1720
buf$23267 = 1744
units$23273 = 2020
gsize$23279 = 2056
cps$ = 2088
cprops$ = 2120
deviceListSize$ = 2136
type$23301 = 2168
stype$23305 = 2184
buf$23322 = 2208
units$23328 = 2484
gsize$23334 = 2520
prop$ = 2536
sources$ = 2552
retValSize$23351 = 2584
buildLog$23354 = 2600
gsize$ = 2616
realOutput$ = 2632
tv186 = 2648
tv304 = 2656
tv332 = 2664
tv351 = 2672
__$ArrayPad$ = 2680
?openCLcode@@YAPEADXZ PROC				; openCLcode
; Line 162
$LN56:
	push	rdi
	sub	rsp, 2688				; 00000a80H
	mov	rdi, rsp
	mov	ecx, 672				; 000002a0H
	mov	eax, -858993460				; ccccccccH
	rep stosd
	mov	rax, QWORD PTR __security_cookie
	xor	rax, rsp
	mov	QWORD PTR __$ArrayPad$[rsp], rax
; Line 167
	cmp	DWORD PTR ?useGPU@@3HA, 0		; useGPU
	je	SHORT $LN51@openCLcode
; Line 168
	mov	QWORD PTR dType$[rsp], 4
; Line 169
	jmp	SHORT $LN50@openCLcode
$LN51@openCLcode:
; Line 170
	mov	QWORD PTR dType$[rsp], 2
$LN50@openCLcode:
; Line 175
	mov	QWORD PTR platform$[rsp], 0
; Line 176
	lea	r8, QWORD PTR numPlatforms$[rsp]
	xor	edx, edx
	xor	ecx, ecx
	call	clGetPlatformIDs
	mov	DWORD PTR status$[rsp], eax
; Line 177
	cmp	DWORD PTR status$[rsp], 0
	je	SHORT $LN49@openCLcode
; Line 178
	call	__iob_func
	add	rax, 96					; 00000060H
	lea	rdx, OFFSET FLAT:$SG23213
	mov	rcx, rax
	call	fprintf
; Line 179
	mov	ecx, -1
	call	exit
$LN49@openCLcode:
; Line 182
	cmp	DWORD PTR numPlatforms$[rsp], 0
	jbe	$LN48@openCLcode
; Line 183
	mov	eax, DWORD PTR numPlatforms$[rsp]
	shl	rax, 3
	mov	rcx, rax
	call	malloc
	mov	QWORD PTR platforms$23215[rsp], rax
; Line 184
	xor	r8d, r8d
	mov	rdx, QWORD PTR platforms$23215[rsp]
	mov	ecx, DWORD PTR numPlatforms$[rsp]
	call	clGetPlatformIDs
	mov	DWORD PTR status$[rsp], eax
; Line 185
	cmp	DWORD PTR status$[rsp], 0
	je	SHORT $LN47@openCLcode
; Line 186
	call	__iob_func
	add	rax, 96					; 00000060H
	lea	rdx, OFFSET FLAT:$SG23219
	mov	rcx, rax
	call	fprintf
; Line 187
	mov	ecx, -1
	call	exit
$LN47@openCLcode:
; Line 191
	mov	DWORD PTR i$23220[rsp], 0
	jmp	SHORT $LN46@openCLcode
$LN45@openCLcode:
	mov	eax, DWORD PTR i$23220[rsp]
	inc	eax
	mov	DWORD PTR i$23220[rsp], eax
$LN46@openCLcode:
	mov	eax, DWORD PTR numPlatforms$[rsp]
	cmp	DWORD PTR i$23220[rsp], eax
	jae	$LN44@openCLcode
; Line 197
	mov	eax, DWORD PTR i$23220[rsp]
	mov	QWORD PTR [rsp+32], 0
	lea	r9, QWORD PTR pbuf$23224[rsp]
	mov	r8d, 100				; 00000064H
	mov	edx, 2307				; 00000903H
	mov	rcx, QWORD PTR platforms$23215[rsp]
	mov	rcx, QWORD PTR [rcx+rax*8]
	call	clGetPlatformInfo
	mov	DWORD PTR status$[rsp], eax
; Line 199
	xor	r8d, r8d
	mov	rdx, QWORD PTR platforms$23215[rsp]
	mov	ecx, DWORD PTR numPlatforms$[rsp]
	call	clGetPlatformIDs
	mov	DWORD PTR status$[rsp], eax
; Line 200
	cmp	DWORD PTR status$[rsp], 0
	je	SHORT $LN43@openCLcode
; Line 201
	call	__iob_func
	add	rax, 96					; 00000060H
	lea	rdx, OFFSET FLAT:$SG23226
	mov	rcx, rax
	call	fprintf
; Line 202
	mov	ecx, -1
	call	exit
$LN43@openCLcode:
; Line 205
	call	__iob_func
	add	rax, 96					; 00000060H
	lea	r9, QWORD PTR pbuf$23224[rsp]
	mov	r8d, DWORD PTR i$23220[rsp]
	lea	rdx, OFFSET FLAT:$SG23227
	mov	rcx, rax
	call	fprintf
; Line 206
	lea	r9, QWORD PTR pbuf$23224[rsp]
	mov	r8d, DWORD PTR i$23220[rsp]
	lea	rdx, OFFSET FLAT:$SG23233
	lea	rcx, QWORD PTR buffer$[rsp]
	call	??$sprintf_s@$0EAA@@@YAHAEAY0EAA@DPEBDZZ ; sprintf_s<1024>
; Line 207
	lea	rdx, QWORD PTR buffer$[rsp]
	lea	rcx, OFFSET FLAT:?outputLine1@@3V?$basic_string@DU?$char_traits@D@std@@V?$allocator@D@2@@std@@A ; outputLine1
	call	??Y?$basic_string@DU?$char_traits@D@std@@V?$allocator@D@2@@std@@QEAAAEAV01@PEBD@Z ; std::basic_string<char,std::char_traits<char>,std::allocator<char> >::operator+=
; Line 208
	jmp	$LN45@openCLcode
$LN44@openCLcode:
; Line 210
	mov	rax, QWORD PTR platforms$23215[rsp]
	mov	rax, QWORD PTR [rax]
	mov	QWORD PTR platform$[rsp], rax
; Line 211
	mov	rcx, QWORD PTR platforms$23215[rsp]
	call	free
$LN48@openCLcode:
; Line 218
	lea	rax, QWORD PTR deviceCount$[rsp]
	mov	QWORD PTR [rsp+32], rax
	lea	r9, QWORD PTR devices$[rsp]
	mov	r8d, 32					; 00000020H
	mov	edx, -1					; ffffffffH
	mov	rcx, QWORD PTR platform$[rsp]
	call	clGetDeviceIDs
	mov	DWORD PTR status$[rsp], eax
; Line 219
	cmp	DWORD PTR status$[rsp], 0
	je	SHORT $LN42@openCLcode
; Line 220
	call	__iob_func
	add	rax, 96					; 00000060H
	lea	rdx, OFFSET FLAT:$SG23237
	mov	rcx, rax
	call	fprintf
; Line 221
	mov	ecx, -1
	call	exit
$LN42@openCLcode:
; Line 224
	mov	DWORD PTR deviceFound$[rsp], 0
; Line 227
	mov	DWORD PTR i$[rsp], 0
	jmp	SHORT $LN41@openCLcode
$LN40@openCLcode:
	mov	eax, DWORD PTR i$[rsp]
	inc	eax
	mov	DWORD PTR i$[rsp], eax
$LN41@openCLcode:
	mov	eax, DWORD PTR deviceCount$[rsp]
	cmp	DWORD PTR i$[rsp], eax
	jae	$LN39@openCLcode
; Line 228
	mov	QWORD PTR type$23244[rsp], 0
; Line 233
	mov	eax, DWORD PTR i$[rsp]
	mov	QWORD PTR [rsp+32], 0
	lea	r9, QWORD PTR type$23244[rsp]
	mov	r8d, 8
	mov	edx, 4096				; 00001000H
	mov	rcx, QWORD PTR devices$[rsp+rax*8]
	call	clGetDeviceInfo
	mov	DWORD PTR status$[rsp], eax
; Line 234
	cmp	DWORD PTR status$[rsp], 0
	je	SHORT $LN38@openCLcode
; Line 235
	call	__iob_func
	add	rax, 96					; 00000060H
	mov	r8d, DWORD PTR status$[rsp]
	lea	rdx, OFFSET FLAT:$SG23247
	mov	rcx, rax
	call	fprintf
; Line 236
	mov	ecx, -1
	call	exit
$LN38@openCLcode:
; Line 240
	mov	rax, QWORD PTR type$23244[rsp]
	mov	QWORD PTR tv186[rsp], rax
	cmp	QWORD PTR tv186[rsp], 1
	je	SHORT $LN34@openCLcode
	cmp	QWORD PTR tv186[rsp], 2
	je	SHORT $LN33@openCLcode
	cmp	QWORD PTR tv186[rsp], 4
	je	$LN31@openCLcode
	mov	eax, -1					; ffffffffH
	cmp	QWORD PTR tv186[rsp], rax
	je	SHORT $LN35@openCLcode
	jmp	$LN29@openCLcode
$LN35@openCLcode:
; Line 242
	lea	rax, OFFSET FLAT:$SG23254
	mov	QWORD PTR stype$23248[rsp], rax
; Line 243
	jmp	$LN36@openCLcode
$LN34@openCLcode:
; Line 245
	lea	rax, OFFSET FLAT:$SG23256
	mov	QWORD PTR stype$23248[rsp], rax
; Line 246
	jmp	$LN36@openCLcode
$LN33@openCLcode:
; Line 248
	lea	rax, OFFSET FLAT:$SG23258
	mov	QWORD PTR stype$23248[rsp], rax
; Line 249
	cmp	DWORD PTR ?useGPU@@3HA, 0		; useGPU
	jne	SHORT $LN32@openCLcode
	cmp	DWORD PTR deviceFound$[rsp], 0
	jne	SHORT $LN32@openCLcode
; Line 250
	mov	eax, DWORD PTR i$[rsp]
	mov	rax, QWORD PTR devices$[rsp+rax*8]
	mov	QWORD PTR selectedDevice$[rsp], rax
; Line 251
	mov	DWORD PTR deviceFound$[rsp], 1
$LN32@openCLcode:
; Line 253
	jmp	SHORT $LN36@openCLcode
$LN31@openCLcode:
; Line 255
	lea	rax, OFFSET FLAT:$SG23261
	mov	QWORD PTR stype$23248[rsp], rax
; Line 256
	cmp	DWORD PTR ?useGPU@@3HA, 0		; useGPU
	je	SHORT $LN30@openCLcode
	cmp	DWORD PTR deviceFound$[rsp], 0
	jne	SHORT $LN30@openCLcode
; Line 257
	mov	eax, DWORD PTR i$[rsp]
	mov	rax, QWORD PTR devices$[rsp+rax*8]
	mov	QWORD PTR selectedDevice$[rsp], rax
; Line 258
	mov	DWORD PTR deviceFound$[rsp], 1
$LN30@openCLcode:
; Line 260
	jmp	SHORT $LN36@openCLcode
$LN29@openCLcode:
; Line 262
	lea	rax, OFFSET FLAT:$SG23264
	mov	QWORD PTR stype$23248[rsp], rax
$LN36@openCLcode:
; Line 265
	call	__iob_func
	add	rax, 96					; 00000060H
	mov	r9, QWORD PTR stype$23248[rsp]
	mov	r8d, DWORD PTR i$[rsp]
	lea	rdx, OFFSET FLAT:$SG23265
	mov	rcx, rax
	call	fprintf
; Line 266
	mov	r9, QWORD PTR stype$23248[rsp]
	mov	r8d, DWORD PTR i$[rsp]
	lea	rdx, OFFSET FLAT:$SG23266
	lea	rcx, QWORD PTR buffer$[rsp]
	call	??$sprintf_s@$0EAA@@@YAHAEAY0EAA@DPEBDZZ ; sprintf_s<1024>
; Line 267
	lea	rdx, QWORD PTR buffer$[rsp]
	lea	rcx, OFFSET FLAT:?outputLine2@@3V?$basic_string@DU?$char_traits@D@std@@V?$allocator@D@2@@std@@A ; outputLine2
	call	??Y?$basic_string@DU?$char_traits@D@std@@V?$allocator@D@2@@std@@QEAAAEAV01@PEBD@Z ; std::basic_string<char,std::char_traits<char>,std::allocator<char> >::operator+=
; Line 274
	mov	eax, DWORD PTR i$[rsp]
	mov	QWORD PTR [rsp+32], 0
	lea	r9, QWORD PTR buf$23267[rsp]
	mov	r8d, 256				; 00000100H
	mov	edx, 4139				; 0000102bH
	mov	rcx, QWORD PTR devices$[rsp+rax*8]
	call	clGetDeviceInfo
	mov	DWORD PTR status$[rsp], eax
; Line 275
	cmp	DWORD PTR status$[rsp], 0
	je	SHORT $LN28@openCLcode
; Line 276
	call	__iob_func
	add	rax, 96					; 00000060H
	mov	r8d, DWORD PTR status$[rsp]
	lea	rdx, OFFSET FLAT:$SG23270
	mov	rcx, rax
	call	fprintf
; Line 277
	mov	ecx, -1
	call	exit
$LN28@openCLcode:
; Line 280
	call	__iob_func
	add	rax, 96					; 00000060H
	lea	r9, QWORD PTR buf$23267[rsp]
	mov	r8d, DWORD PTR i$[rsp]
	lea	rdx, OFFSET FLAT:$SG23271
	mov	rcx, rax
	call	fprintf
; Line 281
	lea	r9, QWORD PTR buf$23267[rsp]
	mov	r8d, DWORD PTR i$[rsp]
	lea	rdx, OFFSET FLAT:$SG23272
	lea	rcx, QWORD PTR buffer$[rsp]
	call	??$sprintf_s@$0EAA@@@YAHAEAY0EAA@DPEBDZZ ; sprintf_s<1024>
; Line 282
	lea	rdx, QWORD PTR buffer$[rsp]
	lea	rcx, OFFSET FLAT:?outputLine3@@3V?$basic_string@DU?$char_traits@D@std@@V?$allocator@D@2@@std@@A ; outputLine3
	call	??Y?$basic_string@DU?$char_traits@D@std@@V?$allocator@D@2@@std@@QEAAAEAV01@PEBD@Z ; std::basic_string<char,std::char_traits<char>,std::allocator<char> >::operator+=
; Line 284
	mov	DWORD PTR units$23273[rsp], 0
; Line 289
	mov	eax, DWORD PTR i$[rsp]
	mov	QWORD PTR [rsp+32], 0
	lea	r9, QWORD PTR units$23273[rsp]
	mov	r8d, 4
	mov	edx, 4098				; 00001002H
	mov	rcx, QWORD PTR devices$[rsp+rax*8]
	call	clGetDeviceInfo
	mov	DWORD PTR status$[rsp], eax
; Line 290
	cmp	DWORD PTR status$[rsp], 0
	je	SHORT $LN27@openCLcode
; Line 291
	call	__iob_func
	add	rax, 96					; 00000060H
	mov	r8d, DWORD PTR status$[rsp]
	lea	rdx, OFFSET FLAT:$SG23276
	mov	rcx, rax
	call	fprintf
; Line 292
	mov	ecx, -1
	call	exit
$LN27@openCLcode:
; Line 295
	call	__iob_func
	add	rax, 96					; 00000060H
	mov	r9d, DWORD PTR units$23273[rsp]
	mov	r8d, DWORD PTR i$[rsp]
	lea	rdx, OFFSET FLAT:$SG23277
	mov	rcx, rax
	call	fprintf
; Line 296
	mov	r9d, DWORD PTR units$23273[rsp]
	mov	r8d, DWORD PTR i$[rsp]
	lea	rdx, OFFSET FLAT:$SG23278
	lea	rcx, QWORD PTR buffer$[rsp]
	call	??$sprintf_s@$0EAA@@@YAHAEAY0EAA@DPEBDZZ ; sprintf_s<1024>
; Line 297
	lea	rdx, QWORD PTR buffer$[rsp]
	lea	rcx, OFFSET FLAT:?outputLine4@@3V?$basic_string@DU?$char_traits@D@std@@V?$allocator@D@2@@std@@A ; outputLine4
	call	??Y?$basic_string@DU?$char_traits@D@std@@V?$allocator@D@2@@std@@QEAAAEAV01@PEBD@Z ; std::basic_string<char,std::char_traits<char>,std::allocator<char> >::operator+=
; Line 299
	mov	QWORD PTR gsize$23279[rsp], 0
; Line 304
	mov	eax, DWORD PTR i$[rsp]
	mov	QWORD PTR [rsp+32], 0
	lea	r9, QWORD PTR gsize$23279[rsp]
	mov	r8d, 8
	mov	edx, 4100				; 00001004H
	mov	rcx, QWORD PTR devices$[rsp+rax*8]
	call	clGetDeviceInfo
	mov	DWORD PTR status$[rsp], eax
; Line 305
	cmp	DWORD PTR status$[rsp], 0
	je	SHORT $LN26@openCLcode
; Line 306
	call	__iob_func
	add	rax, 96					; 00000060H
	mov	r8d, DWORD PTR status$[rsp]
	lea	rdx, OFFSET FLAT:$SG23282
	mov	rcx, rax
	call	fprintf
; Line 307
	mov	ecx, -1
	call	exit
$LN26@openCLcode:
; Line 310
	call	__iob_func
	add	rax, 96					; 00000060H
	mov	r9d, DWORD PTR gsize$23279[rsp]
	mov	r8d, DWORD PTR i$[rsp]
	lea	rdx, OFFSET FLAT:$SG23284
	mov	rcx, rax
	call	fprintf
; Line 311
	mov	r9d, DWORD PTR gsize$23279[rsp]
	mov	r8d, DWORD PTR i$[rsp]
	lea	rdx, OFFSET FLAT:$SG23286
	lea	rcx, QWORD PTR buffer$[rsp]
	call	??$sprintf_s@$0EAA@@@YAHAEAY0EAA@DPEBDZZ ; sprintf_s<1024>
; Line 312
	lea	rdx, QWORD PTR buffer$[rsp]
	lea	rcx, OFFSET FLAT:?outputLine5@@3V?$basic_string@DU?$char_traits@D@std@@V?$allocator@D@2@@std@@A ; outputLine5
	call	??Y?$basic_string@DU?$char_traits@D@std@@V?$allocator@D@2@@std@@QEAAAEAV01@PEBD@Z ; std::basic_string<char,std::char_traits<char>,std::allocator<char> >::operator+=
; Line 313
	jmp	$LN40@openCLcode
$LN39@openCLcode:
; Line 315
	cmp	DWORD PTR deviceFound$[rsp], 0
	jne	SHORT $LN25@openCLcode
; Line 316
	call	__iob_func
	add	rax, 96					; 00000060H
	lea	rdx, OFFSET FLAT:$SG23288
	mov	rcx, rax
	call	fprintf
; Line 317
	mov	ecx, -1
	call	exit
$LN25@openCLcode:
; Line 323
	mov	QWORD PTR cps$[rsp], 4228		; 00001084H
; Line 324
	mov	rax, QWORD PTR platform$[rsp]
	mov	QWORD PTR cps$[rsp+8], rax
; Line 326
	mov	QWORD PTR cps$[rsp+16], 0
; Line 328
	cmp	QWORD PTR platform$[rsp], 0
	jne	SHORT $LN54@openCLcode
	mov	QWORD PTR tv304[rsp], 0
	jmp	SHORT $LN55@openCLcode
$LN54@openCLcode:
	lea	rax, QWORD PTR cps$[rsp]
	mov	QWORD PTR tv304[rsp], rax
$LN55@openCLcode:
	mov	rax, QWORD PTR tv304[rsp]
	mov	QWORD PTR cprops$[rsp], rax
; Line 335
	lea	rax, QWORD PTR status$[rsp]
	mov	QWORD PTR [rsp+40], rax
	mov	QWORD PTR [rsp+32], 0
	xor	r9d, r9d
	lea	r8, QWORD PTR selectedDevice$[rsp]
	mov	edx, 1
	mov	rcx, QWORD PTR cprops$[rsp]
	call	clCreateContext
	mov	QWORD PTR context, rax
; Line 336
	cmp	DWORD PTR status$[rsp], 0
	je	SHORT $LN24@openCLcode
; Line 337
	call	__iob_func
	add	rax, 96					; 00000060H
	lea	rdx, OFFSET FLAT:$SG23293
	mov	rcx, rax
	call	fprintf
; Line 338
	mov	ecx, -1
	call	exit
$LN24@openCLcode:
; Line 348
	lea	rax, QWORD PTR deviceListSize$[rsp]
	mov	QWORD PTR [rsp+32], rax
	lea	r9, QWORD PTR devices$[rsp]
	mov	r8d, 32					; 00000020H
	mov	edx, 4225				; 00001081H
	mov	rcx, QWORD PTR context
	call	clGetContextInfo
	mov	DWORD PTR status$[rsp], eax
; Line 349
	cmp	DWORD PTR status$[rsp], 0
	je	SHORT $LN23@openCLcode
; Line 350
	call	__iob_func
	add	rax, 96					; 00000060H
	mov	r8d, DWORD PTR status$[rsp]
	lea	rdx, OFFSET FLAT:$SG23296
	mov	rcx, rax
	call	fprintf
; Line 351
	mov	ecx, -1
	call	exit
$LN23@openCLcode:
; Line 355
	mov	DWORD PTR i$[rsp], 0
	jmp	SHORT $LN22@openCLcode
$LN21@openCLcode:
	mov	eax, DWORD PTR i$[rsp]
	inc	eax
	mov	DWORD PTR i$[rsp], eax
$LN22@openCLcode:
	mov	eax, DWORD PTR i$[rsp]
	mov	QWORD PTR tv332[rsp], rax
	xor	edx, edx
	mov	rax, QWORD PTR deviceListSize$[rsp]
	mov	ecx, 8
	div	rcx
	mov	rcx, QWORD PTR tv332[rsp]
	cmp	rcx, rax
	jae	$LN20@openCLcode
; Line 356
	mov	QWORD PTR type$23301[rsp], 0
; Line 361
	mov	eax, DWORD PTR i$[rsp]
	mov	QWORD PTR [rsp+32], 0
	lea	r9, QWORD PTR type$23301[rsp]
	mov	r8d, 8
	mov	edx, 4096				; 00001000H
	mov	rcx, QWORD PTR devices$[rsp+rax*8]
	call	clGetDeviceInfo
	mov	DWORD PTR status$[rsp], eax
; Line 362
	cmp	DWORD PTR status$[rsp], 0
	je	SHORT $LN19@openCLcode
; Line 363
	call	__iob_func
	add	rax, 96					; 00000060H
	mov	r8d, DWORD PTR status$[rsp]
	lea	rdx, OFFSET FLAT:$SG23304
	mov	rcx, rax
	call	fprintf
; Line 364
	mov	ecx, -1
	call	exit
$LN19@openCLcode:
; Line 368
	mov	rax, QWORD PTR type$23301[rsp]
	mov	QWORD PTR tv351[rsp], rax
	cmp	QWORD PTR tv351[rsp], 1
	je	SHORT $LN15@openCLcode
	cmp	QWORD PTR tv351[rsp], 2
	je	SHORT $LN14@openCLcode
	cmp	QWORD PTR tv351[rsp], 4
	je	SHORT $LN13@openCLcode
	mov	eax, -1					; ffffffffH
	cmp	QWORD PTR tv351[rsp], rax
	je	SHORT $LN16@openCLcode
	jmp	SHORT $LN12@openCLcode
$LN16@openCLcode:
; Line 370
	lea	rax, OFFSET FLAT:$SG23311
	mov	QWORD PTR stype$23305[rsp], rax
; Line 371
	jmp	SHORT $LN17@openCLcode
$LN15@openCLcode:
; Line 373
	lea	rax, OFFSET FLAT:$SG23313
	mov	QWORD PTR stype$23305[rsp], rax
; Line 374
	jmp	SHORT $LN17@openCLcode
$LN14@openCLcode:
; Line 376
	lea	rax, OFFSET FLAT:$SG23315
	mov	QWORD PTR stype$23305[rsp], rax
; Line 377
	jmp	SHORT $LN17@openCLcode
$LN13@openCLcode:
; Line 379
	lea	rax, OFFSET FLAT:$SG23317
	mov	QWORD PTR stype$23305[rsp], rax
; Line 380
	jmp	SHORT $LN17@openCLcode
$LN12@openCLcode:
; Line 382
	lea	rax, OFFSET FLAT:$SG23319
	mov	QWORD PTR stype$23305[rsp], rax
$LN17@openCLcode:
; Line 385
	call	__iob_func
	add	rax, 96					; 00000060H
	mov	r9, QWORD PTR stype$23305[rsp]
	mov	r8d, DWORD PTR i$[rsp]
	lea	rdx, OFFSET FLAT:$SG23320
	mov	rcx, rax
	call	fprintf
; Line 386
	mov	r9, QWORD PTR stype$23305[rsp]
	mov	r8d, DWORD PTR i$[rsp]
	lea	rdx, OFFSET FLAT:$SG23321
	lea	rcx, QWORD PTR buffer$[rsp]
	call	??$sprintf_s@$0EAA@@@YAHAEAY0EAA@DPEBDZZ ; sprintf_s<1024>
; Line 387
	lea	rdx, QWORD PTR buffer$[rsp]
	lea	rcx, OFFSET FLAT:?outputLine6@@3V?$basic_string@DU?$char_traits@D@std@@V?$allocator@D@2@@std@@A ; outputLine6
	call	??Y?$basic_string@DU?$char_traits@D@std@@V?$allocator@D@2@@std@@QEAAAEAV01@PEBD@Z ; std::basic_string<char,std::char_traits<char>,std::allocator<char> >::operator+=
; Line 394
	mov	eax, DWORD PTR i$[rsp]
	mov	QWORD PTR [rsp+32], 0
	lea	r9, QWORD PTR buf$23322[rsp]
	mov	r8d, 256				; 00000100H
	mov	edx, 4139				; 0000102bH
	mov	rcx, QWORD PTR devices$[rsp+rax*8]
	call	clGetDeviceInfo
	mov	DWORD PTR status$[rsp], eax
; Line 395
	cmp	DWORD PTR status$[rsp], 0
	je	SHORT $LN11@openCLcode
; Line 396
	call	__iob_func
	add	rax, 96					; 00000060H
	mov	r8d, DWORD PTR status$[rsp]
	lea	rdx, OFFSET FLAT:$SG23325
	mov	rcx, rax
	call	fprintf
; Line 397
	mov	ecx, -1
	call	exit
$LN11@openCLcode:
; Line 400
	call	__iob_func
	add	rax, 96					; 00000060H
	lea	r9, QWORD PTR buf$23322[rsp]
	mov	r8d, DWORD PTR i$[rsp]
	lea	rdx, OFFSET FLAT:$SG23326
	mov	rcx, rax
	call	fprintf
; Line 401
	lea	r9, QWORD PTR buf$23322[rsp]
	mov	r8d, DWORD PTR i$[rsp]
	lea	rdx, OFFSET FLAT:$SG23327
	lea	rcx, QWORD PTR buffer$[rsp]
	call	??$sprintf_s@$0EAA@@@YAHAEAY0EAA@DPEBDZZ ; sprintf_s<1024>
; Line 402
	lea	rdx, QWORD PTR buffer$[rsp]
	lea	rcx, OFFSET FLAT:?outputLine7@@3V?$basic_string@DU?$char_traits@D@std@@V?$allocator@D@2@@std@@A ; outputLine7
	call	??Y?$basic_string@DU?$char_traits@D@std@@V?$allocator@D@2@@std@@QEAAAEAV01@PEBD@Z ; std::basic_string<char,std::char_traits<char>,std::allocator<char> >::operator+=
; Line 404
	mov	DWORD PTR units$23328[rsp], 0
; Line 409
	mov	eax, DWORD PTR i$[rsp]
	mov	QWORD PTR [rsp+32], 0
	lea	r9, QWORD PTR units$23328[rsp]
	mov	r8d, 4
	mov	edx, 4098				; 00001002H
	mov	rcx, QWORD PTR devices$[rsp+rax*8]
	call	clGetDeviceInfo
	mov	DWORD PTR status$[rsp], eax
; Line 410
	cmp	DWORD PTR status$[rsp], 0
	je	SHORT $LN10@openCLcode
; Line 411
	call	__iob_func
	add	rax, 96					; 00000060H
	mov	r8d, DWORD PTR status$[rsp]
	lea	rdx, OFFSET FLAT:$SG23331
	mov	rcx, rax
	call	fprintf
; Line 412
	mov	ecx, -1
	call	exit
$LN10@openCLcode:
; Line 415
	call	__iob_func
	add	rax, 96					; 00000060H
	mov	r9d, DWORD PTR units$23328[rsp]
	mov	r8d, DWORD PTR i$[rsp]
	lea	rdx, OFFSET FLAT:$SG23332
	mov	rcx, rax
	call	fprintf
; Line 416
	mov	r9d, DWORD PTR units$23328[rsp]
	mov	r8d, DWORD PTR i$[rsp]
	lea	rdx, OFFSET FLAT:$SG23333
	lea	rcx, QWORD PTR buffer$[rsp]
	call	??$sprintf_s@$0EAA@@@YAHAEAY0EAA@DPEBDZZ ; sprintf_s<1024>
; Line 417
	lea	rdx, QWORD PTR buffer$[rsp]
	lea	rcx, OFFSET FLAT:?outputLine8@@3V?$basic_string@DU?$char_traits@D@std@@V?$allocator@D@2@@std@@A ; outputLine8
	call	??Y?$basic_string@DU?$char_traits@D@std@@V?$allocator@D@2@@std@@QEAAAEAV01@PEBD@Z ; std::basic_string<char,std::char_traits<char>,std::allocator<char> >::operator+=
; Line 419
	mov	QWORD PTR gsize$23334[rsp], 0
; Line 424
	mov	eax, DWORD PTR i$[rsp]
	mov	QWORD PTR [rsp+32], 0
	lea	r9, QWORD PTR gsize$23334[rsp]
	mov	r8d, 8
	mov	edx, 4100				; 00001004H
	mov	rcx, QWORD PTR devices$[rsp+rax*8]
	call	clGetDeviceInfo
	mov	DWORD PTR status$[rsp], eax
; Line 425
	cmp	DWORD PTR status$[rsp], 0
	je	SHORT $LN9@openCLcode
; Line 426
	call	__iob_func
	add	rax, 96					; 00000060H
	mov	r8d, DWORD PTR status$[rsp]
	lea	rdx, OFFSET FLAT:$SG23337
	mov	rcx, rax
	call	fprintf
; Line 427
	mov	ecx, -1
	call	exit
$LN9@openCLcode:
; Line 430
	call	__iob_func
	add	rax, 96					; 00000060H
	mov	r9d, DWORD PTR gsize$23334[rsp]
	mov	r8d, DWORD PTR i$[rsp]
	lea	rdx, OFFSET FLAT:$SG23339
	mov	rcx, rax
	call	fprintf
; Line 431
	mov	r9d, DWORD PTR gsize$23334[rsp]
	mov	r8d, DWORD PTR i$[rsp]
	lea	rdx, OFFSET FLAT:$SG23341
	lea	rcx, QWORD PTR buffer$[rsp]
	call	??$sprintf_s@$0EAA@@@YAHAEAY0EAA@DPEBDZZ ; sprintf_s<1024>
; Line 432
	lea	rdx, QWORD PTR buffer$[rsp]
	lea	rcx, OFFSET FLAT:?outputLine9@@3V?$basic_string@DU?$char_traits@D@std@@V?$allocator@D@2@@std@@A ; outputLine9
	call	??Y?$basic_string@DU?$char_traits@D@std@@V?$allocator@D@2@@std@@QEAAAEAV01@PEBD@Z ; std::basic_string<char,std::char_traits<char>,std::allocator<char> >::operator+=
; Line 433
	jmp	$LN21@openCLcode
$LN20@openCLcode:
; Line 435
	mov	QWORD PTR prop$[rsp], 0
; Line 440
	lea	r9, QWORD PTR status$[rsp]
	mov	r8, QWORD PTR prop$[rsp]
	mov	rdx, QWORD PTR devices$[rsp]
	mov	rcx, QWORD PTR context
	call	clCreateCommandQueue
	mov	QWORD PTR commandQueue, rax
; Line 441
	cmp	DWORD PTR status$[rsp], 0
	je	SHORT $LN8@openCLcode
; Line 442
	call	__iob_func
	add	rax, 96					; 00000060H
	mov	r8d, DWORD PTR status$[rsp]
	lea	rdx, OFFSET FLAT:$SG23344
	mov	rcx, rax
	call	fprintf
; Line 443
	mov	ecx, -1
	call	exit
$LN8@openCLcode:
; Line 455
	mov	rcx, QWORD PTR kernelFileName
	call	?ReadSources@@YAPEADPEBD@Z		; ReadSources
	mov	QWORD PTR sources$[rsp], rax
; Line 461
	lea	rax, QWORD PTR status$[rsp]
	mov	QWORD PTR [rsp+32], rax
	xor	r9d, r9d
	lea	r8, QWORD PTR sources$[rsp]
	mov	edx, 1
	mov	rcx, QWORD PTR context
	call	clCreateProgramWithSource
	mov	QWORD PTR program, rax
; Line 462
	cmp	DWORD PTR status$[rsp], 0
	je	SHORT $LN7@openCLcode
; Line 463
	call	__iob_func
	add	rax, 96					; 00000060H
	mov	r8d, DWORD PTR status$[rsp]
	lea	rdx, OFFSET FLAT:$SG23347
	mov	rcx, rax
	call	fprintf
; Line 464
	mov	ecx, -1
	call	exit
$LN7@openCLcode:
; Line 470
	mov	QWORD PTR [rsp+40], 0
	mov	QWORD PTR [rsp+32], 0
	lea	r9, OFFSET FLAT:$SG23348
	lea	r8, QWORD PTR devices$[rsp]
	mov	edx, 1
	mov	rcx, QWORD PTR program
	call	clBuildProgram
	mov	DWORD PTR status$[rsp], eax
; Line 472
	cmp	DWORD PTR status$[rsp], 0
	je	$LN6@openCLcode
; Line 473
	call	__iob_func
	add	rax, 96					; 00000060H
	mov	r8d, DWORD PTR status$[rsp]
	lea	rdx, OFFSET FLAT:$SG23350
	mov	rcx, rax
	call	fprintf
; Line 482
	lea	rax, QWORD PTR retValSize$23351[rsp]
	mov	QWORD PTR [rsp+40], rax
	mov	QWORD PTR [rsp+32], 0
	xor	r9d, r9d
	mov	r8d, 4483				; 00001183H
	mov	rdx, QWORD PTR devices$[rsp]
	mov	rcx, QWORD PTR program
	call	clGetProgramBuildInfo
	mov	DWORD PTR status$[rsp], eax
; Line 483
	cmp	DWORD PTR status$[rsp], 0
	je	SHORT $LN5@openCLcode
; Line 484
	call	__iob_func
	add	rax, 96					; 00000060H
	mov	r8d, DWORD PTR status$[rsp]
	lea	rdx, OFFSET FLAT:$SG23353
	mov	rcx, rax
	call	fprintf
; Line 485
	mov	ecx, -1
	call	exit
$LN5@openCLcode:
; Line 488
	mov	rax, QWORD PTR retValSize$23351[rsp]
	inc	rax
	mov	rcx, rax
	call	malloc
	mov	QWORD PTR buildLog$23354[rsp], rax
; Line 495
	mov	QWORD PTR [rsp+40], 0
	mov	rax, QWORD PTR buildLog$23354[rsp]
	mov	QWORD PTR [rsp+32], rax
	mov	r9, QWORD PTR retValSize$23351[rsp]
	mov	r8d, 4483				; 00001183H
	mov	rdx, QWORD PTR devices$[rsp]
	mov	rcx, QWORD PTR program
	call	clGetProgramBuildInfo
	mov	DWORD PTR status$[rsp], eax
; Line 496
	cmp	DWORD PTR status$[rsp], 0
	je	SHORT $LN4@openCLcode
; Line 497
	call	__iob_func
	add	rax, 96					; 00000060H
	mov	r8d, DWORD PTR status$[rsp]
	lea	rdx, OFFSET FLAT:$SG23357
	mov	rcx, rax
	call	fprintf
; Line 498
	mov	ecx, -1
	call	exit
$LN4@openCLcode:
; Line 500
	mov	rax, QWORD PTR retValSize$23351[rsp]
	mov	rcx, QWORD PTR buildLog$23354[rsp]
	add	rcx, rax
	mov	rax, rcx
	mov	BYTE PTR [rax], 0
; Line 502
	call	__iob_func
	add	rax, 96					; 00000060H
	mov	r8, QWORD PTR buildLog$23354[rsp]
	lea	rdx, OFFSET FLAT:$SG23358
	mov	rcx, rax
	call	fprintf
; Line 503
	mov	ecx, -1
	call	exit
$LN6@openCLcode:
; Line 506
	lea	r8, QWORD PTR status$[rsp]
	lea	rdx, OFFSET FLAT:$SG23359
	mov	rcx, QWORD PTR program
	call	clCreateKernel
	mov	QWORD PTR kernel, rax
; Line 507
	cmp	DWORD PTR status$[rsp], 0
	je	SHORT $LN3@openCLcode
; Line 508
	call	__iob_func
	add	rax, 96					; 00000060H
	mov	r8d, DWORD PTR status$[rsp]
	lea	rdx, OFFSET FLAT:$SG23361
	mov	rcx, rax
	call	fprintf
; Line 509
	mov	ecx, -1
	call	exit
$LN3@openCLcode:
; Line 513
	mov	QWORD PTR gsize$[rsp], 0
; Line 519
	mov	QWORD PTR [rsp+40], 0
	lea	rax, QWORD PTR gsize$[rsp]
	mov	QWORD PTR [rsp+32], rax
	mov	r9d, 8
	mov	r8d, 4528				; 000011b0H
	mov	rdx, QWORD PTR devices$[rsp]
	mov	rcx, QWORD PTR kernel
	call	clGetKernelWorkGroupInfo
	mov	DWORD PTR status$[rsp], eax
; Line 520
	cmp	DWORD PTR status$[rsp], 0
	je	SHORT $LN2@openCLcode
; Line 521
	call	__iob_func
	add	rax, 96					; 00000060H
	mov	r8d, DWORD PTR status$[rsp]
	lea	rdx, OFFSET FLAT:$SG23365
	mov	rcx, rax
	call	fprintf
; Line 522
	mov	ecx, -1
	call	exit
$LN2@openCLcode:
; Line 525
	mov	eax, DWORD PTR gsize$[rsp]
	mov	DWORD PTR workGroupSize, eax
; Line 526
	call	__iob_func
	add	rax, 96					; 00000060H
	mov	r8d, DWORD PTR workGroupSize
	lea	rdx, OFFSET FLAT:$SG23367
	mov	rcx, rax
	call	fprintf
; Line 528
	cmp	DWORD PTR forceWorkSize, 0
	jle	SHORT $LN1@openCLcode
; Line 529
	call	__iob_func
	add	rax, 96					; 00000060H
	mov	r8d, DWORD PTR forceWorkSize
	lea	rdx, OFFSET FLAT:$SG23369
	mov	rcx, rax
	call	fprintf
; Line 530
	mov	eax, DWORD PTR forceWorkSize
	mov	DWORD PTR workGroupSize, eax
$LN1@openCLcode:
; Line 533
	lea	rcx, OFFSET FLAT:?outputLine1@@3V?$basic_string@DU?$char_traits@D@std@@V?$allocator@D@2@@std@@A ; outputLine1
	call	?c_str@?$basic_string@DU?$char_traits@D@std@@V?$allocator@D@2@@std@@QEBAPEBDXZ ; std::basic_string<char,std::char_traits<char>,std::allocator<char> >::c_str
	mov	rcx, rax
	call	_strdup
	mov	QWORD PTR realOutput$[rsp], rax
; Line 534
	mov	rax, QWORD PTR realOutput$[rsp]
$LN53@openCLcode:
; Line 535
	mov	rdi, rax
	mov	rcx, rsp
	lea	rdx, OFFSET FLAT:?openCLcode@@YAPEADXZ$rtcFrameData
	call	_RTC_CheckStackVars
	mov	rax, rdi
	mov	rcx, QWORD PTR __$ArrayPad$[rsp]
	xor	rcx, rsp
	call	__security_check_cookie
	add	rsp, 2688				; 00000a80H
	pop	rdi
	ret	0
?openCLcode@@YAPEADXZ ENDP				; openCLcode
_TEXT	ENDS
EXTRN	fclose:PROC
EXTRN	fread:PROC
EXTRN	rewind:PROC
EXTRN	ftell:PROC
EXTRN	fseek:PROC
EXTRN	fopen:PROC
pdata	SEGMENT
$pdata$?ReadSources@@YAPEADPEBD@Z DD imagerel ?ReadSources@@YAPEADPEBD@Z
	DD	imagerel ?ReadSources@@YAPEADPEBD@Z+456
	DD	imagerel $unwind$?ReadSources@@YAPEADPEBD@Z
pdata	ENDS
xdata	SEGMENT
$unwind$?ReadSources@@YAPEADPEBD@Z DD 021e01H
	DD	07006720aH
; Function compile flags: /Odtp /RTCsu
xdata	ENDS
_TEXT	SEGMENT
file$ = 32
size$ = 40
src$ = 48
res$ = 56
fileName$ = 80
?ReadSources@@YAPEADPEBD@Z PROC				; ReadSources
; Line 122
	mov	QWORD PTR [rsp+8], rcx
	push	rdi
	sub	rsp, 64					; 00000040H
	mov	rdi, rsp
	mov	ecx, 16
	mov	eax, -858993460				; ccccccccH
	rep stosd
	mov	rcx, QWORD PTR [rsp+80]
; Line 123
	lea	rdx, OFFSET FLAT:$SG23184
	mov	rcx, QWORD PTR fileName$[rsp]
	call	fopen
	mov	QWORD PTR file$[rsp], rax
; Line 124
	cmp	QWORD PTR file$[rsp], 0
	jne	SHORT $LN5@ReadSource
; Line 125
	call	__iob_func
	add	rax, 96					; 00000060H
	mov	r8, QWORD PTR fileName$[rsp]
	lea	rdx, OFFSET FLAT:$SG23186
	mov	rcx, rax
	call	fprintf
; Line 126
	mov	ecx, -1
	call	exit
$LN5@ReadSource:
; Line 129
	mov	r8d, 2
	xor	edx, edx
	mov	rcx, QWORD PTR file$[rsp]
	call	fseek
	test	eax, eax
	je	SHORT $LN4@ReadSource
; Line 130
	call	__iob_func
	add	rax, 96					; 00000060H
	mov	r8, QWORD PTR fileName$[rsp]
	lea	rdx, OFFSET FLAT:$SG23188
	mov	rcx, rax
	call	fprintf
; Line 131
	mov	ecx, -1
	call	exit
$LN4@ReadSource:
; Line 134
	mov	rcx, QWORD PTR file$[rsp]
	call	ftell
	mov	DWORD PTR size$[rsp], eax
; Line 135
	cmp	DWORD PTR size$[rsp], 0
	jne	SHORT $LN3@ReadSource
; Line 136
	call	__iob_func
	add	rax, 96					; 00000060H
	mov	r8, QWORD PTR fileName$[rsp]
	lea	rdx, OFFSET FLAT:$SG23191
	mov	rcx, rax
	call	fprintf
; Line 137
	mov	ecx, -1
	call	exit
$LN3@ReadSource:
; Line 140
	mov	rcx, QWORD PTR file$[rsp]
	call	rewind
; Line 142
	movsxd	rax, DWORD PTR size$[rsp]
	inc	rax
	mov	rcx, rax
	call	malloc
	mov	QWORD PTR src$[rsp], rax
; Line 143
	cmp	QWORD PTR src$[rsp], 0
	jne	SHORT $LN2@ReadSource
; Line 144
	call	__iob_func
	add	rax, 96					; 00000060H
	mov	r8, QWORD PTR fileName$[rsp]
	lea	rdx, OFFSET FLAT:$SG23196
	mov	rcx, rax
	call	fprintf
; Line 145
	mov	ecx, -1
	call	exit
$LN2@ReadSource:
; Line 148
	call	__iob_func
	add	rax, 96					; 00000060H
	mov	r9d, DWORD PTR size$[rsp]
	mov	r8, QWORD PTR fileName$[rsp]
	lea	rdx, OFFSET FLAT:$SG23197
	mov	rcx, rax
	call	fprintf
; Line 149
	movsxd	rax, DWORD PTR size$[rsp]
	mov	r9, QWORD PTR file$[rsp]
	mov	r8, rax
	mov	edx, 1
	mov	rcx, QWORD PTR src$[rsp]
	call	fread
	mov	QWORD PTR res$[rsp], rax
; Line 150
	movsxd	rax, DWORD PTR size$[rsp]
	cmp	QWORD PTR res$[rsp], rax
	je	SHORT $LN1@ReadSource
; Line 151
	call	__iob_func
	add	rax, 96					; 00000060H
	mov	r9, QWORD PTR res$[rsp]
	mov	r8, QWORD PTR fileName$[rsp]
	lea	rdx, OFFSET FLAT:$SG23202
	mov	rcx, rax
	call	fprintf
; Line 152
	mov	ecx, -1
	call	exit
$LN1@ReadSource:
; Line 154
	movsxd	rax, DWORD PTR size$[rsp]
	mov	rcx, QWORD PTR src$[rsp]
	mov	BYTE PTR [rcx+rax], 0
; Line 156
	mov	rcx, QWORD PTR file$[rsp]
	call	fclose
; Line 158
	mov	rax, QWORD PTR src$[rsp]
$LN7@ReadSource:
; Line 160
	add	rsp, 64					; 00000040H
	pop	rdi
	ret	0
?ReadSources@@YAPEADPEBD@Z ENDP				; ReadSources
_TEXT	ENDS
PUBLIC	?ExecuteKernel@@YAXXZ				; ExecuteKernel
EXTRN	clEnqueueNDRangeKernel:PROC
pdata	SEGMENT
$pdata$?ExecuteKernel@@YAXXZ DD imagerel $LN5
	DD	imagerel $LN5+302
	DD	imagerel $unwind$?ExecuteKernel@@YAXXZ
pdata	ENDS
xdata	SEGMENT
$unwind$?ExecuteKernel@@YAXXZ DD 031801H
	DD	0140109H
	DD	07002H
xdata	ENDS
CONST	SEGMENT
	ORG $+960
?ExecuteKernel@@YAXXZ$rtcName$0 DB 067H			; ExecuteKernel
	DB	06cH
	DB	06fH
	DB	062H
	DB	061H
	DB	06cH
	DB	054H
	DB	068H
	DB	072H
	DB	065H
	DB	061H
	DB	064H
	DB	073H
	DB	00H
	ORG $+2
?ExecuteKernel@@YAXXZ$rtcName$1 DB 06cH			; ExecuteKernel
	DB	06fH
	DB	063H
	DB	061H
	DB	06cH
	DB	054H
	DB	068H
	DB	072H
	DB	065H
	DB	061H
	DB	064H
	DB	073H
	DB	00H
	ORG $+3
?ExecuteKernel@@YAXXZ$rtcVarDesc DD 078H		; ExecuteKernel
	DD	08H
	DQ	FLAT:?ExecuteKernel@@YAXXZ$rtcName$1
	DD	058H
	DD	08H
	DQ	FLAT:?ExecuteKernel@@YAXXZ$rtcName$0
	ORG $+96
?ExecuteKernel@@YAXXZ$rtcFrameData DD 02H		; ExecuteKernel
	DD	00H
	DQ	FLAT:?ExecuteKernel@@YAXXZ$rtcVarDesc
; Function compile flags: /Odtp /RTCsu
CONST	ENDS
_TEXT	SEGMENT
globalThreads$ = 88
localThreads$ = 120
status$ = 132
tv66 = 136
tv69 = 144
?ExecuteKernel@@YAXXZ PROC				; ExecuteKernel
; Line 537
$LN5:
	push	rdi
	sub	rsp, 160				; 000000a0H
	mov	rdi, rsp
	mov	ecx, 40					; 00000028H
	mov	eax, -858993460				; ccccccccH
	rep stosd
; Line 540
	mov	eax, DWORD PTR ?m_Width@@3HA		; m_Width
	imul	eax, DWORD PTR ?m_Height@@3HA		; m_Height
	cdqe
	mov	QWORD PTR globalThreads$[rsp], rax
; Line 541
	mov	eax, DWORD PTR workGroupSize
	mov	QWORD PTR tv66[rsp], rax
	xor	edx, edx
	mov	rax, QWORD PTR globalThreads$[rsp]
	mov	rcx, QWORD PTR tv66[rsp]
	div	rcx
	mov	rax, rdx
	test	rax, rax
	je	SHORT $LN2@ExecuteKer
; Line 542
	mov	eax, DWORD PTR workGroupSize
	mov	QWORD PTR tv69[rsp], rax
	xor	edx, edx
	mov	rax, QWORD PTR globalThreads$[rsp]
	mov	rcx, QWORD PTR tv69[rsp]
	div	rcx
	inc	rax
	mov	ecx, DWORD PTR workGroupSize
	imul	rax, rcx
	mov	QWORD PTR globalThreads$[rsp], rax
$LN2@ExecuteKer:
; Line 544
	mov	eax, DWORD PTR workGroupSize
	mov	QWORD PTR localThreads$[rsp], rax
; Line 555
	mov	QWORD PTR [rsp+64], 0
	mov	QWORD PTR [rsp+56], 0
	mov	DWORD PTR [rsp+48], 0
	lea	rax, QWORD PTR localThreads$[rsp]
	mov	QWORD PTR [rsp+40], rax
	lea	rax, QWORD PTR globalThreads$[rsp]
	mov	QWORD PTR [rsp+32], rax
	xor	r9d, r9d
	mov	r8d, 1
	mov	rdx, QWORD PTR kernel
	mov	rcx, QWORD PTR commandQueue
	call	clEnqueueNDRangeKernel
	mov	DWORD PTR status$[rsp], eax
; Line 556
	cmp	DWORD PTR status$[rsp], 0
	je	SHORT $LN1@ExecuteKer
; Line 557
	call	__iob_func
	add	rax, 96					; 00000060H
	mov	r8d, DWORD PTR status$[rsp]
	lea	rdx, OFFSET FLAT:$SG23378
	mov	rcx, rax
	call	fprintf
; Line 558
	mov	ecx, -1
	call	exit
$LN1@ExecuteKer:
$LN4@ExecuteKer:
; Line 560
	mov	rcx, rsp
	lea	rdx, OFFSET FLAT:?ExecuteKernel@@YAXXZ$rtcFrameData
	call	_RTC_CheckStackVars
	add	rsp, 160				; 000000a0H
	pop	rdi
	ret	0
?ExecuteKernel@@YAXXZ ENDP				; ExecuteKernel
_TEXT	ENDS
PUBLIC	?SetKernelArguments@@YAXXZ			; SetKernelArguments
EXTRN	clSetKernelArg:PROC
pdata	SEGMENT
$pdata$?SetKernelArguments@@YAXXZ DD imagerel $LN8
	DD	imagerel $LN8+450
	DD	imagerel $unwind$?SetKernelArguments@@YAXXZ
pdata	ENDS
xdata	SEGMENT
$unwind$?SetKernelArguments@@YAXXZ DD 021501H
	DD	070029206H
xdata	ENDS
CONST	SEGMENT
?SetKernelArguments@@YAXXZ$rtcName$0 DB 070H		; SetKernelArguments
	DB	072H
	DB	069H
	DB	06dH
	DB	069H
	DB	074H
	DB	069H
	DB	076H
	DB	065H
	DB	043H
	DB	06fH
	DB	075H
	DB	06eH
	DB	074H
	DB	00H
	ORG $+1
?SetKernelArguments@@YAXXZ$rtcVarDesc DD 034H		; SetKernelArguments
	DD	04H
	DQ	FLAT:?SetKernelArguments@@YAXXZ$rtcName$0
	ORG $+48
?SetKernelArguments@@YAXXZ$rtcFrameData DD 01H		; SetKernelArguments
	DD	00H
	DQ	FLAT:?SetKernelArguments@@YAXXZ$rtcVarDesc
; Function compile flags: /Odtp /RTCsu
CONST	ENDS
_TEXT	SEGMENT
status$ = 32
primitiveCount$ = 52
?SetKernelArguments@@YAXXZ PROC				; SetKernelArguments
; Line 562
$LN8:
	push	rdi
	sub	rsp, 80					; 00000050H
	mov	rdi, rsp
	mov	ecx, 20
	mov	eax, -858993460				; ccccccccH
	rep stosd
; Line 569
	lea	r9, OFFSET FLAT:?m_Height@@3HA		; m_Height
	mov	r8d, 4
	xor	edx, edx
	mov	rcx, QWORD PTR kernel
	call	clSetKernelArg
	mov	DWORD PTR status$[rsp], eax
; Line 570
	cmp	DWORD PTR status$[rsp], 0
	je	SHORT $LN5@SetKernelA
; Line 571
	call	__iob_func
	add	rax, 96					; 00000060H
	mov	r8d, DWORD PTR status$[rsp]
	lea	rdx, OFFSET FLAT:$SG23385
	mov	rcx, rax
	call	fprintf
; Line 572
	mov	ecx, -1
	call	exit
$LN5@SetKernelA:
; Line 579
	lea	r9, OFFSET FLAT:?m_Width@@3HA		; m_Width
	mov	r8d, 4
	mov	edx, 1
	mov	rcx, QWORD PTR kernel
	call	clSetKernelArg
	mov	DWORD PTR status$[rsp], eax
; Line 580
	cmp	DWORD PTR status$[rsp], 0
	je	SHORT $LN4@SetKernelA
; Line 581
	call	__iob_func
	add	rax, 96					; 00000060H
	mov	r8d, DWORD PTR status$[rsp]
	lea	rdx, OFFSET FLAT:$SG23389
	mov	rcx, rax
	call	fprintf
; Line 582
	mov	ecx, -1
	call	exit
$LN4@SetKernelA:
; Line 589
	lea	r9, OFFSET FLAT:m_DestBuffer
	mov	r8d, 8
	mov	edx, 2
	mov	rcx, QWORD PTR kernel
	call	clSetKernelArg
	mov	DWORD PTR status$[rsp], eax
; Line 590
	cmp	DWORD PTR status$[rsp], 0
	je	SHORT $LN3@SetKernelA
; Line 591
	call	__iob_func
	add	rax, 96					; 00000060H
	mov	r8d, DWORD PTR status$[rsp]
	lea	rdx, OFFSET FLAT:$SG23393
	mov	rcx, rax
	call	fprintf
; Line 592
	mov	ecx, -1
	call	exit
$LN3@SetKernelA:
; Line 598
	lea	r9, OFFSET FLAT:primitiveBuffer
	mov	r8d, 8
	mov	edx, 3
	mov	rcx, QWORD PTR kernel
	call	clSetKernelArg
	mov	DWORD PTR status$[rsp], eax
; Line 599
	cmp	DWORD PTR status$[rsp], 0
	je	SHORT $LN2@SetKernelA
; Line 600
	call	__iob_func
	add	rax, 96					; 00000060H
	mov	r8d, DWORD PTR status$[rsp]
	lea	rdx, OFFSET FLAT:$SG23397
	mov	rcx, rax
	call	fprintf
; Line 601
	mov	ecx, -1
	call	exit
$LN2@SetKernelA:
; Line 604
	mov	rax, QWORD PTR ?m_Scene@@3PEAUScene@@EA	; m_Scene
	mov	eax, DWORD PTR [rax]
	mov	DWORD PTR primitiveCount$[rsp], eax
; Line 609
	lea	r9, QWORD PTR primitiveCount$[rsp]
	mov	r8d, 4
	mov	edx, 4
	mov	rcx, QWORD PTR kernel
	call	clSetKernelArg
	mov	DWORD PTR status$[rsp], eax
; Line 610
	cmp	DWORD PTR status$[rsp], 0
	je	SHORT $LN1@SetKernelA
; Line 611
	call	__iob_func
	add	rax, 96					; 00000060H
	mov	r8d, DWORD PTR status$[rsp]
	lea	rdx, OFFSET FLAT:$SG23402
	mov	rcx, rax
	call	fprintf
; Line 612
	mov	ecx, -1
	call	exit
$LN1@SetKernelA:
$LN7@SetKernelA:
; Line 624
	mov	rcx, rsp
	lea	rdx, OFFSET FLAT:?SetKernelArguments@@YAXXZ$rtcFrameData
	call	_RTC_CheckStackVars
	add	rsp, 80					; 00000050H
	pop	rdi
	ret	0
?SetKernelArguments@@YAXXZ ENDP				; SetKernelArguments
_TEXT	ENDS
PUBLIC	?ReadKernelBuffer@@YAXXZ			; ReadKernelBuffer
EXTRN	clEnqueueReadBuffer:PROC
pdata	SEGMENT
$pdata$?ReadKernelBuffer@@YAXXZ DD imagerel $LN4
	DD	imagerel $LN4+167
	DD	imagerel $unwind$?ReadKernelBuffer@@YAXXZ
pdata	ENDS
xdata	SEGMENT
$unwind$?ReadKernelBuffer@@YAXXZ DD 021501H
	DD	07002b206H
; Function compile flags: /Odtp /RTCsu
xdata	ENDS
_TEXT	SEGMENT
status$ = 80
?ReadKernelBuffer@@YAXXZ PROC				; ReadKernelBuffer
; Line 626
$LN4:
	push	rdi
	sub	rsp, 96					; 00000060H
	mov	rdi, rsp
	mov	ecx, 24
	mov	eax, -858993460				; ccccccccH
	rep stosd
; Line 637
	mov	eax, DWORD PTR ?m_Width@@3HA		; m_Width
	imul	eax, DWORD PTR ?m_Height@@3HA		; m_Height
	cdqe
	shl	rax, 2
	mov	QWORD PTR [rsp+64], 0
	mov	QWORD PTR [rsp+56], 0
	mov	DWORD PTR [rsp+48], 0
	mov	rcx, QWORD PTR ?m_Dest@@3PEAIEA		; m_Dest
	mov	QWORD PTR [rsp+40], rcx
	mov	QWORD PTR [rsp+32], rax
	xor	r9d, r9d
	mov	r8d, 1
	mov	rdx, QWORD PTR m_DestBuffer
	mov	rcx, QWORD PTR commandQueue
	call	clEnqueueReadBuffer
	mov	DWORD PTR status$[rsp], eax
; Line 638
	cmp	DWORD PTR status$[rsp], 0
	je	SHORT $LN1@ReadKernel
; Line 639
	call	__iob_func
	add	rax, 96					; 00000060H
	mov	r8d, DWORD PTR status$[rsp]
	lea	rdx, OFFSET FLAT:$SG23408
	mov	rcx, rax
	call	fprintf
; Line 640
	mov	ecx, -1
	call	exit
$LN1@ReadKernel:
$LN3@ReadKernel:
; Line 643
	add	rsp, 96					; 00000060H
	pop	rdi
	ret	0
?ReadKernelBuffer@@YAXXZ ENDP				; ReadKernelBuffer
_TEXT	ENDS
PUBLIC	?append@?$basic_string@DU?$char_traits@D@std@@V?$allocator@D@2@@std@@QEAAAEAV12@PEBD@Z ; std::basic_string<char,std::char_traits<char>,std::allocator<char> >::append
;	COMDAT pdata
; File c:\program files (x86)\microsoft visual studio 10.0\vc\include\xstring
pdata	SEGMENT
$pdata$??Y?$basic_string@DU?$char_traits@D@std@@V?$allocator@D@2@@std@@QEAAAEAV01@PEBD@Z DD imagerel $LN3
	DD	imagerel $LN3+56
	DD	imagerel $unwind$??Y?$basic_string@DU?$char_traits@D@std@@V?$allocator@D@2@@std@@QEAAAEAV01@PEBD@Z
pdata	ENDS
;	COMDAT xdata
xdata	SEGMENT
$unwind$??Y?$basic_string@DU?$char_traits@D@std@@V?$allocator@D@2@@std@@QEAAAEAV01@PEBD@Z DD 022301H
	DD	0700b320fH
; Function compile flags: /Odtp /RTCsu
xdata	ENDS
;	COMDAT ??Y?$basic_string@DU?$char_traits@D@std@@V?$allocator@D@2@@std@@QEAAAEAV01@PEBD@Z
_TEXT	SEGMENT
this$ = 48
_Ptr$ = 56
??Y?$basic_string@DU?$char_traits@D@std@@V?$allocator@D@2@@std@@QEAAAEAV01@PEBD@Z PROC ; std::basic_string<char,std::char_traits<char>,std::allocator<char> >::operator+=, COMDAT
; Line 783
$LN3:
	mov	QWORD PTR [rsp+16], rdx
	mov	QWORD PTR [rsp+8], rcx
	push	rdi
	sub	rsp, 32					; 00000020H
	mov	rdi, rsp
	mov	ecx, 8
	mov	eax, -858993460				; ccccccccH
	rep stosd
	mov	rcx, QWORD PTR [rsp+48]
; Line 784
	mov	rdx, QWORD PTR _Ptr$[rsp]
	mov	rcx, QWORD PTR this$[rsp]
	call	?append@?$basic_string@DU?$char_traits@D@std@@V?$allocator@D@2@@std@@QEAAAEAV12@PEBD@Z ; std::basic_string<char,std::char_traits<char>,std::allocator<char> >::append
; Line 785
	add	rsp, 32					; 00000020H
	pop	rdi
	ret	0
??Y?$basic_string@DU?$char_traits@D@std@@V?$allocator@D@2@@std@@QEAAAEAV01@PEBD@Z ENDP ; std::basic_string<char,std::char_traits<char>,std::allocator<char> >::operator+=
_TEXT	ENDS
PUBLIC	?_Myptr@?$basic_string@DU?$char_traits@D@std@@V?$allocator@D@2@@std@@QEBAPEBDXZ ; std::basic_string<char,std::char_traits<char>,std::allocator<char> >::_Myptr
;	COMDAT pdata
pdata	SEGMENT
$pdata$?c_str@?$basic_string@DU?$char_traits@D@std@@V?$allocator@D@2@@std@@QEBAPEBDXZ DD imagerel $LN3
	DD	imagerel $LN3+46
	DD	imagerel $unwind$?c_str@?$basic_string@DU?$char_traits@D@std@@V?$allocator@D@2@@std@@QEBAPEBDXZ
pdata	ENDS
;	COMDAT xdata
xdata	SEGMENT
$unwind$?c_str@?$basic_string@DU?$char_traits@D@std@@V?$allocator@D@2@@std@@QEBAPEBDXZ DD 021e01H
	DD	07006320aH
; Function compile flags: /Odtp /RTCsu
xdata	ENDS
;	COMDAT ?c_str@?$basic_string@DU?$char_traits@D@std@@V?$allocator@D@2@@std@@QEBAPEBDXZ
_TEXT	SEGMENT
this$ = 48
?c_str@?$basic_string@DU?$char_traits@D@std@@V?$allocator@D@2@@std@@QEBAPEBDXZ PROC ; std::basic_string<char,std::char_traits<char>,std::allocator<char> >::c_str, COMDAT
; Line 1496
$LN3:
	mov	QWORD PTR [rsp+8], rcx
	push	rdi
	sub	rsp, 32					; 00000020H
	mov	rdi, rsp
	mov	ecx, 8
	mov	eax, -858993460				; ccccccccH
	rep stosd
	mov	rcx, QWORD PTR [rsp+48]
; Line 1497
	mov	rcx, QWORD PTR this$[rsp]
	call	?_Myptr@?$basic_string@DU?$char_traits@D@std@@V?$allocator@D@2@@std@@QEBAPEBDXZ ; std::basic_string<char,std::char_traits<char>,std::allocator<char> >::_Myptr
; Line 1498
	add	rsp, 32					; 00000020H
	pop	rdi
	ret	0
?c_str@?$basic_string@DU?$char_traits@D@std@@V?$allocator@D@2@@std@@QEBAPEBDXZ ENDP ; std::basic_string<char,std::char_traits<char>,std::allocator<char> >::c_str
_TEXT	ENDS
PUBLIC	?append@?$basic_string@DU?$char_traits@D@std@@V?$allocator@D@2@@std@@QEAAAEAV12@PEBD_K@Z ; std::basic_string<char,std::char_traits<char>,std::allocator<char> >::append
PUBLIC	?length@?$char_traits@D@std@@SA_KPEBD@Z		; std::char_traits<char>::length
PUBLIC	??$_Debug_pointer@D@std@@YAXPEBDPEB_WI@Z	; std::_Debug_pointer<char>
PUBLIC	??_C@_1IO@KLJMFODF@?$AAC?$AA?3?$AA?2?$AAP?$AAr?$AAo?$AAg?$AAr?$AAa?$AAm?$AA?5?$AAF?$AAi?$AAl?$AAe?$AAs?$AA?5?$AA?$CI?$AAx?$AA8?$AA6?$AA?$CJ?$AA?2?$AAM?$AAi?$AAc?$AAr?$AAo?$AAs?$AAo?$AAf?$AAt@ ; `string'
;	COMDAT pdata
pdata	SEGMENT
$pdata$?append@?$basic_string@DU?$char_traits@D@std@@V?$allocator@D@2@@std@@QEAAAEAV12@PEBD@Z DD imagerel $LN3
	DD	imagerel $LN3+92
	DD	imagerel $unwind$?append@?$basic_string@DU?$char_traits@D@std@@V?$allocator@D@2@@std@@QEAAAEAV12@PEBD@Z
pdata	ENDS
;	COMDAT xdata
xdata	SEGMENT
$unwind$?append@?$basic_string@DU?$char_traits@D@std@@V?$allocator@D@2@@std@@QEAAAEAV12@PEBD@Z DD 022301H
	DD	0700b320fH
xdata	ENDS
;	COMDAT ??_C@_1IO@KLJMFODF@?$AAC?$AA?3?$AA?2?$AAP?$AAr?$AAo?$AAg?$AAr?$AAa?$AAm?$AA?5?$AAF?$AAi?$AAl?$AAe?$AAs?$AA?5?$AA?$CI?$AAx?$AA8?$AA6?$AA?$CJ?$AA?2?$AAM?$AAi?$AAc?$AAr?$AAo?$AAs?$AAo?$AAf?$AAt@
CONST	SEGMENT
??_C@_1IO@KLJMFODF@?$AAC?$AA?3?$AA?2?$AAP?$AAr?$AAo?$AAg?$AAr?$AAa?$AAm?$AA?5?$AAF?$AAi?$AAl?$AAe?$AAs?$AA?5?$AA?$CI?$AAx?$AA8?$AA6?$AA?$CJ?$AA?2?$AAM?$AAi?$AAc?$AAr?$AAo?$AAs?$AAo?$AAf?$AAt@ DB 'C'
	DB	00H, ':', 00H, '\', 00H, 'P', 00H, 'r', 00H, 'o', 00H, 'g', 00H
	DB	'r', 00H, 'a', 00H, 'm', 00H, ' ', 00H, 'F', 00H, 'i', 00H, 'l'
	DB	00H, 'e', 00H, 's', 00H, ' ', 00H, '(', 00H, 'x', 00H, '8', 00H
	DB	'6', 00H, ')', 00H, '\', 00H, 'M', 00H, 'i', 00H, 'c', 00H, 'r'
	DB	00H, 'o', 00H, 's', 00H, 'o', 00H, 'f', 00H, 't', 00H, ' ', 00H
	DB	'V', 00H, 'i', 00H, 's', 00H, 'u', 00H, 'a', 00H, 'l', 00H, ' '
	DB	00H, 'S', 00H, 't', 00H, 'u', 00H, 'd', 00H, 'i', 00H, 'o', 00H
	DB	' ', 00H, '1', 00H, '0', 00H, '.', 00H, '0', 00H, '\', 00H, 'V'
	DB	00H, 'C', 00H, '\', 00H, 'i', 00H, 'n', 00H, 'c', 00H, 'l', 00H
	DB	'u', 00H, 'd', 00H, 'e', 00H, '\', 00H, 'x', 00H, 's', 00H, 't'
	DB	00H, 'r', 00H, 'i', 00H, 'n', 00H, 'g', 00H, 00H, 00H ; `string'
; Function compile flags: /Odtp /RTCsu
CONST	ENDS
;	COMDAT ?append@?$basic_string@DU?$char_traits@D@std@@V?$allocator@D@2@@std@@QEAAAEAV12@PEBD@Z
_TEXT	SEGMENT
this$ = 48
_Ptr$ = 56
?append@?$basic_string@DU?$char_traits@D@std@@V?$allocator@D@2@@std@@QEAAAEAV12@PEBD@Z PROC ; std::basic_string<char,std::char_traits<char>,std::allocator<char> >::append, COMDAT
; Line 839
$LN3:
	mov	QWORD PTR [rsp+16], rdx
	mov	QWORD PTR [rsp+8], rcx
	push	rdi
	sub	rsp, 32					; 00000020H
	mov	rdi, rsp
	mov	ecx, 8
	mov	eax, -858993460				; ccccccccH
	rep stosd
	mov	rcx, QWORD PTR [rsp+48]
; Line 840
	mov	r8d, 840				; 00000348H
	lea	rdx, OFFSET FLAT:??_C@_1IO@KLJMFODF@?$AAC?$AA?3?$AA?2?$AAP?$AAr?$AAo?$AAg?$AAr?$AAa?$AAm?$AA?5?$AAF?$AAi?$AAl?$AAe?$AAs?$AA?5?$AA?$CI?$AAx?$AA8?$AA6?$AA?$CJ?$AA?2?$AAM?$AAi?$AAc?$AAr?$AAo?$AAs?$AAo?$AAf?$AAt@
	mov	rcx, QWORD PTR _Ptr$[rsp]
	call	??$_Debug_pointer@D@std@@YAXPEBDPEB_WI@Z ; std::_Debug_pointer<char>
; Line 841
	mov	rcx, QWORD PTR _Ptr$[rsp]
	call	?length@?$char_traits@D@std@@SA_KPEBD@Z	; std::char_traits<char>::length
	mov	r8, rax
	mov	rdx, QWORD PTR _Ptr$[rsp]
	mov	rcx, QWORD PTR this$[rsp]
	call	?append@?$basic_string@DU?$char_traits@D@std@@V?$allocator@D@2@@std@@QEAAAEAV12@PEBD_K@Z ; std::basic_string<char,std::char_traits<char>,std::allocator<char> >::append
; Line 842
	add	rsp, 32					; 00000020H
	pop	rdi
	ret	0
?append@?$basic_string@DU?$char_traits@D@std@@V?$allocator@D@2@@std@@QEAAAEAV12@PEBD@Z ENDP ; std::basic_string<char,std::char_traits<char>,std::allocator<char> >::append
_TEXT	ENDS
EXTRN	strlen:PROC
;	COMDAT pdata
; File c:\program files (x86)\microsoft visual studio 10.0\vc\include\iosfwd
pdata	SEGMENT
$pdata$?length@?$char_traits@D@std@@SA_KPEBD@Z DD imagerel $LN3
	DD	imagerel $LN3+46
	DD	imagerel $unwind$?length@?$char_traits@D@std@@SA_KPEBD@Z
pdata	ENDS
;	COMDAT xdata
xdata	SEGMENT
$unwind$?length@?$char_traits@D@std@@SA_KPEBD@Z DD 021e01H
	DD	07006320aH
; Function compile flags: /Odtp /RTCsu
xdata	ENDS
;	COMDAT ?length@?$char_traits@D@std@@SA_KPEBD@Z
_TEXT	SEGMENT
_First$ = 48
?length@?$char_traits@D@std@@SA_KPEBD@Z PROC		; std::char_traits<char>::length, COMDAT
; Line 490
$LN3:
	mov	QWORD PTR [rsp+8], rcx
	push	rdi
	sub	rsp, 32					; 00000020H
	mov	rdi, rsp
	mov	ecx, 8
	mov	eax, -858993460				; ccccccccH
	rep stosd
	mov	rcx, QWORD PTR [rsp+48]
; Line 491
	mov	rcx, QWORD PTR _First$[rsp]
	call	strlen
; Line 492
	add	rsp, 32					; 00000020H
	pop	rdi
	ret	0
?length@?$char_traits@D@std@@SA_KPEBD@Z ENDP		; std::char_traits<char>::length
_TEXT	ENDS
;	COMDAT pdata
; File c:\program files (x86)\microsoft visual studio 10.0\vc\include\xstring
pdata	SEGMENT
$pdata$?_Myptr@?$basic_string@DU?$char_traits@D@std@@V?$allocator@D@2@@std@@QEBAPEBDXZ DD imagerel $LN5
	DD	imagerel $LN5+80
	DD	imagerel $unwind$?_Myptr@?$basic_string@DU?$char_traits@D@std@@V?$allocator@D@2@@std@@QEBAPEBDXZ
pdata	ENDS
;	COMDAT xdata
xdata	SEGMENT
$unwind$?_Myptr@?$basic_string@DU?$char_traits@D@std@@V?$allocator@D@2@@std@@QEBAPEBDXZ DD 021e01H
	DD	07006120aH
; Function compile flags: /Odtp /RTCsu
xdata	ENDS
;	COMDAT ?_Myptr@?$basic_string@DU?$char_traits@D@std@@V?$allocator@D@2@@std@@QEBAPEBDXZ
_TEXT	SEGMENT
tv82 = 0
this$ = 32
?_Myptr@?$basic_string@DU?$char_traits@D@std@@V?$allocator@D@2@@std@@QEBAPEBDXZ PROC ; std::basic_string<char,std::char_traits<char>,std::allocator<char> >::_Myptr, COMDAT
; Line 2009
$LN5:
	mov	QWORD PTR [rsp+8], rcx
	push	rdi
	sub	rsp, 16
	mov	rdi, rsp
	mov	ecx, 4
	mov	eax, -858993460				; ccccccccH
	rep stosd
	mov	rcx, QWORD PTR [rsp+32]
; Line 2011
	mov	rax, QWORD PTR this$[rsp]
	cmp	QWORD PTR [rax+32], 16
	jb	SHORT $LN3@Myptr
	mov	rax, QWORD PTR this$[rsp]
	mov	rax, QWORD PTR [rax+8]
	mov	QWORD PTR tv82[rsp], rax
	jmp	SHORT $LN4@Myptr
$LN3@Myptr:
	mov	rax, QWORD PTR this$[rsp]
	add	rax, 8
	mov	QWORD PTR tv82[rsp], rax
$LN4@Myptr:
	mov	rax, QWORD PTR tv82[rsp]
; Line 2012
	add	rsp, 16
	pop	rdi
	ret	0
?_Myptr@?$basic_string@DU?$char_traits@D@std@@V?$allocator@D@2@@std@@QEBAPEBDXZ ENDP ; std::basic_string<char,std::char_traits<char>,std::allocator<char> >::_Myptr
_TEXT	ENDS
PUBLIC	?_Eos@?$basic_string@DU?$char_traits@D@std@@V?$allocator@D@2@@std@@QEAAX_K@Z ; std::basic_string<char,std::char_traits<char>,std::allocator<char> >::_Eos
PUBLIC	?copy@?$char_traits@D@std@@SAPEADPEADPEBD_K@Z	; std::char_traits<char>::copy
PUBLIC	?_Grow@?$basic_string@DU?$char_traits@D@std@@V?$allocator@D@2@@std@@QEAA_N_K_N@Z ; std::basic_string<char,std::char_traits<char>,std::allocator<char> >::_Grow
PUBLIC	?_Xlen@?$basic_string@DU?$char_traits@D@std@@V?$allocator@D@2@@std@@QEBAXXZ ; std::basic_string<char,std::char_traits<char>,std::allocator<char> >::_Xlen
PUBLIC	?npos@?$basic_string@DU?$char_traits@D@std@@V?$allocator@D@2@@std@@2_KB ; std::basic_string<char,std::char_traits<char>,std::allocator<char> >::npos
PUBLIC	?append@?$basic_string@DU?$char_traits@D@std@@V?$allocator@D@2@@std@@QEAAAEAV12@AEBV12@_K1@Z ; std::basic_string<char,std::char_traits<char>,std::allocator<char> >::append
PUBLIC	?_Myptr@?$basic_string@DU?$char_traits@D@std@@V?$allocator@D@2@@std@@QEAAPEADXZ ; std::basic_string<char,std::char_traits<char>,std::allocator<char> >::_Myptr
PUBLIC	?_Inside@?$basic_string@DU?$char_traits@D@std@@V?$allocator@D@2@@std@@QEAA_NPEBD@Z ; std::basic_string<char,std::char_traits<char>,std::allocator<char> >::_Inside
;	COMDAT pdata
pdata	SEGMENT
$pdata$?append@?$basic_string@DU?$char_traits@D@std@@V?$allocator@D@2@@std@@QEAAAEAV12@PEBD_K@Z DD imagerel $LN7
	DD	imagerel $LN7+296
	DD	imagerel $unwind$?append@?$basic_string@DU?$char_traits@D@std@@V?$allocator@D@2@@std@@QEAAAEAV12@PEBD_K@Z
pdata	ENDS
;	COMDAT xdata
xdata	SEGMENT
$unwind$?append@?$basic_string@DU?$char_traits@D@std@@V?$allocator@D@2@@std@@QEAAAEAV12@PEBD_K@Z DD 022801H
	DD	070105214H
xdata	ENDS
;	COMDAT ?npos@?$basic_string@DU?$char_traits@D@std@@V?$allocator@D@2@@std@@2_KB
CONST	SEGMENT
?npos@?$basic_string@DU?$char_traits@D@std@@V?$allocator@D@2@@std@@2_KB DQ ffffffffffffffffH ; std::basic_string<char,std::char_traits<char>,std::allocator<char> >::npos
; Function compile flags: /Odtp /RTCsu
CONST	ENDS
;	COMDAT ?append@?$basic_string@DU?$char_traits@D@std@@V?$allocator@D@2@@std@@QEAAAEAV12@PEBD_K@Z
_TEXT	SEGMENT
_Num$ = 32
this$ = 64
_Ptr$ = 72
_Count$ = 80
?append@?$basic_string@DU?$char_traits@D@std@@V?$allocator@D@2@@std@@QEAAAEAV12@PEBD_K@Z PROC ; std::basic_string<char,std::char_traits<char>,std::allocator<char> >::append, COMDAT
; Line 818
$LN7:
	mov	QWORD PTR [rsp+24], r8
	mov	QWORD PTR [rsp+16], rdx
	mov	QWORD PTR [rsp+8], rcx
	push	rdi
	sub	rsp, 48					; 00000030H
	mov	rdi, rsp
	mov	ecx, 12
	mov	eax, -858993460				; ccccccccH
	rep stosd
	mov	rcx, QWORD PTR [rsp+64]
; Line 820
	cmp	QWORD PTR _Count$[rsp], 0
	je	SHORT $LN4@append
; Line 821
	mov	r8d, 821				; 00000335H
	lea	rdx, OFFSET FLAT:??_C@_1IO@KLJMFODF@?$AAC?$AA?3?$AA?2?$AAP?$AAr?$AAo?$AAg?$AAr?$AAa?$AAm?$AA?5?$AAF?$AAi?$AAl?$AAe?$AAs?$AA?5?$AA?$CI?$AAx?$AA8?$AA6?$AA?$CJ?$AA?2?$AAM?$AAi?$AAc?$AAr?$AAo?$AAs?$AAo?$AAf?$AAt@
	mov	rcx, QWORD PTR _Ptr$[rsp]
	call	??$_Debug_pointer@D@std@@YAXPEBDPEB_WI@Z ; std::_Debug_pointer<char>
$LN4@append:
; Line 824
	mov	rdx, QWORD PTR _Ptr$[rsp]
	mov	rcx, QWORD PTR this$[rsp]
	call	?_Inside@?$basic_string@DU?$char_traits@D@std@@V?$allocator@D@2@@std@@QEAA_NPEBD@Z ; std::basic_string<char,std::char_traits<char>,std::allocator<char> >::_Inside
	movzx	eax, al
	test	eax, eax
	je	SHORT $LN3@append
; Line 825
	mov	rcx, QWORD PTR this$[rsp]
	call	?_Myptr@?$basic_string@DU?$char_traits@D@std@@V?$allocator@D@2@@std@@QEAAPEADXZ ; std::basic_string<char,std::char_traits<char>,std::allocator<char> >::_Myptr
	mov	rcx, QWORD PTR _Ptr$[rsp]
	sub	rcx, rax
	mov	rax, rcx
	mov	r9, QWORD PTR _Count$[rsp]
	mov	r8, rax
	mov	rdx, QWORD PTR this$[rsp]
	mov	rcx, QWORD PTR this$[rsp]
	call	?append@?$basic_string@DU?$char_traits@D@std@@V?$allocator@D@2@@std@@QEAAAEAV12@AEBV12@_K1@Z ; std::basic_string<char,std::char_traits<char>,std::allocator<char> >::append
	jmp	$LN5@append
$LN3@append:
; Line 826
	mov	rax, QWORD PTR this$[rsp]
	mov	rax, QWORD PTR [rax+24]
	mov	rcx, QWORD PTR ?npos@?$basic_string@DU?$char_traits@D@std@@V?$allocator@D@2@@std@@2_KB ; std::basic_string<char,std::char_traits<char>,std::allocator<char> >::npos
	sub	rcx, rax
	mov	rax, rcx
	cmp	rax, QWORD PTR _Count$[rsp]
	ja	SHORT $LN2@append
; Line 827
	mov	rcx, QWORD PTR this$[rsp]
	call	?_Xlen@?$basic_string@DU?$char_traits@D@std@@V?$allocator@D@2@@std@@QEBAXXZ ; std::basic_string<char,std::char_traits<char>,std::allocator<char> >::_Xlen
$LN2@append:
; Line 830
	cmp	QWORD PTR _Count$[rsp], 0
	jbe	SHORT $LN1@append
	mov	rax, QWORD PTR this$[rsp]
	mov	rax, QWORD PTR [rax+24]
	add	rax, QWORD PTR _Count$[rsp]
	mov	QWORD PTR _Num$[rsp], rax
	xor	r8d, r8d
	mov	rdx, QWORD PTR _Num$[rsp]
	mov	rcx, QWORD PTR this$[rsp]
	call	?_Grow@?$basic_string@DU?$char_traits@D@std@@V?$allocator@D@2@@std@@QEAA_N_K_N@Z ; std::basic_string<char,std::char_traits<char>,std::allocator<char> >::_Grow
	movzx	eax, al
	test	eax, eax
	je	SHORT $LN1@append
; Line 832
	mov	rcx, QWORD PTR this$[rsp]
	call	?_Myptr@?$basic_string@DU?$char_traits@D@std@@V?$allocator@D@2@@std@@QEAAPEADXZ ; std::basic_string<char,std::char_traits<char>,std::allocator<char> >::_Myptr
	mov	rcx, QWORD PTR this$[rsp]
	add	rax, QWORD PTR [rcx+24]
	mov	r8, QWORD PTR _Count$[rsp]
	mov	rdx, QWORD PTR _Ptr$[rsp]
	mov	rcx, rax
	call	?copy@?$char_traits@D@std@@SAPEADPEADPEBD_K@Z ; std::char_traits<char>::copy
; Line 833
	mov	rdx, QWORD PTR _Num$[rsp]
	mov	rcx, QWORD PTR this$[rsp]
	call	?_Eos@?$basic_string@DU?$char_traits@D@std@@V?$allocator@D@2@@std@@QEAAX_K@Z ; std::basic_string<char,std::char_traits<char>,std::allocator<char> >::_Eos
$LN1@append:
; Line 835
	mov	rax, QWORD PTR this$[rsp]
$LN5@append:
$LN6@append:
; Line 836
	add	rsp, 48					; 00000030H
	pop	rdi
	ret	0
?append@?$basic_string@DU?$char_traits@D@std@@V?$allocator@D@2@@std@@QEAAAEAV12@PEBD_K@Z ENDP ; std::basic_string<char,std::char_traits<char>,std::allocator<char> >::append
_TEXT	ENDS
EXTRN	memcpy:PROC
;	COMDAT pdata
; File c:\program files (x86)\microsoft visual studio 10.0\vc\include\iosfwd
pdata	SEGMENT
$pdata$?copy@?$char_traits@D@std@@SAPEADPEADPEBD_K@Z DD imagerel $LN3
	DD	imagerel $LN3+66
	DD	imagerel $unwind$?copy@?$char_traits@D@std@@SAPEADPEADPEBD_K@Z
pdata	ENDS
;	COMDAT xdata
xdata	SEGMENT
$unwind$?copy@?$char_traits@D@std@@SAPEADPEADPEBD_K@Z DD 022801H
	DD	070103214H
; Function compile flags: /Odtp /RTCsu
xdata	ENDS
;	COMDAT ?copy@?$char_traits@D@std@@SAPEADPEADPEBD_K@Z
_TEXT	SEGMENT
_First1$ = 48
_First2$ = 56
_Count$ = 64
?copy@?$char_traits@D@std@@SAPEADPEADPEBD_K@Z PROC	; std::char_traits<char>::copy, COMDAT
; Line 496
$LN3:
	mov	QWORD PTR [rsp+24], r8
	mov	QWORD PTR [rsp+16], rdx
	mov	QWORD PTR [rsp+8], rcx
	push	rdi
	sub	rsp, 32					; 00000020H
	mov	rdi, rsp
	mov	ecx, 8
	mov	eax, -858993460				; ccccccccH
	rep stosd
	mov	rcx, QWORD PTR [rsp+48]
; Line 497
	mov	r8, QWORD PTR _Count$[rsp]
	mov	rdx, QWORD PTR _First2$[rsp]
	mov	rcx, QWORD PTR _First1$[rsp]
	call	memcpy
; Line 498
	add	rsp, 32					; 00000020H
	pop	rdi
	ret	0
?copy@?$char_traits@D@std@@SAPEADPEADPEBD_K@Z ENDP	; std::char_traits<char>::copy
_TEXT	ENDS
PUBLIC	?assign@?$char_traits@D@std@@SAXAEADAEBD@Z	; std::char_traits<char>::assign
;	COMDAT pdata
; File c:\program files (x86)\microsoft visual studio 10.0\vc\include\xstring
pdata	SEGMENT
$pdata$?_Eos@?$basic_string@DU?$char_traits@D@std@@V?$allocator@D@2@@std@@QEAAX_K@Z DD imagerel $LN3
	DD	imagerel $LN3+88
	DD	imagerel $unwind$?_Eos@?$basic_string@DU?$char_traits@D@std@@V?$allocator@D@2@@std@@QEAAX_K@Z
pdata	ENDS
;	COMDAT xdata
xdata	SEGMENT
$unwind$?_Eos@?$basic_string@DU?$char_traits@D@std@@V?$allocator@D@2@@std@@QEAAX_K@Z DD 022301H
	DD	0700b520fH
; Function compile flags: /Odtp /RTCsu
xdata	ENDS
;	COMDAT ?_Eos@?$basic_string@DU?$char_traits@D@std@@V?$allocator@D@2@@std@@QEAAX_K@Z
_TEXT	SEGMENT
$T27651 = 32
this$ = 64
_Newsize$ = 72
?_Eos@?$basic_string@DU?$char_traits@D@std@@V?$allocator@D@2@@std@@QEAAX_K@Z PROC ; std::basic_string<char,std::char_traits<char>,std::allocator<char> >::_Eos, COMDAT
; Line 1953
$LN3:
	mov	QWORD PTR [rsp+16], rdx
	mov	QWORD PTR [rsp+8], rcx
	push	rdi
	sub	rsp, 48					; 00000030H
	mov	rdi, rsp
	mov	ecx, 12
	mov	eax, -858993460				; ccccccccH
	rep stosd
	mov	rcx, QWORD PTR [rsp+64]
; Line 1954
	mov	BYTE PTR $T27651[rsp], 0
	mov	rax, QWORD PTR this$[rsp]
	mov	rcx, QWORD PTR _Newsize$[rsp]
	mov	QWORD PTR [rax+24], rcx
	mov	rcx, QWORD PTR this$[rsp]
	call	?_Myptr@?$basic_string@DU?$char_traits@D@std@@V?$allocator@D@2@@std@@QEAAPEADXZ ; std::basic_string<char,std::char_traits<char>,std::allocator<char> >::_Myptr
	add	rax, QWORD PTR _Newsize$[rsp]
	lea	rdx, QWORD PTR $T27651[rsp]
	mov	rcx, rax
	call	?assign@?$char_traits@D@std@@SAXAEADAEBD@Z ; std::char_traits<char>::assign
; Line 1955
	add	rsp, 48					; 00000030H
	pop	rdi
	ret	0
?_Eos@?$basic_string@DU?$char_traits@D@std@@V?$allocator@D@2@@std@@QEAAX_K@Z ENDP ; std::basic_string<char,std::char_traits<char>,std::allocator<char> >::_Eos
_TEXT	ENDS
;	COMDAT pdata
; File c:\program files (x86)\microsoft visual studio 10.0\vc\include\iosfwd
pdata	SEGMENT
$pdata$?assign@?$char_traits@D@std@@SAXAEADAEBD@Z DD imagerel $LN3
	DD	imagerel $LN3+28
	DD	imagerel $unwind$?assign@?$char_traits@D@std@@SAXAEADAEBD@Z
pdata	ENDS
;	COMDAT xdata
xdata	SEGMENT
$unwind$?assign@?$char_traits@D@std@@SAXAEADAEBD@Z DD 010b01H
	DD	0700bH
; Function compile flags: /Odtp /RTCsu
xdata	ENDS
;	COMDAT ?assign@?$char_traits@D@std@@SAXAEADAEBD@Z
_TEXT	SEGMENT
_Left$ = 16
_Right$ = 24
?assign@?$char_traits@D@std@@SAXAEADAEBD@Z PROC		; std::char_traits<char>::assign, COMDAT
; Line 526
$LN3:
	mov	QWORD PTR [rsp+16], rdx
	mov	QWORD PTR [rsp+8], rcx
	push	rdi
; Line 527
	mov	rax, QWORD PTR _Left$[rsp]
	mov	rcx, QWORD PTR _Right$[rsp]
	movzx	ecx, BYTE PTR [rcx]
	mov	BYTE PTR [rax], cl
; Line 528
	pop	rdi
	ret	0
?assign@?$char_traits@D@std@@SAXAEADAEBD@Z ENDP		; std::char_traits<char>::assign
_TEXT	ENDS
PUBLIC	?_Xran@?$basic_string@DU?$char_traits@D@std@@V?$allocator@D@2@@std@@QEBAXXZ ; std::basic_string<char,std::char_traits<char>,std::allocator<char> >::_Xran
PUBLIC	?size@?$basic_string@DU?$char_traits@D@std@@V?$allocator@D@2@@std@@QEBA_KXZ ; std::basic_string<char,std::char_traits<char>,std::allocator<char> >::size
;	COMDAT pdata
; File c:\program files (x86)\microsoft visual studio 10.0\vc\include\xstring
pdata	SEGMENT
$pdata$?append@?$basic_string@DU?$char_traits@D@std@@V?$allocator@D@2@@std@@QEAAAEAV12@AEBV12@_K1@Z DD imagerel $LN7
	DD	imagerel $LN7+291
	DD	imagerel $unwind$?append@?$basic_string@DU?$char_traits@D@std@@V?$allocator@D@2@@std@@QEAAAEAV12@AEBV12@_K1@Z
pdata	ENDS
;	COMDAT xdata
xdata	SEGMENT
$unwind$?append@?$basic_string@DU?$char_traits@D@std@@V?$allocator@D@2@@std@@QEAAAEAV12@AEBV12@_K1@Z DD 022d01H
	DD	070155219H
; Function compile flags: /Odtp /RTCsu
xdata	ENDS
;	COMDAT ?append@?$basic_string@DU?$char_traits@D@std@@V?$allocator@D@2@@std@@QEAAAEAV12@AEBV12@_K1@Z
_TEXT	SEGMENT
_Num$ = 32
tv129 = 40
this$ = 64
_Right$ = 72
_Roff$ = 80
_Count$ = 88
?append@?$basic_string@DU?$char_traits@D@std@@V?$allocator@D@2@@std@@QEAAAEAV12@AEBV12@_K1@Z PROC ; std::basic_string<char,std::char_traits<char>,std::allocator<char> >::append, COMDAT
; Line 799
$LN7:
	mov	QWORD PTR [rsp+32], r9
	mov	QWORD PTR [rsp+24], r8
	mov	QWORD PTR [rsp+16], rdx
	mov	QWORD PTR [rsp+8], rcx
	push	rdi
	sub	rsp, 48					; 00000030H
	mov	rdi, rsp
	mov	ecx, 12
	mov	eax, -858993460				; ccccccccH
	rep stosd
	mov	rcx, QWORD PTR [rsp+64]
; Line 800
	mov	rcx, QWORD PTR _Right$[rsp]
	call	?size@?$basic_string@DU?$char_traits@D@std@@V?$allocator@D@2@@std@@QEBA_KXZ ; std::basic_string<char,std::char_traits<char>,std::allocator<char> >::size
	cmp	rax, QWORD PTR _Roff$[rsp]
	jae	SHORT $LN4@append@2
; Line 801
	mov	rcx, QWORD PTR this$[rsp]
	call	?_Xran@?$basic_string@DU?$char_traits@D@std@@V?$allocator@D@2@@std@@QEBAXXZ ; std::basic_string<char,std::char_traits<char>,std::allocator<char> >::_Xran
$LN4@append@2:
; Line 802
	mov	rcx, QWORD PTR _Right$[rsp]
	call	?size@?$basic_string@DU?$char_traits@D@std@@V?$allocator@D@2@@std@@QEBA_KXZ ; std::basic_string<char,std::char_traits<char>,std::allocator<char> >::size
	sub	rax, QWORD PTR _Roff$[rsp]
	mov	QWORD PTR _Num$[rsp], rax
; Line 803
	mov	rax, QWORD PTR _Count$[rsp]
	cmp	QWORD PTR _Num$[rsp], rax
	jae	SHORT $LN3@append@2
; Line 804
	mov	rax, QWORD PTR _Num$[rsp]
	mov	QWORD PTR _Count$[rsp], rax
$LN3@append@2:
; Line 805
	mov	rax, QWORD PTR this$[rsp]
	mov	rax, QWORD PTR [rax+24]
	mov	rcx, QWORD PTR ?npos@?$basic_string@DU?$char_traits@D@std@@V?$allocator@D@2@@std@@2_KB ; std::basic_string<char,std::char_traits<char>,std::allocator<char> >::npos
	sub	rcx, rax
	mov	rax, rcx
	cmp	rax, QWORD PTR _Count$[rsp]
	ja	SHORT $LN2@append@2
; Line 806
	mov	rcx, QWORD PTR this$[rsp]
	call	?_Xlen@?$basic_string@DU?$char_traits@D@std@@V?$allocator@D@2@@std@@QEBAXXZ ; std::basic_string<char,std::char_traits<char>,std::allocator<char> >::_Xlen
$LN2@append@2:
; Line 808
	cmp	QWORD PTR _Count$[rsp], 0
	jbe	SHORT $LN1@append@2
	mov	rax, QWORD PTR this$[rsp]
	mov	rax, QWORD PTR [rax+24]
	add	rax, QWORD PTR _Count$[rsp]
	mov	QWORD PTR _Num$[rsp], rax
	xor	r8d, r8d
	mov	rdx, QWORD PTR _Num$[rsp]
	mov	rcx, QWORD PTR this$[rsp]
	call	?_Grow@?$basic_string@DU?$char_traits@D@std@@V?$allocator@D@2@@std@@QEAA_N_K_N@Z ; std::basic_string<char,std::char_traits<char>,std::allocator<char> >::_Grow
	movzx	eax, al
	test	eax, eax
	je	SHORT $LN1@append@2
; Line 811
	mov	rcx, QWORD PTR _Right$[rsp]
	call	?_Myptr@?$basic_string@DU?$char_traits@D@std@@V?$allocator@D@2@@std@@QEBAPEBDXZ ; std::basic_string<char,std::char_traits<char>,std::allocator<char> >::_Myptr
	add	rax, QWORD PTR _Roff$[rsp]
	mov	QWORD PTR tv129[rsp], rax
	mov	rcx, QWORD PTR this$[rsp]
	call	?_Myptr@?$basic_string@DU?$char_traits@D@std@@V?$allocator@D@2@@std@@QEAAPEADXZ ; std::basic_string<char,std::char_traits<char>,std::allocator<char> >::_Myptr
	mov	rcx, QWORD PTR this$[rsp]
	add	rax, QWORD PTR [rcx+24]
	mov	r8, QWORD PTR _Count$[rsp]
	mov	rcx, QWORD PTR tv129[rsp]
	mov	rdx, rcx
	mov	rcx, rax
	call	?copy@?$char_traits@D@std@@SAPEADPEADPEBD_K@Z ; std::char_traits<char>::copy
; Line 812
	mov	rdx, QWORD PTR _Num$[rsp]
	mov	rcx, QWORD PTR this$[rsp]
	call	?_Eos@?$basic_string@DU?$char_traits@D@std@@V?$allocator@D@2@@std@@QEAAX_K@Z ; std::basic_string<char,std::char_traits<char>,std::allocator<char> >::_Eos
$LN1@append@2:
; Line 814
	mov	rax, QWORD PTR this$[rsp]
$LN6@append@2:
; Line 815
	add	rsp, 48					; 00000030H
	pop	rdi
	ret	0
?append@?$basic_string@DU?$char_traits@D@std@@V?$allocator@D@2@@std@@QEAAAEAV12@AEBV12@_K1@Z ENDP ; std::basic_string<char,std::char_traits<char>,std::allocator<char> >::append
_TEXT	ENDS
;	COMDAT pdata
pdata	SEGMENT
$pdata$?size@?$basic_string@DU?$char_traits@D@std@@V?$allocator@D@2@@std@@QEBA_KXZ DD imagerel $LN3
	DD	imagerel $LN3+17
	DD	imagerel $unwind$?size@?$basic_string@DU?$char_traits@D@std@@V?$allocator@D@2@@std@@QEBA_KXZ
pdata	ENDS
;	COMDAT xdata
xdata	SEGMENT
$unwind$?size@?$basic_string@DU?$char_traits@D@std@@V?$allocator@D@2@@std@@QEBA_KXZ DD 010601H
	DD	07006H
; Function compile flags: /Odtp /RTCsu
xdata	ENDS
;	COMDAT ?size@?$basic_string@DU?$char_traits@D@std@@V?$allocator@D@2@@std@@QEBA_KXZ
_TEXT	SEGMENT
this$ = 16
?size@?$basic_string@DU?$char_traits@D@std@@V?$allocator@D@2@@std@@QEBA_KXZ PROC ; std::basic_string<char,std::char_traits<char>,std::allocator<char> >::size, COMDAT
; Line 1511
$LN3:
	mov	QWORD PTR [rsp+8], rcx
	push	rdi
; Line 1512
	mov	rax, QWORD PTR this$[rsp]
	mov	rax, QWORD PTR [rax+24]
; Line 1513
	pop	rdi
	ret	0
?size@?$basic_string@DU?$char_traits@D@std@@V?$allocator@D@2@@std@@QEBA_KXZ ENDP ; std::basic_string<char,std::char_traits<char>,std::allocator<char> >::size
_TEXT	ENDS
PUBLIC	??_C@_0BI@CFPLBAOH@invalid?5string?5position?$AA@ ; `string'
EXTRN	?_Xout_of_range@std@@YAXPEBD@Z:PROC		; std::_Xout_of_range
;	COMDAT pdata
pdata	SEGMENT
$pdata$?_Xran@?$basic_string@DU?$char_traits@D@std@@V?$allocator@D@2@@std@@QEBAXXZ DD imagerel $LN3
	DD	imagerel $LN3+48
	DD	imagerel $unwind$?_Xran@?$basic_string@DU?$char_traits@D@std@@V?$allocator@D@2@@std@@QEBAXXZ
pdata	ENDS
;	COMDAT xdata
xdata	SEGMENT
$unwind$?_Xran@?$basic_string@DU?$char_traits@D@std@@V?$allocator@D@2@@std@@QEBAXXZ DD 021e01H
	DD	07006320aH
xdata	ENDS
;	COMDAT ??_C@_0BI@CFPLBAOH@invalid?5string?5position?$AA@
CONST	SEGMENT
??_C@_0BI@CFPLBAOH@invalid?5string?5position?$AA@ DB 'invalid string posi'
	DB	'tion', 00H					; `string'
; Function compile flags: /Odtp /RTCsu
CONST	ENDS
;	COMDAT ?_Xran@?$basic_string@DU?$char_traits@D@std@@V?$allocator@D@2@@std@@QEBAXXZ
_TEXT	SEGMENT
this$ = 48
?_Xran@?$basic_string@DU?$char_traits@D@std@@V?$allocator@D@2@@std@@QEBAXXZ PROC ; std::basic_string<char,std::char_traits<char>,std::allocator<char> >::_Xran, COMDAT
; Line 2020
$LN3:
	mov	QWORD PTR [rsp+8], rcx
	push	rdi
	sub	rsp, 32					; 00000020H
	mov	rdi, rsp
	mov	ecx, 8
	mov	eax, -858993460				; ccccccccH
	rep stosd
	mov	rcx, QWORD PTR [rsp+48]
; Line 2021
	lea	rcx, OFFSET FLAT:??_C@_0BI@CFPLBAOH@invalid?5string?5position?$AA@
	call	?_Xout_of_range@std@@YAXPEBD@Z		; std::_Xout_of_range
$LN2@Xran:
; Line 2022
	add	rsp, 32					; 00000020H
	pop	rdi
	ret	0
?_Xran@?$basic_string@DU?$char_traits@D@std@@V?$allocator@D@2@@std@@QEBAXXZ ENDP ; std::basic_string<char,std::char_traits<char>,std::allocator<char> >::_Xran
_TEXT	ENDS
PUBLIC	?_Tidy@?$basic_string@DU?$char_traits@D@std@@V?$allocator@D@2@@std@@QEAAX_N_K@Z ; std::basic_string<char,std::char_traits<char>,std::allocator<char> >::_Tidy
PUBLIC	?_Copy@?$basic_string@DU?$char_traits@D@std@@V?$allocator@D@2@@std@@QEAAX_K0@Z ; std::basic_string<char,std::char_traits<char>,std::allocator<char> >::_Copy
PUBLIC	?max_size@?$basic_string@DU?$char_traits@D@std@@V?$allocator@D@2@@std@@QEBA_KXZ ; std::basic_string<char,std::char_traits<char>,std::allocator<char> >::max_size
;	COMDAT pdata
pdata	SEGMENT
$pdata$?_Grow@?$basic_string@DU?$char_traits@D@std@@V?$allocator@D@2@@std@@QEAA_N_K_N@Z DD imagerel $LN13
	DD	imagerel $LN13+244
	DD	imagerel $unwind$?_Grow@?$basic_string@DU?$char_traits@D@std@@V?$allocator@D@2@@std@@QEAA_N_K_N@Z
pdata	ENDS
;	COMDAT xdata
xdata	SEGMENT
$unwind$?_Grow@?$basic_string@DU?$char_traits@D@std@@V?$allocator@D@2@@std@@QEAA_N_K_N@Z DD 022801H
	DD	070105214H
; Function compile flags: /Odtp /RTCsu
xdata	ENDS
;	COMDAT ?_Grow@?$basic_string@DU?$char_traits@D@std@@V?$allocator@D@2@@std@@QEAA_N_K_N@Z
_TEXT	SEGMENT
tv129 = 32
tv136 = 40
this$ = 64
_Newsize$ = 72
_Trim$ = 80
?_Grow@?$basic_string@DU?$char_traits@D@std@@V?$allocator@D@2@@std@@QEAA_N_K_N@Z PROC ; std::basic_string<char,std::char_traits<char>,std::allocator<char> >::_Grow, COMDAT
; Line 1959
$LN13:
	mov	BYTE PTR [rsp+24], r8b
	mov	QWORD PTR [rsp+16], rdx
	mov	QWORD PTR [rsp+8], rcx
	push	rdi
	sub	rsp, 48					; 00000030H
	mov	rdi, rsp
	mov	ecx, 12
	mov	eax, -858993460				; ccccccccH
	rep stosd
	mov	rcx, QWORD PTR [rsp+64]
; Line 1960
	mov	rcx, QWORD PTR this$[rsp]
	call	?max_size@?$basic_string@DU?$char_traits@D@std@@V?$allocator@D@2@@std@@QEBA_KXZ ; std::basic_string<char,std::char_traits<char>,std::allocator<char> >::max_size
	cmp	rax, QWORD PTR _Newsize$[rsp]
	jae	SHORT $LN6@Grow
; Line 1961
	mov	rcx, QWORD PTR this$[rsp]
	call	?_Xlen@?$basic_string@DU?$char_traits@D@std@@V?$allocator@D@2@@std@@QEBAXXZ ; std::basic_string<char,std::char_traits<char>,std::allocator<char> >::_Xlen
$LN6@Grow:
; Line 1962
	mov	rax, QWORD PTR this$[rsp]
	mov	rcx, QWORD PTR _Newsize$[rsp]
	cmp	QWORD PTR [rax+32], rcx
	jae	SHORT $LN5@Grow
; Line 1963
	mov	rax, QWORD PTR this$[rsp]
	mov	r8, QWORD PTR [rax+24]
	mov	rdx, QWORD PTR _Newsize$[rsp]
	mov	rcx, QWORD PTR this$[rsp]
	call	?_Copy@?$basic_string@DU?$char_traits@D@std@@V?$allocator@D@2@@std@@QEAAX_K0@Z ; std::basic_string<char,std::char_traits<char>,std::allocator<char> >::_Copy
	jmp	SHORT $LN4@Grow
$LN5@Grow:
; Line 1964
	movzx	eax, BYTE PTR _Trim$[rsp]
	test	eax, eax
	je	SHORT $LN3@Grow
	cmp	QWORD PTR _Newsize$[rsp], 16
	jae	SHORT $LN3@Grow
; Line 1966
	mov	rax, QWORD PTR this$[rsp]
	mov	rax, QWORD PTR [rax+24]
	cmp	QWORD PTR _Newsize$[rsp], rax
	jae	SHORT $LN9@Grow
	mov	rax, QWORD PTR _Newsize$[rsp]
	mov	QWORD PTR tv129[rsp], rax
	jmp	SHORT $LN10@Grow
$LN9@Grow:
	mov	rax, QWORD PTR this$[rsp]
	mov	rax, QWORD PTR [rax+24]
	mov	QWORD PTR tv129[rsp], rax
$LN10@Grow:
	mov	r8, QWORD PTR tv129[rsp]
	mov	dl, 1
	mov	rcx, QWORD PTR this$[rsp]
	call	?_Tidy@?$basic_string@DU?$char_traits@D@std@@V?$allocator@D@2@@std@@QEAAX_N_K@Z ; std::basic_string<char,std::char_traits<char>,std::allocator<char> >::_Tidy
	jmp	SHORT $LN2@Grow
$LN3@Grow:
; Line 1967
	cmp	QWORD PTR _Newsize$[rsp], 0
	jne	SHORT $LN1@Grow
; Line 1968
	xor	edx, edx
	mov	rcx, QWORD PTR this$[rsp]
	call	?_Eos@?$basic_string@DU?$char_traits@D@std@@V?$allocator@D@2@@std@@QEAAX_K@Z ; std::basic_string<char,std::char_traits<char>,std::allocator<char> >::_Eos
$LN1@Grow:
$LN2@Grow:
$LN4@Grow:
; Line 1969
	cmp	QWORD PTR _Newsize$[rsp], 0
	jbe	SHORT $LN11@Grow
	mov	DWORD PTR tv136[rsp], 1
	jmp	SHORT $LN12@Grow
$LN11@Grow:
	mov	DWORD PTR tv136[rsp], 0
$LN12@Grow:
	movzx	eax, BYTE PTR tv136[rsp]
$LN8@Grow:
; Line 1970
	add	rsp, 48					; 00000030H
	pop	rdi
	ret	0
?_Grow@?$basic_string@DU?$char_traits@D@std@@V?$allocator@D@2@@std@@QEAA_N_K_N@Z ENDP ; std::basic_string<char,std::char_traits<char>,std::allocator<char> >::_Grow
_TEXT	ENDS
PUBLIC	?deallocate@?$allocator@D@std@@QEAAXPEAD_K@Z	; std::allocator<char>::deallocate
;	COMDAT pdata
pdata	SEGMENT
$pdata$?_Tidy@?$basic_string@DU?$char_traits@D@std@@V?$allocator@D@2@@std@@QEAAX_N_K@Z DD imagerel $LN7
	DD	imagerel $LN7+179
	DD	imagerel $unwind$?_Tidy@?$basic_string@DU?$char_traits@D@std@@V?$allocator@D@2@@std@@QEAAX_N_K@Z
pdata	ENDS
;	COMDAT xdata
xdata	SEGMENT
$unwind$?_Tidy@?$basic_string@DU?$char_traits@D@std@@V?$allocator@D@2@@std@@QEAAX_N_K@Z DD 022701H
	DD	0700f5213H
; Function compile flags: /Odtp /RTCsu
xdata	ENDS
;	COMDAT ?_Tidy@?$basic_string@DU?$char_traits@D@std@@V?$allocator@D@2@@std@@QEAAX_N_K@Z
_TEXT	SEGMENT
_Ptr$24082 = 32
this$ = 64
_Built$ = 72
_Newsize$ = 80
?_Tidy@?$basic_string@DU?$char_traits@D@std@@V?$allocator@D@2@@std@@QEAAX_N_K@Z PROC ; std::basic_string<char,std::char_traits<char>,std::allocator<char> >::_Tidy, COMDAT
; Line 1988
$LN7:
	mov	QWORD PTR [rsp+24], r8
	mov	BYTE PTR [rsp+16], dl
	mov	QWORD PTR [rsp+8], rcx
	push	rdi
	sub	rsp, 48					; 00000030H
	mov	rdi, rsp
	mov	ecx, 12
	mov	eax, -858993460				; ccccccccH
	rep stosd
	mov	rcx, QWORD PTR [rsp+64]
; Line 1989
	movzx	eax, BYTE PTR _Built$[rsp]
	test	eax, eax
	jne	SHORT $LN4@Tidy
	jmp	SHORT $LN3@Tidy
$LN4@Tidy:
; Line 1991
	mov	rax, QWORD PTR this$[rsp]
	cmp	QWORD PTR [rax+32], 16
	jb	SHORT $LN2@Tidy
; Line 1993
	mov	rax, QWORD PTR this$[rsp]
	mov	rax, QWORD PTR [rax+8]
	mov	QWORD PTR _Ptr$24082[rsp], rax
; Line 1994
	cmp	QWORD PTR _Newsize$[rsp], 0
	jbe	SHORT $LN1@Tidy
; Line 1995
	mov	rax, QWORD PTR this$[rsp]
	add	rax, 8
	mov	r8, QWORD PTR _Newsize$[rsp]
	mov	rdx, QWORD PTR _Ptr$24082[rsp]
	mov	rcx, rax
	call	?copy@?$char_traits@D@std@@SAPEADPEADPEBD_K@Z ; std::char_traits<char>::copy
$LN1@Tidy:
; Line 1996
	mov	rax, QWORD PTR this$[rsp]
	mov	rax, QWORD PTR [rax+32]
	inc	rax
	mov	rcx, QWORD PTR this$[rsp]
	add	rcx, 40					; 00000028H
	mov	r8, rax
	mov	rdx, QWORD PTR _Ptr$24082[rsp]
	call	?deallocate@?$allocator@D@std@@QEAAXPEAD_K@Z ; std::allocator<char>::deallocate
$LN2@Tidy:
$LN3@Tidy:
; Line 1998
	mov	rax, QWORD PTR this$[rsp]
	mov	QWORD PTR [rax+32], 15
; Line 1999
	mov	rdx, QWORD PTR _Newsize$[rsp]
	mov	rcx, QWORD PTR this$[rsp]
	call	?_Eos@?$basic_string@DU?$char_traits@D@std@@V?$allocator@D@2@@std@@QEAAX_K@Z ; std::basic_string<char,std::char_traits<char>,std::allocator<char> >::_Eos
; Line 2000
	add	rsp, 48					; 00000030H
	pop	rdi
	ret	0
?_Tidy@?$basic_string@DU?$char_traits@D@std@@V?$allocator@D@2@@std@@QEAAX_N_K@Z ENDP ; std::basic_string<char,std::char_traits<char>,std::allocator<char> >::_Tidy
_TEXT	ENDS
EXTRN	??3@YAXPEAX@Z:PROC				; operator delete
;	COMDAT pdata
; File c:\program files (x86)\microsoft visual studio 10.0\vc\include\xmemory
pdata	SEGMENT
$pdata$?deallocate@?$allocator@D@std@@QEAAXPEAD_K@Z DD imagerel $LN3
	DD	imagerel $LN3+56
	DD	imagerel $unwind$?deallocate@?$allocator@D@std@@QEAAXPEAD_K@Z
pdata	ENDS
;	COMDAT xdata
xdata	SEGMENT
$unwind$?deallocate@?$allocator@D@std@@QEAAXPEAD_K@Z DD 022801H
	DD	070103214H
; Function compile flags: /Odtp /RTCsu
xdata	ENDS
;	COMDAT ?deallocate@?$allocator@D@std@@QEAAXPEAD_K@Z
_TEXT	SEGMENT
this$ = 48
_Ptr$ = 56
__formal$ = 64
?deallocate@?$allocator@D@std@@QEAAXPEAD_K@Z PROC	; std::allocator<char>::deallocate, COMDAT
; Line 181
$LN3:
	mov	QWORD PTR [rsp+24], r8
	mov	QWORD PTR [rsp+16], rdx
	mov	QWORD PTR [rsp+8], rcx
	push	rdi
	sub	rsp, 32					; 00000020H
	mov	rdi, rsp
	mov	ecx, 8
	mov	eax, -858993460				; ccccccccH
	rep stosd
	mov	rcx, QWORD PTR [rsp+48]
; Line 182
	mov	rcx, QWORD PTR _Ptr$[rsp]
	call	??3@YAXPEAX@Z				; operator delete
; Line 183
	add	rsp, 32					; 00000020H
	pop	rdi
	ret	0
?deallocate@?$allocator@D@std@@QEAAXPEAD_K@Z ENDP	; std::allocator<char>::deallocate
_TEXT	ENDS
;	COMDAT pdata
; File c:\program files (x86)\microsoft visual studio 10.0\vc\include\xstring
pdata	SEGMENT
$pdata$?_Inside@?$basic_string@DU?$char_traits@D@std@@V?$allocator@D@2@@std@@QEAA_NPEBD@Z DD imagerel $LN6
	DD	imagerel $LN6+100
	DD	imagerel $unwind$?_Inside@?$basic_string@DU?$char_traits@D@std@@V?$allocator@D@2@@std@@QEAA_NPEBD@Z
pdata	ENDS
;	COMDAT xdata
xdata	SEGMENT
$unwind$?_Inside@?$basic_string@DU?$char_traits@D@std@@V?$allocator@D@2@@std@@QEAA_NPEBD@Z DD 022301H
	DD	0700b320fH
; Function compile flags: /Odtp /RTCsu
xdata	ENDS
;	COMDAT ?_Inside@?$basic_string@DU?$char_traits@D@std@@V?$allocator@D@2@@std@@QEAA_NPEBD@Z
_TEXT	SEGMENT
this$ = 48
_Ptr$ = 56
?_Inside@?$basic_string@DU?$char_traits@D@std@@V?$allocator@D@2@@std@@QEAA_NPEBD@Z PROC ; std::basic_string<char,std::char_traits<char>,std::allocator<char> >::_Inside, COMDAT
; Line 1973
$LN6:
	mov	QWORD PTR [rsp+16], rdx
	mov	QWORD PTR [rsp+8], rcx
	push	rdi
	sub	rsp, 32					; 00000020H
	mov	rdi, rsp
	mov	ecx, 8
	mov	eax, -858993460				; ccccccccH
	rep stosd
	mov	rcx, QWORD PTR [rsp+48]
; Line 1974
	cmp	QWORD PTR _Ptr$[rsp], 0
	je	SHORT $LN2@Inside
	mov	rcx, QWORD PTR this$[rsp]
	call	?_Myptr@?$basic_string@DU?$char_traits@D@std@@V?$allocator@D@2@@std@@QEAAPEADXZ ; std::basic_string<char,std::char_traits<char>,std::allocator<char> >::_Myptr
	cmp	QWORD PTR _Ptr$[rsp], rax
	jb	SHORT $LN2@Inside
	mov	rcx, QWORD PTR this$[rsp]
	call	?_Myptr@?$basic_string@DU?$char_traits@D@std@@V?$allocator@D@2@@std@@QEAAPEADXZ ; std::basic_string<char,std::char_traits<char>,std::allocator<char> >::_Myptr
	mov	rcx, QWORD PTR this$[rsp]
	add	rax, QWORD PTR [rcx+24]
	cmp	rax, QWORD PTR _Ptr$[rsp]
	ja	SHORT $LN3@Inside
$LN2@Inside:
; Line 1975
	xor	al, al
	jmp	SHORT $LN4@Inside
; Line 1976
	jmp	SHORT $LN1@Inside
$LN3@Inside:
; Line 1977
	mov	al, 1
$LN1@Inside:
$LN4@Inside:
; Line 1978
	add	rsp, 32					; 00000020H
	pop	rdi
	ret	0
?_Inside@?$basic_string@DU?$char_traits@D@std@@V?$allocator@D@2@@std@@QEAA_NPEBD@Z ENDP ; std::basic_string<char,std::char_traits<char>,std::allocator<char> >::_Inside
_TEXT	ENDS
;	COMDAT pdata
pdata	SEGMENT
$pdata$?_Myptr@?$basic_string@DU?$char_traits@D@std@@V?$allocator@D@2@@std@@QEAAPEADXZ DD imagerel $LN5
	DD	imagerel $LN5+80
	DD	imagerel $unwind$?_Myptr@?$basic_string@DU?$char_traits@D@std@@V?$allocator@D@2@@std@@QEAAPEADXZ
pdata	ENDS
;	COMDAT xdata
xdata	SEGMENT
$unwind$?_Myptr@?$basic_string@DU?$char_traits@D@std@@V?$allocator@D@2@@std@@QEAAPEADXZ DD 021e01H
	DD	07006120aH
; Function compile flags: /Odtp /RTCsu
xdata	ENDS
;	COMDAT ?_Myptr@?$basic_string@DU?$char_traits@D@std@@V?$allocator@D@2@@std@@QEAAPEADXZ
_TEXT	SEGMENT
tv82 = 0
this$ = 32
?_Myptr@?$basic_string@DU?$char_traits@D@std@@V?$allocator@D@2@@std@@QEAAPEADXZ PROC ; std::basic_string<char,std::char_traits<char>,std::allocator<char> >::_Myptr, COMDAT
; Line 2003
$LN5:
	mov	QWORD PTR [rsp+8], rcx
	push	rdi
	sub	rsp, 16
	mov	rdi, rsp
	mov	ecx, 4
	mov	eax, -858993460				; ccccccccH
	rep stosd
	mov	rcx, QWORD PTR [rsp+32]
; Line 2005
	mov	rax, QWORD PTR this$[rsp]
	cmp	QWORD PTR [rax+32], 16
	jb	SHORT $LN3@Myptr@2
	mov	rax, QWORD PTR this$[rsp]
	mov	rax, QWORD PTR [rax+8]
	mov	QWORD PTR tv82[rsp], rax
	jmp	SHORT $LN4@Myptr@2
$LN3@Myptr@2:
	mov	rax, QWORD PTR this$[rsp]
	add	rax, 8
	mov	QWORD PTR tv82[rsp], rax
$LN4@Myptr@2:
	mov	rax, QWORD PTR tv82[rsp]
; Line 2006
	add	rsp, 16
	pop	rdi
	ret	0
?_Myptr@?$basic_string@DU?$char_traits@D@std@@V?$allocator@D@2@@std@@QEAAPEADXZ ENDP ; std::basic_string<char,std::char_traits<char>,std::allocator<char> >::_Myptr
_TEXT	ENDS
PUBLIC	??_C@_0BA@JFNIOLAK@string?5too?5long?$AA@	; `string'
EXTRN	?_Xlength_error@std@@YAXPEBD@Z:PROC		; std::_Xlength_error
;	COMDAT pdata
pdata	SEGMENT
$pdata$?_Xlen@?$basic_string@DU?$char_traits@D@std@@V?$allocator@D@2@@std@@QEBAXXZ DD imagerel $LN3
	DD	imagerel $LN3+48
	DD	imagerel $unwind$?_Xlen@?$basic_string@DU?$char_traits@D@std@@V?$allocator@D@2@@std@@QEBAXXZ
pdata	ENDS
;	COMDAT xdata
xdata	SEGMENT
$unwind$?_Xlen@?$basic_string@DU?$char_traits@D@std@@V?$allocator@D@2@@std@@QEBAXXZ DD 021e01H
	DD	07006320aH
xdata	ENDS
;	COMDAT ??_C@_0BA@JFNIOLAK@string?5too?5long?$AA@
CONST	SEGMENT
??_C@_0BA@JFNIOLAK@string?5too?5long?$AA@ DB 'string too long', 00H ; `string'
; Function compile flags: /Odtp /RTCsu
CONST	ENDS
;	COMDAT ?_Xlen@?$basic_string@DU?$char_traits@D@std@@V?$allocator@D@2@@std@@QEBAXXZ
_TEXT	SEGMENT
this$ = 48
?_Xlen@?$basic_string@DU?$char_traits@D@std@@V?$allocator@D@2@@std@@QEBAXXZ PROC ; std::basic_string<char,std::char_traits<char>,std::allocator<char> >::_Xlen, COMDAT
; Line 2015
$LN3:
	mov	QWORD PTR [rsp+8], rcx
	push	rdi
	sub	rsp, 32					; 00000020H
	mov	rdi, rsp
	mov	ecx, 8
	mov	eax, -858993460				; ccccccccH
	rep stosd
	mov	rcx, QWORD PTR [rsp+48]
; Line 2016
	lea	rcx, OFFSET FLAT:??_C@_0BA@JFNIOLAK@string?5too?5long?$AA@
	call	?_Xlength_error@std@@YAXPEBD@Z		; std::_Xlength_error
$LN2@Xlen:
; Line 2017
	add	rsp, 32					; 00000020H
	pop	rdi
	ret	0
?_Xlen@?$basic_string@DU?$char_traits@D@std@@V?$allocator@D@2@@std@@QEBAXXZ ENDP ; std::basic_string<char,std::char_traits<char>,std::allocator<char> >::_Xlen
_TEXT	ENDS
PUBLIC	?max_size@?$allocator@D@std@@QEBA_KXZ		; std::allocator<char>::max_size
;	COMDAT pdata
pdata	SEGMENT
$pdata$?max_size@?$basic_string@DU?$char_traits@D@std@@V?$allocator@D@2@@std@@QEBA_KXZ DD imagerel $LN5
	DD	imagerel $LN5+95
	DD	imagerel $unwind$?max_size@?$basic_string@DU?$char_traits@D@std@@V?$allocator@D@2@@std@@QEBA_KXZ
pdata	ENDS
;	COMDAT xdata
xdata	SEGMENT
$unwind$?max_size@?$basic_string@DU?$char_traits@D@std@@V?$allocator@D@2@@std@@QEBA_KXZ DD 021e01H
	DD	07006520aH
; Function compile flags: /Odtp /RTCsu
xdata	ENDS
;	COMDAT ?max_size@?$basic_string@DU?$char_traits@D@std@@V?$allocator@D@2@@std@@QEBA_KXZ
_TEXT	SEGMENT
_Num$ = 32
tv73 = 40
this$ = 64
?max_size@?$basic_string@DU?$char_traits@D@std@@V?$allocator@D@2@@std@@QEBA_KXZ PROC ; std::basic_string<char,std::char_traits<char>,std::allocator<char> >::max_size, COMDAT
; Line 1516
$LN5:
	mov	QWORD PTR [rsp+8], rcx
	push	rdi
	sub	rsp, 48					; 00000030H
	mov	rdi, rsp
	mov	ecx, 12
	mov	eax, -858993460				; ccccccccH
	rep stosd
	mov	rcx, QWORD PTR [rsp+64]
; Line 1517
	mov	rax, QWORD PTR this$[rsp]
	add	rax, 40					; 00000028H
	mov	rcx, rax
	call	?max_size@?$allocator@D@std@@QEBA_KXZ	; std::allocator<char>::max_size
	mov	QWORD PTR _Num$[rsp], rax
; Line 1518
	cmp	QWORD PTR _Num$[rsp], 1
	ja	SHORT $LN3@max_size
	mov	QWORD PTR tv73[rsp], 1
	jmp	SHORT $LN4@max_size
$LN3@max_size:
	mov	rax, QWORD PTR _Num$[rsp]
	dec	rax
	mov	QWORD PTR tv73[rsp], rax
$LN4@max_size:
	mov	rax, QWORD PTR tv73[rsp]
; Line 1519
	add	rsp, 48					; 00000030H
	pop	rdi
	ret	0
?max_size@?$basic_string@DU?$char_traits@D@std@@V?$allocator@D@2@@std@@QEBA_KXZ ENDP ; std::basic_string<char,std::char_traits<char>,std::allocator<char> >::max_size
_TEXT	ENDS
PUBLIC	?allocate@?$allocator@D@std@@QEAAPEAD_K@Z	; std::allocator<char>::allocate
EXTRN	__CxxFrameHandler3:PROC
EXTRN	_CxxThrowException:PROC
;	COMDAT pdata
pdata	SEGMENT
$pdata$?_Copy@?$basic_string@DU?$char_traits@D@std@@V?$allocator@D@2@@std@@QEAAX_K0@Z DD imagerel $LN22
	DD	imagerel $LN22+398
	DD	imagerel $unwind$?_Copy@?$basic_string@DU?$char_traits@D@std@@V?$allocator@D@2@@std@@QEAAX_K0@Z
pdata	ENDS
;	COMDAT pdata
pdata	SEGMENT
$pdata$?catch$1@?0??_Copy@?$basic_string@DU?$char_traits@D@std@@V?$allocator@D@2@@std@@QEAAX_K0@Z@4HA DD imagerel ?catch$1@?0??_Copy@?$basic_string@DU?$char_traits@D@std@@V?$allocator@D@2@@std@@QEAAX_K0@Z@4HA
	DD	imagerel ?catch$1@?0??_Copy@?$basic_string@DU?$char_traits@D@std@@V?$allocator@D@2@@std@@QEAAX_K0@Z@4HA+77
	DD	imagerel $unwind$?catch$1@?0??_Copy@?$basic_string@DU?$char_traits@D@std@@V?$allocator@D@2@@std@@QEAAX_K0@Z@4HA
pdata	ENDS
;	COMDAT pdata
pdata	SEGMENT
$pdata$?catch$0@?0??_Copy@?$basic_string@DU?$char_traits@D@std@@V?$allocator@D@2@@std@@QEAAX_K0@Z@4HA DD imagerel ?catch$0@?0??_Copy@?$basic_string@DU?$char_traits@D@std@@V?$allocator@D@2@@std@@QEAAX_K0@Z@4HA
	DD	imagerel ?catch$0@?0??_Copy@?$basic_string@DU?$char_traits@D@std@@V?$allocator@D@2@@std@@QEAAX_K0@Z@4HA+58
	DD	imagerel $unwind$?catch$0@?0??_Copy@?$basic_string@DU?$char_traits@D@std@@V?$allocator@D@2@@std@@QEAAX_K0@Z@4HA
pdata	ENDS
;	COMDAT xdata
xdata	SEGMENT
$ip2state$?_Copy@?$basic_string@DU?$char_traits@D@std@@V?$allocator@D@2@@std@@QEAAX_K0@Z DD imagerel ?_Copy@?$basic_string@DU?$char_traits@D@std@@V?$allocator@D@2@@std@@QEAAX_K0@Z
	DD	0ffffffffH
	DD	imagerel ?_Copy@?$basic_string@DU?$char_traits@D@std@@V?$allocator@D@2@@std@@QEAAX_K0@Z+249
	DD	00H
	DD	imagerel ?_Copy@?$basic_string@DU?$char_traits@D@std@@V?$allocator@D@2@@std@@QEAAX_K0@Z+289
	DD	0ffffffffH
	DD	imagerel ?catch$1@?0??_Copy@?$basic_string@DU?$char_traits@D@std@@V?$allocator@D@2@@std@@QEAAX_K0@Z@4HA
	DD	00H
	DD	imagerel ?catch$1@?0??_Copy@?$basic_string@DU?$char_traits@D@std@@V?$allocator@D@2@@std@@QEAAX_K0@Z@4HA+19
	DD	01H
	DD	imagerel ?catch$1@?0??_Copy@?$basic_string@DU?$char_traits@D@std@@V?$allocator@D@2@@std@@QEAAX_K0@Z@4HA+27
	DD	02H
	DD	imagerel ?catch$1@?0??_Copy@?$basic_string@DU?$char_traits@D@std@@V?$allocator@D@2@@std@@QEAAX_K0@Z@4HA+62
	DD	00H
	DD	imagerel ?catch$0@?0??_Copy@?$basic_string@DU?$char_traits@D@std@@V?$allocator@D@2@@std@@QEAAX_K0@Z@4HA+19
	DD	03H
	DD	imagerel ?catch$0@?0??_Copy@?$basic_string@DU?$char_traits@D@std@@V?$allocator@D@2@@std@@QEAAX_K0@Z@4HA+43
	DD	00H
xdata	ENDS
;	COMDAT xdata
xdata	SEGMENT
$unwind$?catch$0@?0??_Copy@?$basic_string@DU?$char_traits@D@std@@V?$allocator@D@2@@std@@QEAAX_K0@Z@4HA DD 031019H
	DD	0700c4210H
	DD	0500bH
	DD	imagerel __CxxFrameHandler3
	DD	imagerel $cppxdata$?_Copy@?$basic_string@DU?$char_traits@D@std@@V?$allocator@D@2@@std@@QEAAX_K0@Z
xdata	ENDS
;	COMDAT xdata
xdata	SEGMENT
$unwind$?catch$1@?0??_Copy@?$basic_string@DU?$char_traits@D@std@@V?$allocator@D@2@@std@@QEAAX_K0@Z@4HA DD 031019H
	DD	0700c4210H
	DD	0500bH
	DD	imagerel __CxxFrameHandler3
	DD	imagerel $cppxdata$?_Copy@?$basic_string@DU?$char_traits@D@std@@V?$allocator@D@2@@std@@QEAAX_K0@Z
xdata	ENDS
;	COMDAT xdata
xdata	SEGMENT
$unwind$?_Copy@?$basic_string@DU?$char_traits@D@std@@V?$allocator@D@2@@std@@QEAAX_K0@Z DD 023119H
	DD	07010b214H
	DD	imagerel __CxxFrameHandler3
	DD	imagerel $cppxdata$?_Copy@?$basic_string@DU?$char_traits@D@std@@V?$allocator@D@2@@std@@QEAAX_K0@Z
xdata	ENDS
;	COMDAT CONST
CONST	SEGMENT
$cppxdata$?_Copy@?$basic_string@DU?$char_traits@D@std@@V?$allocator@D@2@@std@@QEAAX_K0@Z DD 019930522H
	DD	04H
	DD	imagerel $stateUnwindMap$?_Copy@?$basic_string@DU?$char_traits@D@std@@V?$allocator@D@2@@std@@QEAAX_K0@Z
	DD	02H
	DD	imagerel $tryMap$?_Copy@?$basic_string@DU?$char_traits@D@std@@V?$allocator@D@2@@std@@QEAAX_K0@Z
	DD	09H
	DD	imagerel $ip2state$?_Copy@?$basic_string@DU?$char_traits@D@std@@V?$allocator@D@2@@std@@QEAAX_K0@Z
	DD	030H
	DD	00H
	DD	01H
CONST	ENDS
;	COMDAT xdata
xdata	SEGMENT
$tryMap$?_Copy@?$basic_string@DU?$char_traits@D@std@@V?$allocator@D@2@@std@@QEAAX_K0@Z DD 00H
	DD	00H
	DD	03H
	DD	01H
	DD	imagerel $handlerMap$0$?_Copy@?$basic_string@DU?$char_traits@D@std@@V?$allocator@D@2@@std@@QEAAX_K0@Z
	DD	02H
	DD	02H
	DD	03H
	DD	01H
	DD	imagerel $handlerMap$1$?_Copy@?$basic_string@DU?$char_traits@D@std@@V?$allocator@D@2@@std@@QEAAX_K0@Z
xdata	ENDS
;	COMDAT xdata
xdata	SEGMENT
$handlerMap$1$?_Copy@?$basic_string@DU?$char_traits@D@std@@V?$allocator@D@2@@std@@QEAAX_K0@Z DD 040H
	DD	00H
	DD	00H
	DD	imagerel ?catch$0@?0??_Copy@?$basic_string@DU?$char_traits@D@std@@V?$allocator@D@2@@std@@QEAAX_K0@Z@4HA
	DD	048H
xdata	ENDS
;	COMDAT xdata
xdata	SEGMENT
$handlerMap$0$?_Copy@?$basic_string@DU?$char_traits@D@std@@V?$allocator@D@2@@std@@QEAAX_K0@Z DD 040H
	DD	00H
	DD	00H
	DD	imagerel ?catch$1@?0??_Copy@?$basic_string@DU?$char_traits@D@std@@V?$allocator@D@2@@std@@QEAAX_K0@Z@4HA
	DD	048H
xdata	ENDS
;	COMDAT xdata
xdata	SEGMENT
$stateUnwindMap$?_Copy@?$basic_string@DU?$char_traits@D@std@@V?$allocator@D@2@@std@@QEAAX_K0@Z DD 0ffffffffH
	DD	00H
	DD	0ffffffffH
	DD	00H
	DD	01H
	DD	00H
	DD	01H
	DD	00H
; Function compile flags: /Odtp /RTCsu
xdata	ENDS
;	COMDAT ?_Copy@?$basic_string@DU?$char_traits@D@std@@V?$allocator@D@2@@std@@QEAAX_K0@Z
_TEXT	SEGMENT
_Newres$ = 32
_Ptr$ = 40
$T27756 = 48
tv74 = 56
tv88 = 64
tv184 = 72
tv185 = 80
this$ = 112
_Newsize$ = 120
_Oldlen$ = 128
?_Copy@?$basic_string@DU?$char_traits@D@std@@V?$allocator@D@2@@std@@QEAAX_K0@Z PROC ; std::basic_string<char,std::char_traits<char>,std::allocator<char> >::_Copy, COMDAT
; Line 1919
$LN22:
	mov	QWORD PTR [rsp+24], r8
	mov	QWORD PTR [rsp+16], rdx
	mov	QWORD PTR [rsp+8], rcx
	push	rdi
	sub	rsp, 96					; 00000060H
	mov	rdi, rsp
	mov	ecx, 24
	mov	eax, -858993460				; ccccccccH
	rep stosd
	mov	rcx, QWORD PTR [rsp+112]
	mov	QWORD PTR $T27756[rsp], -2
; Line 1920
	mov	rax, QWORD PTR _Newsize$[rsp]
	or	rax, 15
	mov	QWORD PTR _Newres$[rsp], rax
; Line 1921
	mov	rcx, QWORD PTR this$[rsp]
	call	?max_size@?$basic_string@DU?$char_traits@D@std@@V?$allocator@D@2@@std@@QEBA_KXZ ; std::basic_string<char,std::char_traits<char>,std::allocator<char> >::max_size
	cmp	rax, QWORD PTR _Newres$[rsp]
	jae	SHORT $LN9@Copy
; Line 1922
	mov	rax, QWORD PTR _Newsize$[rsp]
	mov	QWORD PTR _Newres$[rsp], rax
	jmp	$LN8@Copy
$LN9@Copy:
; Line 1923
	xor	edx, edx
	mov	rax, QWORD PTR _Newres$[rsp]
	mov	ecx, 3
	div	rcx
	mov	QWORD PTR tv74[rsp], rax
	xor	edx, edx
	mov	rcx, QWORD PTR this$[rsp]
	mov	rax, QWORD PTR [rcx+32]
	mov	ecx, 2
	div	rcx
	mov	rcx, QWORD PTR tv74[rsp]
	cmp	rax, rcx
	ja	SHORT $LN7@Copy
	jmp	SHORT $LN8@Copy
$LN7@Copy:
; Line 1925
	xor	edx, edx
	mov	rax, QWORD PTR this$[rsp]
	mov	rax, QWORD PTR [rax+32]
	mov	ecx, 2
	div	rcx
	mov	QWORD PTR tv88[rsp], rax
	mov	rcx, QWORD PTR this$[rsp]
	call	?max_size@?$basic_string@DU?$char_traits@D@std@@V?$allocator@D@2@@std@@QEBA_KXZ ; std::basic_string<char,std::char_traits<char>,std::allocator<char> >::max_size
	mov	rcx, QWORD PTR tv88[rsp]
	sub	rax, rcx
	mov	rcx, QWORD PTR this$[rsp]
	cmp	QWORD PTR [rcx+32], rax
	ja	SHORT $LN5@Copy
; Line 1927
	xor	edx, edx
	mov	rax, QWORD PTR this$[rsp]
	mov	rax, QWORD PTR [rax+32]
	mov	ecx, 2
	div	rcx
	mov	rcx, QWORD PTR this$[rsp]
	add	rax, QWORD PTR [rcx+32]
	mov	QWORD PTR _Newres$[rsp], rax
; Line 1928
	jmp	SHORT $LN8@Copy
$LN5@Copy:
; Line 1929
	mov	rcx, QWORD PTR this$[rsp]
	call	?max_size@?$basic_string@DU?$char_traits@D@std@@V?$allocator@D@2@@std@@QEBA_KXZ ; std::basic_string<char,std::char_traits<char>,std::allocator<char> >::max_size
	mov	QWORD PTR _Newres$[rsp], rax
$LN8@Copy:
; Line 1933
	mov	rax, QWORD PTR _Newres$[rsp]
	inc	rax
	mov	rcx, QWORD PTR this$[rsp]
	add	rcx, 40					; 00000028H
	mov	rdx, rax
	call	?allocate@?$allocator@D@std@@QEAAPEAD_K@Z ; std::allocator<char>::allocate
	mov	QWORD PTR tv184[rsp], rax
	mov	rax, QWORD PTR tv184[rsp]
	mov	QWORD PTR _Ptr$[rsp], rax
$LN19@Copy:
; Line 1944
	cmp	QWORD PTR _Oldlen$[rsp], 0
	jbe	SHORT $LN1@Copy
; Line 1945
	mov	rcx, QWORD PTR this$[rsp]
	call	?_Myptr@?$basic_string@DU?$char_traits@D@std@@V?$allocator@D@2@@std@@QEAAPEADXZ ; std::basic_string<char,std::char_traits<char>,std::allocator<char> >::_Myptr
	mov	r8, QWORD PTR _Oldlen$[rsp]
	mov	rdx, rax
	mov	rcx, QWORD PTR _Ptr$[rsp]
	call	?copy@?$char_traits@D@std@@SAPEADPEADPEBD_K@Z ; std::char_traits<char>::copy
$LN1@Copy:
; Line 1946
	xor	r8d, r8d
	mov	dl, 1
	mov	rcx, QWORD PTR this$[rsp]
	call	?_Tidy@?$basic_string@DU?$char_traits@D@std@@V?$allocator@D@2@@std@@QEAAX_N_K@Z ; std::basic_string<char,std::char_traits<char>,std::allocator<char> >::_Tidy
; Line 1947
	mov	rax, QWORD PTR this$[rsp]
	mov	rcx, QWORD PTR _Ptr$[rsp]
	mov	QWORD PTR [rax+8], rcx
; Line 1948
	mov	rax, QWORD PTR this$[rsp]
	mov	rcx, QWORD PTR _Newres$[rsp]
	mov	QWORD PTR [rax+32], rcx
; Line 1949
	mov	rdx, QWORD PTR _Oldlen$[rsp]
	mov	rcx, QWORD PTR this$[rsp]
	call	?_Eos@?$basic_string@DU?$char_traits@D@std@@V?$allocator@D@2@@std@@QEAAX_K@Z ; std::basic_string<char,std::char_traits<char>,std::allocator<char> >::_Eos
$LN11@Copy:
; Line 1950
	add	rsp, 96					; 00000060H
	pop	rdi
	ret	0
?_Copy@?$basic_string@DU?$char_traits@D@std@@V?$allocator@D@2@@std@@QEAAX_K0@Z ENDP ; std::basic_string<char,std::char_traits<char>,std::allocator<char> >::_Copy
; Function compile flags: /Odtp /RTCsu
_TEXT	ENDS
;	COMDAT text$x
text$x	SEGMENT
_Newres$ = 32
_Ptr$ = 40
$T27756 = 48
tv74 = 56
tv88 = 64
tv184 = 72
tv185 = 80
this$ = 112
_Newsize$ = 120
_Oldlen$ = 128
?catch$1@?0??_Copy@?$basic_string@DU?$char_traits@D@std@@V?$allocator@D@2@@std@@QEAAX_K0@Z@4HA PROC ; `std::basic_string<char,std::char_traits<char>,std::allocator<char> >::_Copy'::`1'::catch$1
; Line 1934
	mov	QWORD PTR [rsp+8], rcx
	mov	QWORD PTR [rsp+16], rdx
	push	rbp
	push	rdi
	sub	rsp, 40					; 00000028H
	mov	rbp, rdx
__catch$?_Copy@?$basic_string@DU?$char_traits@D@std@@V?$allocator@D@2@@std@@QEAAX_K0@Z$0:
; Line 1935
	mov	rax, QWORD PTR _Newsize$[rbp]
	mov	QWORD PTR _Newres$[rbp], rax
; Line 1937
	mov	rax, QWORD PTR _Newres$[rbp]
	inc	rax
	mov	rcx, QWORD PTR this$[rbp]
	add	rcx, 40					; 00000028H
	mov	rdx, rax
	call	?allocate@?$allocator@D@std@@QEAAPEAD_K@Z ; std::allocator<char>::allocate
	mov	QWORD PTR tv185[rbp], rax
	mov	rax, QWORD PTR tv185[rbp]
	mov	QWORD PTR _Ptr$[rbp], rax
$LN17@catch$1:
; Line 1942
	lea	rax, $LN19@catch$1
	add	rsp, 40					; 00000028H
	pop	rdi
	pop	rbp
	ret	0
	int	3
?catch$1@?0??_Copy@?$basic_string@DU?$char_traits@D@std@@V?$allocator@D@2@@std@@QEAAX_K0@Z@4HA ENDP ; `std::basic_string<char,std::char_traits<char>,std::allocator<char> >::_Copy'::`1'::catch$1
; Function compile flags: /Odtp /RTCsu
_Newres$ = 32
_Ptr$ = 40
$T27756 = 48
tv74 = 56
tv88 = 64
tv184 = 72
tv185 = 80
this$ = 112
_Newsize$ = 120
_Oldlen$ = 128
?catch$0@?0??_Copy@?$basic_string@DU?$char_traits@D@std@@V?$allocator@D@2@@std@@QEAAX_K0@Z@4HA PROC ; `std::basic_string<char,std::char_traits<char>,std::allocator<char> >::_Copy'::`1'::catch$0
; Line 1938
	mov	QWORD PTR [rsp+8], rcx
	mov	QWORD PTR [rsp+16], rdx
	push	rbp
	push	rdi
	sub	rsp, 40					; 00000028H
	mov	rbp, rdx
__catch$?_Copy@?$basic_string@DU?$char_traits@D@std@@V?$allocator@D@2@@std@@QEAAX_K0@Z$1:
; Line 1939
	xor	r8d, r8d
	mov	dl, 1
	mov	rcx, QWORD PTR this$[rbp]
	call	?_Tidy@?$basic_string@DU?$char_traits@D@std@@V?$allocator@D@2@@std@@QEAAX_N_K@Z ; std::basic_string<char,std::char_traits<char>,std::allocator<char> >::_Tidy
; Line 1940
	xor	edx, edx
	xor	ecx, ecx
	call	_CxxThrowException
	npad	1
; Line 1941
	lea	rax, $LN17@catch$0
	add	rsp, 40					; 00000028H
	pop	rdi
	pop	rbp
	ret	0
	int	3
?catch$0@?0??_Copy@?$basic_string@DU?$char_traits@D@std@@V?$allocator@D@2@@std@@QEAAX_K0@Z@4HA ENDP ; `std::basic_string<char,std::char_traits<char>,std::allocator<char> >::_Copy'::`1'::catch$0
text$x	ENDS
PUBLIC	??$_Allocate@D@std@@YAPEAD_KPEAD@Z		; std::_Allocate<char>
;	COMDAT pdata
; File c:\program files (x86)\microsoft visual studio 10.0\vc\include\xmemory
pdata	SEGMENT
$pdata$?allocate@?$allocator@D@std@@QEAAPEAD_K@Z DD imagerel $LN3
	DD	imagerel $LN3+53
	DD	imagerel $unwind$?allocate@?$allocator@D@std@@QEAAPEAD_K@Z
pdata	ENDS
;	COMDAT xdata
xdata	SEGMENT
$unwind$?allocate@?$allocator@D@std@@QEAAPEAD_K@Z DD 022301H
	DD	0700b320fH
; Function compile flags: /Odtp /RTCsu
xdata	ENDS
;	COMDAT ?allocate@?$allocator@D@std@@QEAAPEAD_K@Z
_TEXT	SEGMENT
this$ = 48
_Count$ = 56
?allocate@?$allocator@D@std@@QEAAPEAD_K@Z PROC		; std::allocator<char>::allocate, COMDAT
; Line 186
$LN3:
	mov	QWORD PTR [rsp+16], rdx
	mov	QWORD PTR [rsp+8], rcx
	push	rdi
	sub	rsp, 32					; 00000020H
	mov	rdi, rsp
	mov	ecx, 8
	mov	eax, -858993460				; ccccccccH
	rep stosd
	mov	rcx, QWORD PTR [rsp+48]
; Line 187
	xor	edx, edx
	mov	rcx, QWORD PTR _Count$[rsp]
	call	??$_Allocate@D@std@@YAPEAD_KPEAD@Z	; std::_Allocate<char>
; Line 188
	add	rsp, 32					; 00000020H
	pop	rdi
	ret	0
?allocate@?$allocator@D@std@@QEAAPEAD_K@Z ENDP		; std::allocator<char>::allocate
_TEXT	ENDS
;	COMDAT pdata
pdata	SEGMENT
$pdata$?max_size@?$allocator@D@std@@QEBA_KXZ DD imagerel $LN5
	DD	imagerel $LN5+76
	DD	imagerel $unwind$?max_size@?$allocator@D@std@@QEBA_KXZ
pdata	ENDS
;	COMDAT xdata
xdata	SEGMENT
$unwind$?max_size@?$allocator@D@std@@QEBA_KXZ DD 021e01H
	DD	07006120aH
; Function compile flags: /Odtp /RTCsu
xdata	ENDS
;	COMDAT ?max_size@?$allocator@D@std@@QEBA_KXZ
_TEXT	SEGMENT
_Count$ = 0
tv65 = 8
this$ = 32
?max_size@?$allocator@D@std@@QEBA_KXZ PROC		; std::allocator<char>::max_size, COMDAT
; Line 217
$LN5:
	mov	QWORD PTR [rsp+8], rcx
	push	rdi
	sub	rsp, 16
	mov	rdi, rsp
	mov	ecx, 4
	mov	eax, -858993460				; ccccccccH
	rep stosd
	mov	rcx, QWORD PTR [rsp+32]
; Line 218
	mov	QWORD PTR _Count$[rsp], -1
; Line 219
	cmp	QWORD PTR _Count$[rsp], 0
	jbe	SHORT $LN3@max_size@2
	mov	rax, QWORD PTR _Count$[rsp]
	mov	QWORD PTR tv65[rsp], rax
	jmp	SHORT $LN4@max_size@2
$LN3@max_size@2:
	mov	QWORD PTR tv65[rsp], 1
$LN4@max_size@2:
	mov	rax, QWORD PTR tv65[rsp]
; Line 220
	add	rsp, 16
	pop	rdi
	ret	0
?max_size@?$allocator@D@std@@QEBA_KXZ ENDP		; std::allocator<char>::max_size
_TEXT	ENDS
EXTRN	vsprintf_s:PROC
;	COMDAT pdata
; File c:\program files (x86)\microsoft visual studio 10.0\vc\include\stdio.h
pdata	SEGMENT
$pdata$??$sprintf_s@$0EAA@@@YAHAEAY0EAA@DPEBDZZ DD imagerel $LN3
	DD	imagerel $LN3+107
	DD	imagerel $unwind$??$sprintf_s@$0EAA@@@YAHAEAY0EAA@DPEBDZZ
pdata	ENDS
;	COMDAT xdata
xdata	SEGMENT
$unwind$??$sprintf_s@$0EAA@@@YAHAEAY0EAA@DPEBDZZ DD 022d01H
	DD	070157219H
xdata	ENDS
;	COMDAT CONST
CONST	SEGMENT
??$sprintf_s@$0EAA@@@YAHAEAY0EAA@DPEBDZZ$rtcName$0 DB 05fH ; sprintf_s<1024>
	DB	041H
	DB	072H
	DB	067H
	DB	04cH
	DB	069H
	DB	073H
	DB	074H
	DB	00H
	ORG $+7
??$sprintf_s@$0EAA@@@YAHAEAY0EAA@DPEBDZZ$rtcVarDesc DD 028H ; sprintf_s<1024>
	DD	08H
	DQ	FLAT:??$sprintf_s@$0EAA@@@YAHAEAY0EAA@DPEBDZZ$rtcName$0
	ORG $+48
??$sprintf_s@$0EAA@@@YAHAEAY0EAA@DPEBDZZ$rtcFrameData DD 01H ; sprintf_s<1024>
	DD	00H
	DQ	FLAT:??$sprintf_s@$0EAA@@@YAHAEAY0EAA@DPEBDZZ$rtcVarDesc
; Function compile flags: /Odtp /RTCsu
CONST	ENDS
;	COMDAT ??$sprintf_s@$0EAA@@@YAHAEAY0EAA@DPEBDZZ
_TEXT	SEGMENT
_ArgList$ = 40
_Dest$ = 80
_Format$ = 88
??$sprintf_s@$0EAA@@@YAHAEAY0EAA@DPEBDZZ PROC		; sprintf_s<1024>, COMDAT
; Line 323
$LN3:
	mov	QWORD PTR [rsp+16], rdx
	mov	QWORD PTR [rsp+8], rcx
	mov	QWORD PTR [rsp+24], r8
	mov	QWORD PTR [rsp+32], r9
	push	rdi
	sub	rsp, 64					; 00000040H
	mov	rdi, rsp
	mov	ecx, 16
	mov	eax, -858993460				; ccccccccH
	rep stosd
	mov	rcx, QWORD PTR [rsp+80]
	lea	rax, QWORD PTR _Format$[rsp+8]
	mov	QWORD PTR _ArgList$[rsp], rax
	mov	r9, QWORD PTR _ArgList$[rsp]
	mov	r8, QWORD PTR _Format$[rsp]
	mov	edx, 1024				; 00000400H
	mov	rcx, QWORD PTR _Dest$[rsp]
	call	vsprintf_s
	mov	rdi, rax
	mov	rcx, rsp
	lea	rdx, OFFSET FLAT:??$sprintf_s@$0EAA@@@YAHAEAY0EAA@DPEBDZZ$rtcFrameData
	call	_RTC_CheckStackVars
	mov	rax, rdi
	add	rsp, 64					; 00000040H
	pop	rdi
	ret	0
??$sprintf_s@$0EAA@@@YAHAEAY0EAA@DPEBDZZ ENDP		; sprintf_s<1024>
_TEXT	ENDS
PUBLIC	??_C@_1CK@EOPGIILJ@?$AAi?$AAn?$AAv?$AAa?$AAl?$AAi?$AAd?$AA?5?$AAn?$AAu?$AAl?$AAl?$AA?5?$AAp?$AAo?$AAi?$AAn?$AAt?$AAe?$AAr?$AA?$AA@ ; `string'
EXTRN	?_Debug_message@std@@YAXPEB_W0I@Z:PROC		; std::_Debug_message
;	COMDAT pdata
; File c:\program files (x86)\microsoft visual studio 10.0\vc\include\xutility
pdata	SEGMENT
$pdata$??$_Debug_pointer@D@std@@YAXPEBDPEB_WI@Z DD imagerel $LN4
	DD	imagerel $LN4+76
	DD	imagerel $unwind$??$_Debug_pointer@D@std@@YAXPEBDPEB_WI@Z
pdata	ENDS
;	COMDAT xdata
xdata	SEGMENT
$unwind$??$_Debug_pointer@D@std@@YAXPEBDPEB_WI@Z DD 022801H
	DD	070103214H
xdata	ENDS
;	COMDAT ??_C@_1CK@EOPGIILJ@?$AAi?$AAn?$AAv?$AAa?$AAl?$AAi?$AAd?$AA?5?$AAn?$AAu?$AAl?$AAl?$AA?5?$AAp?$AAo?$AAi?$AAn?$AAt?$AAe?$AAr?$AA?$AA@
CONST	SEGMENT
??_C@_1CK@EOPGIILJ@?$AAi?$AAn?$AAv?$AAa?$AAl?$AAi?$AAd?$AA?5?$AAn?$AAu?$AAl?$AAl?$AA?5?$AAp?$AAo?$AAi?$AAn?$AAt?$AAe?$AAr?$AA?$AA@ DB 'i'
	DB	00H, 'n', 00H, 'v', 00H, 'a', 00H, 'l', 00H, 'i', 00H, 'd', 00H
	DB	' ', 00H, 'n', 00H, 'u', 00H, 'l', 00H, 'l', 00H, ' ', 00H, 'p'
	DB	00H, 'o', 00H, 'i', 00H, 'n', 00H, 't', 00H, 'e', 00H, 'r', 00H
	DB	00H, 00H					; `string'
; Function compile flags: /Odtp /RTCsu
CONST	ENDS
;	COMDAT ??$_Debug_pointer@D@std@@YAXPEBDPEB_WI@Z
_TEXT	SEGMENT
_First$ = 48
_File$ = 56
_Line$ = 64
??$_Debug_pointer@D@std@@YAXPEBDPEB_WI@Z PROC		; std::_Debug_pointer<char>, COMDAT
; Line 689
$LN4:
	mov	DWORD PTR [rsp+24], r8d
	mov	QWORD PTR [rsp+16], rdx
	mov	QWORD PTR [rsp+8], rcx
	push	rdi
	sub	rsp, 32					; 00000020H
	mov	rdi, rsp
	mov	ecx, 8
	mov	eax, -858993460				; ccccccccH
	rep stosd
	mov	rcx, QWORD PTR [rsp+48]
; Line 690
	cmp	QWORD PTR _First$[rsp], 0
	jne	SHORT $LN1@Debug_poin
; Line 691
	mov	r8d, DWORD PTR _Line$[rsp]
	mov	rdx, QWORD PTR _File$[rsp]
	lea	rcx, OFFSET FLAT:??_C@_1CK@EOPGIILJ@?$AAi?$AAn?$AAv?$AAa?$AAl?$AAi?$AAd?$AA?5?$AAn?$AAu?$AAl?$AAl?$AA?5?$AAp?$AAo?$AAi?$AAn?$AAt?$AAe?$AAr?$AA?$AA@
	call	?_Debug_message@std@@YAXPEB_W0I@Z	; std::_Debug_message
$LN1@Debug_poin:
; Line 692
	add	rsp, 32					; 00000020H
	pop	rdi
	ret	0
??$_Debug_pointer@D@std@@YAXPEBDPEB_WI@Z ENDP		; std::_Debug_pointer<char>
_TEXT	ENDS
PUBLIC	_TI2?AVbad_alloc@std@@
PUBLIC	??0bad_alloc@std@@QEAA@PEBD@Z			; std::bad_alloc::bad_alloc
PUBLIC	??1bad_alloc@std@@UEAA@XZ			; std::bad_alloc::~bad_alloc
PUBLIC	_CTA2?AVbad_alloc@std@@
PUBLIC	_CT??_R0?AVbad_alloc@std@@@8??0bad_alloc@std@@QEAA@AEBV01@@Z24
PUBLIC	??_R0?AVbad_alloc@std@@@8			; std::bad_alloc `RTTI Type Descriptor'
PUBLIC	??0bad_alloc@std@@QEAA@AEBV01@@Z		; std::bad_alloc::bad_alloc
PUBLIC	_CT??_R0?AVexception@std@@@8??0exception@std@@QEAA@AEBV01@@Z24
PUBLIC	??_R0?AVexception@std@@@8			; std::exception `RTTI Type Descriptor'
EXTRN	??2@YAPEAX_K@Z:PROC				; operator new
EXTRN	??_7type_info@@6B@:BYTE				; type_info::`vftable'
EXTRN	??0exception@std@@QEAA@AEBV01@@Z:PROC		; std::exception::exception
;	COMDAT pdata
; File c:\program files (x86)\microsoft visual studio 10.0\vc\include\xmemory
pdata	SEGMENT
$pdata$??$_Allocate@D@std@@YAPEAD_KPEAD@Z DD imagerel $LN7
	DD	imagerel $LN7+134
	DD	imagerel $unwind$??$_Allocate@D@std@@YAPEAD_KPEAD@Z
pdata	ENDS
;	COMDAT ??_R0?AVexception@std@@@8
_DATA	SEGMENT
??_R0?AVexception@std@@@8 DQ FLAT:??_7type_info@@6B@	; std::exception `RTTI Type Descriptor'
	DQ	0000000000000000H
	DB	'.?AVexception@std@@', 00H
_DATA	ENDS
;	COMDAT _CT??_R0?AVexception@std@@@8??0exception@std@@QEAA@AEBV01@@Z24
xdata$x	SEGMENT
_CT??_R0?AVexception@std@@@8??0exception@std@@QEAA@AEBV01@@Z24 DD 00H
	DD	imagerel ??_R0?AVexception@std@@@8
	DD	00H
	DD	0ffffffffH
	ORG $+4
	DD	018H
	DD	imagerel ??0exception@std@@QEAA@AEBV01@@Z
xdata$x	ENDS
;	COMDAT ??_R0?AVbad_alloc@std@@@8
_DATA	SEGMENT
??_R0?AVbad_alloc@std@@@8 DQ FLAT:??_7type_info@@6B@	; std::bad_alloc `RTTI Type Descriptor'
	DQ	0000000000000000H
	DB	'.?AVbad_alloc@std@@', 00H
_DATA	ENDS
;	COMDAT _CT??_R0?AVbad_alloc@std@@@8??0bad_alloc@std@@QEAA@AEBV01@@Z24
xdata$x	SEGMENT
_CT??_R0?AVbad_alloc@std@@@8??0bad_alloc@std@@QEAA@AEBV01@@Z24 DD 00H
	DD	imagerel ??_R0?AVbad_alloc@std@@@8
	DD	00H
	DD	0ffffffffH
	ORG $+4
	DD	018H
	DD	imagerel ??0bad_alloc@std@@QEAA@AEBV01@@Z
xdata$x	ENDS
;	COMDAT _CTA2?AVbad_alloc@std@@
xdata$x	SEGMENT
_CTA2?AVbad_alloc@std@@ DD 02H
	DD	imagerel _CT??_R0?AVbad_alloc@std@@@8??0bad_alloc@std@@QEAA@AEBV01@@Z24
	DD	imagerel _CT??_R0?AVexception@std@@@8??0exception@std@@QEAA@AEBV01@@Z24
xdata$x	ENDS
;	COMDAT xdata
xdata	SEGMENT
$unwind$??$_Allocate@D@std@@YAPEAD_KPEAD@Z DD 022301H
	DD	0700b720fH
xdata	ENDS
;	COMDAT _TI2?AVbad_alloc@std@@
xdata$x	SEGMENT
_TI2?AVbad_alloc@std@@ DD 00H
	DD	imagerel ??1bad_alloc@std@@UEAA@XZ
	DD	00H
	DD	imagerel _CTA2?AVbad_alloc@std@@
; Function compile flags: /Odtp /RTCsu
xdata$x	ENDS
;	COMDAT ??$_Allocate@D@std@@YAPEAD_KPEAD@Z
_TEXT	SEGMENT
_Ptr$ = 32
$T27825 = 40
_Count$ = 80
__formal$ = 88
??$_Allocate@D@std@@YAPEAD_KPEAD@Z PROC			; std::_Allocate<char>, COMDAT
; Line 30
$LN7:
	mov	QWORD PTR [rsp+16], rdx
	mov	QWORD PTR [rsp+8], rcx
	push	rdi
	sub	rsp, 64					; 00000040H
	mov	rdi, rsp
	mov	ecx, 16
	mov	eax, -858993460				; ccccccccH
	rep stosd
	mov	rcx, QWORD PTR [rsp+80]
; Line 31
	mov	QWORD PTR _Ptr$[rsp], 0
; Line 33
	cmp	QWORD PTR _Count$[rsp], 0
	ja	SHORT $LN4@Allocate
; Line 34
	mov	QWORD PTR _Count$[rsp], 0
; Line 35
	jmp	SHORT $LN3@Allocate
$LN4@Allocate:
; Line 36
	cmp	QWORD PTR _Count$[rsp], -1
	ja	SHORT $LN1@Allocate
	mov	rcx, QWORD PTR _Count$[rsp]
	call	??2@YAPEAX_K@Z				; operator new
	mov	QWORD PTR _Ptr$[rsp], rax
	cmp	QWORD PTR _Ptr$[rsp], 0
	jne	SHORT $LN2@Allocate
$LN1@Allocate:
; Line 37
	xor	edx, edx
	lea	rcx, QWORD PTR $T27825[rsp]
	call	??0bad_alloc@std@@QEAA@PEBD@Z		; std::bad_alloc::bad_alloc
	lea	rdx, OFFSET FLAT:_TI2?AVbad_alloc@std@@
	lea	rcx, QWORD PTR $T27825[rsp]
	call	_CxxThrowException
$LN2@Allocate:
$LN3@Allocate:
; Line 39
	mov	rax, QWORD PTR _Ptr$[rsp]
$LN6@Allocate:
; Line 40
	add	rsp, 64					; 00000040H
	pop	rdi
	ret	0
??$_Allocate@D@std@@YAPEAD_KPEAD@Z ENDP			; std::_Allocate<char>
_TEXT	ENDS
PUBLIC	??_7bad_alloc@std@@6B@				; std::bad_alloc::`vftable'
PUBLIC	??_R4bad_alloc@std@@6B@				; std::bad_alloc::`RTTI Complete Object Locator'
PUBLIC	??_R3bad_alloc@std@@8				; std::bad_alloc::`RTTI Class Hierarchy Descriptor'
PUBLIC	??_R2bad_alloc@std@@8				; std::bad_alloc::`RTTI Base Class Array'
PUBLIC	??_R1A@?0A@EA@bad_alloc@std@@8			; std::bad_alloc::`RTTI Base Class Descriptor at (0,-1,0,64)'
PUBLIC	??_R1A@?0A@EA@exception@std@@8			; std::exception::`RTTI Base Class Descriptor at (0,-1,0,64)'
PUBLIC	??_R3exception@std@@8				; std::exception::`RTTI Class Hierarchy Descriptor'
PUBLIC	??_R2exception@std@@8				; std::exception::`RTTI Base Class Array'
EXTRN	??0exception@std@@QEAA@AEBQEBD@Z:PROC		; std::exception::exception
EXTRN	??_Ebad_alloc@std@@UEAAPEAXI@Z:PROC		; std::bad_alloc::`vector deleting destructor'
EXTRN	?what@exception@std@@UEBAPEBDXZ:PROC		; std::exception::what
;	COMDAT pdata
; File c:\program files (x86)\microsoft visual studio 10.0\vc\include\exception
pdata	SEGMENT
$pdata$??0bad_alloc@std@@QEAA@PEBD@Z DD imagerel $LN3
	DD	imagerel $LN3+76
	DD	imagerel $unwind$??0bad_alloc@std@@QEAA@PEBD@Z
pdata	ENDS
;	COMDAT ??_R2exception@std@@8
rdata$r	SEGMENT
??_R2exception@std@@8 DD imagerel ??_R1A@?0A@EA@exception@std@@8 ; std::exception::`RTTI Base Class Array'
	ORG $+3
rdata$r	ENDS
;	COMDAT ??_R3exception@std@@8
rdata$r	SEGMENT
??_R3exception@std@@8 DD 00H				; std::exception::`RTTI Class Hierarchy Descriptor'
	DD	00H
	DD	01H
	DD	imagerel ??_R2exception@std@@8
rdata$r	ENDS
;	COMDAT ??_R1A@?0A@EA@exception@std@@8
rdata$r	SEGMENT
??_R1A@?0A@EA@exception@std@@8 DD imagerel ??_R0?AVexception@std@@@8 ; std::exception::`RTTI Base Class Descriptor at (0,-1,0,64)'
	DD	00H
	DD	00H
	DD	0ffffffffH
	DD	00H
	DD	040H
	DD	imagerel ??_R3exception@std@@8
rdata$r	ENDS
;	COMDAT ??_R1A@?0A@EA@bad_alloc@std@@8
rdata$r	SEGMENT
??_R1A@?0A@EA@bad_alloc@std@@8 DD imagerel ??_R0?AVbad_alloc@std@@@8 ; std::bad_alloc::`RTTI Base Class Descriptor at (0,-1,0,64)'
	DD	01H
	DD	00H
	DD	0ffffffffH
	DD	00H
	DD	040H
	DD	imagerel ??_R3bad_alloc@std@@8
rdata$r	ENDS
;	COMDAT ??_R2bad_alloc@std@@8
rdata$r	SEGMENT
??_R2bad_alloc@std@@8 DD imagerel ??_R1A@?0A@EA@bad_alloc@std@@8 ; std::bad_alloc::`RTTI Base Class Array'
	DD	imagerel ??_R1A@?0A@EA@exception@std@@8
	ORG $+3
rdata$r	ENDS
;	COMDAT ??_R3bad_alloc@std@@8
rdata$r	SEGMENT
??_R3bad_alloc@std@@8 DD 00H				; std::bad_alloc::`RTTI Class Hierarchy Descriptor'
	DD	00H
	DD	02H
	DD	imagerel ??_R2bad_alloc@std@@8
rdata$r	ENDS
;	COMDAT ??_R4bad_alloc@std@@6B@
rdata$r	SEGMENT
??_R4bad_alloc@std@@6B@ DD 01H				; std::bad_alloc::`RTTI Complete Object Locator'
	DD	00H
	DD	00H
	DD	imagerel ??_R0?AVbad_alloc@std@@@8
	DD	imagerel ??_R3bad_alloc@std@@8
	DD	imagerel ??_R4bad_alloc@std@@6B@
rdata$r	ENDS
;	COMDAT xdata
xdata	SEGMENT
$unwind$??0bad_alloc@std@@QEAA@PEBD@Z DD 022301H
	DD	0700b320fH
xdata	ENDS
;	COMDAT ??_7bad_alloc@std@@6B@
CONST	SEGMENT
??_7bad_alloc@std@@6B@ DQ FLAT:??_R4bad_alloc@std@@6B@	; std::bad_alloc::`vftable'
	DQ	FLAT:??_Ebad_alloc@std@@UEAAPEAXI@Z
	DQ	FLAT:?what@exception@std@@UEBAPEBDXZ
; Function compile flags: /Odtp /RTCsu
CONST	ENDS
;	COMDAT ??0bad_alloc@std@@QEAA@PEBD@Z
_TEXT	SEGMENT
this$ = 48
_Message$ = 56
??0bad_alloc@std@@QEAA@PEBD@Z PROC			; std::bad_alloc::bad_alloc, COMDAT
; Line 345
$LN3:
	mov	QWORD PTR [rsp+16], rdx
	mov	QWORD PTR [rsp+8], rcx
	push	rdi
	sub	rsp, 32					; 00000020H
	mov	rdi, rsp
	mov	ecx, 8
	mov	eax, -858993460				; ccccccccH
	rep stosd
	mov	rcx, QWORD PTR [rsp+48]
	lea	rdx, QWORD PTR _Message$[rsp]
	mov	rcx, QWORD PTR this$[rsp]
	call	??0exception@std@@QEAA@AEBQEBD@Z	; std::exception::exception
	mov	rax, QWORD PTR this$[rsp]
	lea	rcx, OFFSET FLAT:??_7bad_alloc@std@@6B@
	mov	QWORD PTR [rax], rcx
; Line 346
	mov	rax, QWORD PTR this$[rsp]
	add	rsp, 32					; 00000020H
	pop	rdi
	ret	0
??0bad_alloc@std@@QEAA@PEBD@Z ENDP			; std::bad_alloc::bad_alloc
_TEXT	ENDS
EXTRN	??1exception@std@@UEAA@XZ:PROC			; std::exception::~exception
;	COMDAT pdata
pdata	SEGMENT
$pdata$??1bad_alloc@std@@UEAA@XZ DD imagerel $LN3
	DD	imagerel $LN3+61
	DD	imagerel $unwind$??1bad_alloc@std@@UEAA@XZ
pdata	ENDS
;	COMDAT xdata
xdata	SEGMENT
$unwind$??1bad_alloc@std@@UEAA@XZ DD 021e01H
	DD	07006320aH
; Function compile flags: /Odtp /RTCsu
xdata	ENDS
;	COMDAT ??1bad_alloc@std@@UEAA@XZ
_TEXT	SEGMENT
this$ = 48
??1bad_alloc@std@@UEAA@XZ PROC				; std::bad_alloc::~bad_alloc, COMDAT
; Line 354
$LN3:
	mov	QWORD PTR [rsp+8], rcx
	push	rdi
	sub	rsp, 32					; 00000020H
	mov	rdi, rsp
	mov	ecx, 8
	mov	eax, -858993460				; ccccccccH
	rep stosd
	mov	rcx, QWORD PTR [rsp+48]
	mov	rax, QWORD PTR this$[rsp]
	lea	rcx, OFFSET FLAT:??_7bad_alloc@std@@6B@
	mov	QWORD PTR [rax], rcx
; Line 355
	mov	rcx, QWORD PTR this$[rsp]
	call	??1exception@std@@UEAA@XZ		; std::exception::~exception
	add	rsp, 32					; 00000020H
	pop	rdi
	ret	0
??1bad_alloc@std@@UEAA@XZ ENDP				; std::bad_alloc::~bad_alloc
_TEXT	ENDS
;	COMDAT pdata
pdata	SEGMENT
$pdata$??_Gbad_alloc@std@@UEAAPEAXI@Z DD imagerel $LN4
	DD	imagerel $LN4+76
	DD	imagerel $unwind$??_Gbad_alloc@std@@UEAAPEAXI@Z
pdata	ENDS
;	COMDAT xdata
xdata	SEGMENT
$unwind$??_Gbad_alloc@std@@UEAAPEAXI@Z DD 022201H
	DD	0700a320eH
; Function compile flags: /Odtp /RTCsu
xdata	ENDS
;	COMDAT ??_Gbad_alloc@std@@UEAAPEAXI@Z
_TEXT	SEGMENT
this$ = 48
__flags$ = 56
??_Gbad_alloc@std@@UEAAPEAXI@Z PROC			; std::bad_alloc::`scalar deleting destructor', COMDAT
$LN4:
	mov	DWORD PTR [rsp+16], edx
	mov	QWORD PTR [rsp+8], rcx
	push	rdi
	sub	rsp, 32					; 00000020H
	mov	rdi, rsp
	mov	ecx, 8
	mov	eax, -858993460				; ccccccccH
	rep stosd
	mov	rcx, QWORD PTR [rsp+48]
	mov	rcx, QWORD PTR this$[rsp]
	call	??1bad_alloc@std@@UEAA@XZ		; std::bad_alloc::~bad_alloc
	mov	eax, DWORD PTR __flags$[rsp]
	and	eax, 1
	test	eax, eax
	je	SHORT $LN1@scalar
	mov	rcx, QWORD PTR this$[rsp]
	call	??3@YAXPEAX@Z				; operator delete
$LN1@scalar:
	mov	rax, QWORD PTR this$[rsp]
	add	rsp, 32					; 00000020H
	pop	rdi
	ret	0
??_Gbad_alloc@std@@UEAAPEAXI@Z ENDP			; std::bad_alloc::`scalar deleting destructor'
_TEXT	ENDS
;	COMDAT pdata
pdata	SEGMENT
$pdata$??0bad_alloc@std@@QEAA@AEBV01@@Z DD imagerel $LN4
	DD	imagerel $LN4+76
	DD	imagerel $unwind$??0bad_alloc@std@@QEAA@AEBV01@@Z
pdata	ENDS
;	COMDAT xdata
xdata	SEGMENT
$unwind$??0bad_alloc@std@@QEAA@AEBV01@@Z DD 022301H
	DD	0700b320fH
; Function compile flags: /Odtp /RTCsu
xdata	ENDS
;	COMDAT ??0bad_alloc@std@@QEAA@AEBV01@@Z
_TEXT	SEGMENT
this$ = 48
__that$ = 56
??0bad_alloc@std@@QEAA@AEBV01@@Z PROC			; std::bad_alloc::bad_alloc, COMDAT
$LN4:
	mov	QWORD PTR [rsp+16], rdx
	mov	QWORD PTR [rsp+8], rcx
	push	rdi
	sub	rsp, 32					; 00000020H
	mov	rdi, rsp
	mov	ecx, 8
	mov	eax, -858993460				; ccccccccH
	rep stosd
	mov	rcx, QWORD PTR [rsp+48]
	mov	rdx, QWORD PTR __that$[rsp]
	mov	rcx, QWORD PTR this$[rsp]
	call	??0exception@std@@QEAA@AEBV01@@Z	; std::exception::exception
	mov	rax, QWORD PTR this$[rsp]
	lea	rcx, OFFSET FLAT:??_7bad_alloc@std@@6B@
	mov	QWORD PTR [rax], rcx
	mov	rax, QWORD PTR this$[rsp]
	add	rsp, 32					; 00000020H
	pop	rdi
	ret	0
??0bad_alloc@std@@QEAA@AEBV01@@Z ENDP			; std::bad_alloc::bad_alloc
_TEXT	ENDS
PUBLIC	??0?$basic_string@DU?$char_traits@D@std@@V?$allocator@D@2@@std@@QEAA@PEBD@Z ; std::basic_string<char,std::char_traits<char>,std::allocator<char> >::basic_string<char,std::char_traits<char>,std::allocator<char> >
EXTRN	atexit:PROC
;	COMDAT pdata
; File c:\users\mark\documents\devmaster_raytracing\raytracer3.0.06.no_rec.samp\openclcode.cpp
pdata	SEGMENT
$pdata$??__EoutputLine1@@YAXXZ DD imagerel ??__EoutputLine1@@YAXXZ
	DD	imagerel ??__EoutputLine1@@YAXXZ+58
	DD	imagerel $unwind$??__EoutputLine1@@YAXXZ
pdata	ENDS
;	COMDAT xdata
xdata	SEGMENT
$unwind$??__EoutputLine1@@YAXXZ DD 021501H
	DD	070023206H
; Function compile flags: /Odtp /RTCsu
xdata	ENDS
;	COMDAT ??__EoutputLine1@@YAXXZ
text$yc	SEGMENT
??__EoutputLine1@@YAXXZ PROC				; `dynamic initializer for 'outputLine1'', COMDAT
; Line 22
	push	rdi
	sub	rsp, 32					; 00000020H
	mov	rdi, rsp
	mov	ecx, 8
	mov	eax, -858993460				; ccccccccH
	rep stosd
	lea	rdx, OFFSET FLAT:$SG23059
	lea	rcx, OFFSET FLAT:?outputLine1@@3V?$basic_string@DU?$char_traits@D@std@@V?$allocator@D@2@@std@@A ; outputLine1
	call	??0?$basic_string@DU?$char_traits@D@std@@V?$allocator@D@2@@std@@QEAA@PEBD@Z ; std::basic_string<char,std::char_traits<char>,std::allocator<char> >::basic_string<char,std::char_traits<char>,std::allocator<char> >
	lea	rcx, OFFSET FLAT:??__FoutputLine1@@YAXXZ ; `dynamic atexit destructor for 'outputLine1''
	call	atexit
	add	rsp, 32					; 00000020H
	pop	rdi
	ret	0
??__EoutputLine1@@YAXXZ ENDP				; `dynamic initializer for 'outputLine1''
text$yc	ENDS
PUBLIC	??1?$_String_val@DV?$allocator@D@std@@@std@@QEAA@XZ ; std::_String_val<char,std::allocator<char> >::~_String_val<char,std::allocator<char> >
PUBLIC	?assign@?$basic_string@DU?$char_traits@D@std@@V?$allocator@D@2@@std@@QEAAAEAV12@PEBD@Z ; std::basic_string<char,std::char_traits<char>,std::allocator<char> >::assign
PUBLIC	??0?$_String_val@DV?$allocator@D@std@@@std@@QEAA@V?$allocator@D@1@@Z ; std::_String_val<char,std::allocator<char> >::_String_val<char,std::allocator<char> >
PUBLIC	??0?$allocator@D@std@@QEAA@XZ			; std::allocator<char>::allocator<char>
;	COMDAT pdata
; File c:\program files (x86)\microsoft visual studio 10.0\vc\include\xstring
pdata	SEGMENT
$pdata$??0?$basic_string@DU?$char_traits@D@std@@V?$allocator@D@2@@std@@QEAA@PEBD@Z DD imagerel $LN4
	DD	imagerel $LN4+120
	DD	imagerel $unwind$??0?$basic_string@DU?$char_traits@D@std@@V?$allocator@D@2@@std@@QEAA@PEBD@Z
pdata	ENDS
;	COMDAT pdata
pdata	SEGMENT
$pdata$?dtor$0@?0???0?$basic_string@DU?$char_traits@D@std@@V?$allocator@D@2@@std@@QEAA@PEBD@Z@4HA DD imagerel ?dtor$0@?0???0?$basic_string@DU?$char_traits@D@std@@V?$allocator@D@2@@std@@QEAA@PEBD@Z@4HA
	DD	imagerel ?dtor$0@?0???0?$basic_string@DU?$char_traits@D@std@@V?$allocator@D@2@@std@@QEAA@PEBD@Z@4HA+35
	DD	imagerel $unwind$?dtor$0@?0???0?$basic_string@DU?$char_traits@D@std@@V?$allocator@D@2@@std@@QEAA@PEBD@Z@4HA
pdata	ENDS
;	COMDAT xdata
xdata	SEGMENT
$ip2state$??0?$basic_string@DU?$char_traits@D@std@@V?$allocator@D@2@@std@@QEAA@PEBD@Z DD imagerel ??0?$basic_string@DU?$char_traits@D@std@@V?$allocator@D@2@@std@@QEAA@PEBD@Z
	DD	0ffffffffH
	DD	imagerel ??0?$basic_string@DU?$char_traits@D@std@@V?$allocator@D@2@@std@@QEAA@PEBD@Z+78
	DD	00H
	DD	imagerel ??0?$basic_string@DU?$char_traits@D@std@@V?$allocator@D@2@@std@@QEAA@PEBD@Z+109
	DD	0ffffffffH
xdata	ENDS
;	COMDAT xdata
xdata	SEGMENT
$unwind$?dtor$0@?0???0?$basic_string@DU?$char_traits@D@std@@V?$allocator@D@2@@std@@QEAA@PEBD@Z@4HA DD 031001H
	DD	0700c4210H
	DD	0500bH
xdata	ENDS
;	COMDAT xdata
xdata	SEGMENT
$unwind$??0?$basic_string@DU?$char_traits@D@std@@V?$allocator@D@2@@std@@QEAA@PEBD@Z DD 022c11H
	DD	0700b720fH
	DD	imagerel __CxxFrameHandler3
	DD	imagerel $cppxdata$??0?$basic_string@DU?$char_traits@D@std@@V?$allocator@D@2@@std@@QEAA@PEBD@Z
xdata	ENDS
;	COMDAT CONST
CONST	SEGMENT
$cppxdata$??0?$basic_string@DU?$char_traits@D@std@@V?$allocator@D@2@@std@@QEAA@PEBD@Z DD 019930522H
	DD	01H
	DD	imagerel $stateUnwindMap$??0?$basic_string@DU?$char_traits@D@std@@V?$allocator@D@2@@std@@QEAA@PEBD@Z
	DD	00H
	DD	00H
	DD	03H
	DD	imagerel $ip2state$??0?$basic_string@DU?$char_traits@D@std@@V?$allocator@D@2@@std@@QEAA@PEBD@Z
	DD	030H
	DD	00H
	DD	01H
CONST	ENDS
;	COMDAT xdata
xdata	SEGMENT
$stateUnwindMap$??0?$basic_string@DU?$char_traits@D@std@@V?$allocator@D@2@@std@@QEAA@PEBD@Z DD 0ffffffffH
	DD	imagerel ?dtor$0@?0???0?$basic_string@DU?$char_traits@D@std@@V?$allocator@D@2@@std@@QEAA@PEBD@Z@4HA
; Function compile flags: /Odtp /RTCsu
xdata	ENDS
;	COMDAT ??0?$basic_string@DU?$char_traits@D@std@@V?$allocator@D@2@@std@@QEAA@PEBD@Z
_TEXT	SEGMENT
$T27872 = 32
$T27873 = 40
$T27879 = 48
this$ = 80
_Ptr$ = 88
??0?$basic_string@DU?$char_traits@D@std@@V?$allocator@D@2@@std@@QEAA@PEBD@Z PROC ; std::basic_string<char,std::char_traits<char>,std::allocator<char> >::basic_string<char,std::char_traits<char>,std::allocator<char> >, COMDAT
; Line 592
$LN4:
	mov	QWORD PTR [rsp+16], rdx
	mov	QWORD PTR [rsp+8], rcx
	push	rdi
	sub	rsp, 64					; 00000040H
	mov	rdi, rsp
	mov	ecx, 16
	mov	eax, -858993460				; ccccccccH
	rep stosd
	mov	rcx, QWORD PTR [rsp+80]
	mov	QWORD PTR $T27879[rsp], -2
	lea	rax, QWORD PTR $T27872[rsp]
	mov	QWORD PTR $T27873[rsp], rax
	mov	rcx, QWORD PTR $T27873[rsp]
	call	??0?$allocator@D@std@@QEAA@XZ		; std::allocator<char>::allocator<char>
	mov	rdx, rax
	mov	rcx, QWORD PTR this$[rsp]
	call	??0?$_String_val@DV?$allocator@D@std@@@std@@QEAA@V?$allocator@D@1@@Z ; std::_String_val<char,std::allocator<char> >::_String_val<char,std::allocator<char> >
	npad	1
; Line 593
	xor	r8d, r8d
	xor	edx, edx
	mov	rcx, QWORD PTR this$[rsp]
	call	?_Tidy@?$basic_string@DU?$char_traits@D@std@@V?$allocator@D@2@@std@@QEAAX_N_K@Z ; std::basic_string<char,std::char_traits<char>,std::allocator<char> >::_Tidy
; Line 594
	mov	rdx, QWORD PTR _Ptr$[rsp]
	mov	rcx, QWORD PTR this$[rsp]
	call	?assign@?$basic_string@DU?$char_traits@D@std@@V?$allocator@D@2@@std@@QEAAAEAV12@PEBD@Z ; std::basic_string<char,std::char_traits<char>,std::allocator<char> >::assign
	npad	1
; Line 595
	mov	rax, QWORD PTR this$[rsp]
	add	rsp, 64					; 00000040H
	pop	rdi
	ret	0
??0?$basic_string@DU?$char_traits@D@std@@V?$allocator@D@2@@std@@QEAA@PEBD@Z ENDP ; std::basic_string<char,std::char_traits<char>,std::allocator<char> >::basic_string<char,std::char_traits<char>,std::allocator<char> >
; Function compile flags: /Odtp /RTCsu
_TEXT	ENDS
;	COMDAT text$x
text$x	SEGMENT
$T27872 = 32
$T27873 = 40
$T27879 = 48
this$ = 80
_Ptr$ = 88
?dtor$0@?0???0?$basic_string@DU?$char_traits@D@std@@V?$allocator@D@2@@std@@QEAA@PEBD@Z@4HA PROC ; `std::basic_string<char,std::char_traits<char>,std::allocator<char> >::basic_string<char,std::char_traits<char>,std::allocator<char> >'::`1'::dtor$0
	mov	QWORD PTR [rsp+8], rcx
	mov	QWORD PTR [rsp+16], rdx
	push	rbp
	push	rdi
	sub	rsp, 40					; 00000028H
	mov	rbp, rdx
	mov	rcx, QWORD PTR this$[rbp]
	call	??1?$_String_val@DV?$allocator@D@std@@@std@@QEAA@XZ ; std::_String_val<char,std::allocator<char> >::~_String_val<char,std::allocator<char> >
	add	rsp, 40					; 00000028H
	pop	rdi
	pop	rbp
	ret	0
?dtor$0@?0???0?$basic_string@DU?$char_traits@D@std@@V?$allocator@D@2@@std@@QEAA@PEBD@Z@4HA ENDP ; `std::basic_string<char,std::char_traits<char>,std::allocator<char> >::basic_string<char,std::char_traits<char>,std::allocator<char> >'::`1'::dtor$0
text$x	ENDS
PUBLIC	?assign@?$basic_string@DU?$char_traits@D@std@@V?$allocator@D@2@@std@@QEAAAEAV12@PEBD_K@Z ; std::basic_string<char,std::char_traits<char>,std::allocator<char> >::assign
;	COMDAT pdata
pdata	SEGMENT
$pdata$?assign@?$basic_string@DU?$char_traits@D@std@@V?$allocator@D@2@@std@@QEAAAEAV12@PEBD@Z DD imagerel $LN3
	DD	imagerel $LN3+92
	DD	imagerel $unwind$?assign@?$basic_string@DU?$char_traits@D@std@@V?$allocator@D@2@@std@@QEAAAEAV12@PEBD@Z
pdata	ENDS
;	COMDAT xdata
xdata	SEGMENT
$unwind$?assign@?$basic_string@DU?$char_traits@D@std@@V?$allocator@D@2@@std@@QEAAAEAV12@PEBD@Z DD 022301H
	DD	0700b320fH
; Function compile flags: /Odtp /RTCsu
xdata	ENDS
;	COMDAT ?assign@?$basic_string@DU?$char_traits@D@std@@V?$allocator@D@2@@std@@QEAAAEAV12@PEBD@Z
_TEXT	SEGMENT
this$ = 48
_Ptr$ = 56
?assign@?$basic_string@DU?$char_traits@D@std@@V?$allocator@D@2@@std@@QEAAAEAV12@PEBD@Z PROC ; std::basic_string<char,std::char_traits<char>,std::allocator<char> >::assign, COMDAT
; Line 929
$LN3:
	mov	QWORD PTR [rsp+16], rdx
	mov	QWORD PTR [rsp+8], rcx
	push	rdi
	sub	rsp, 32					; 00000020H
	mov	rdi, rsp
	mov	ecx, 8
	mov	eax, -858993460				; ccccccccH
	rep stosd
	mov	rcx, QWORD PTR [rsp+48]
; Line 930
	mov	r8d, 930				; 000003a2H
	lea	rdx, OFFSET FLAT:??_C@_1IO@KLJMFODF@?$AAC?$AA?3?$AA?2?$AAP?$AAr?$AAo?$AAg?$AAr?$AAa?$AAm?$AA?5?$AAF?$AAi?$AAl?$AAe?$AAs?$AA?5?$AA?$CI?$AAx?$AA8?$AA6?$AA?$CJ?$AA?2?$AAM?$AAi?$AAc?$AAr?$AAo?$AAs?$AAo?$AAf?$AAt@
	mov	rcx, QWORD PTR _Ptr$[rsp]
	call	??$_Debug_pointer@D@std@@YAXPEBDPEB_WI@Z ; std::_Debug_pointer<char>
; Line 931
	mov	rcx, QWORD PTR _Ptr$[rsp]
	call	?length@?$char_traits@D@std@@SA_KPEBD@Z	; std::char_traits<char>::length
	mov	r8, rax
	mov	rdx, QWORD PTR _Ptr$[rsp]
	mov	rcx, QWORD PTR this$[rsp]
	call	?assign@?$basic_string@DU?$char_traits@D@std@@V?$allocator@D@2@@std@@QEAAAEAV12@PEBD_K@Z ; std::basic_string<char,std::char_traits<char>,std::allocator<char> >::assign
; Line 932
	add	rsp, 32					; 00000020H
	pop	rdi
	ret	0
?assign@?$basic_string@DU?$char_traits@D@std@@V?$allocator@D@2@@std@@QEAAAEAV12@PEBD@Z ENDP ; std::basic_string<char,std::char_traits<char>,std::allocator<char> >::assign
_TEXT	ENDS
PUBLIC	??1_Container_base12@std@@QEAA@XZ		; std::_Container_base12::~_Container_base12
PUBLIC	??$_Cons_val@V?$allocator@U_Container_proxy@std@@@std@@U_Container_proxy@2@U32@@std@@YAXAEAV?$allocator@U_Container_proxy@std@@@0@PEAU_Container_proxy@0@$$QEAU20@@Z ; std::_Cons_val<std::allocator<std::_Container_proxy>,std::_Container_proxy,std::_Container_proxy>
PUBLIC	??0_Container_proxy@std@@QEAA@XZ		; std::_Container_proxy::_Container_proxy
PUBLIC	?allocate@?$allocator@U_Container_proxy@std@@@std@@QEAAPEAU_Container_proxy@2@_K@Z ; std::allocator<std::_Container_proxy>::allocate
PUBLIC	??$?0D@?$allocator@U_Container_proxy@std@@@std@@QEAA@AEBV?$allocator@D@1@@Z ; std::allocator<std::_Container_proxy>::allocator<std::_Container_proxy><char>
PUBLIC	??0?$allocator@D@std@@QEAA@AEBV01@@Z		; std::allocator<char>::allocator<char>
PUBLIC	??0_Container_base12@std@@QEAA@XZ		; std::_Container_base12::_Container_base12
;	COMDAT pdata
pdata	SEGMENT
$pdata$??0?$_String_val@DV?$allocator@D@std@@@std@@QEAA@V?$allocator@D@1@@Z DD imagerel $LN4
	DD	imagerel $LN4+201
	DD	imagerel $unwind$??0?$_String_val@DV?$allocator@D@std@@@std@@QEAA@V?$allocator@D@1@@Z
pdata	ENDS
;	COMDAT pdata
pdata	SEGMENT
$pdata$?dtor$0@?0???0?$_String_val@DV?$allocator@D@std@@@std@@QEAA@V?$allocator@D@1@@Z@4HA DD imagerel ?dtor$0@?0???0?$_String_val@DV?$allocator@D@std@@@std@@QEAA@V?$allocator@D@1@@Z@4HA
	DD	imagerel ?dtor$0@?0???0?$_String_val@DV?$allocator@D@std@@@std@@QEAA@V?$allocator@D@1@@Z@4HA+35
	DD	imagerel $unwind$?dtor$0@?0???0?$_String_val@DV?$allocator@D@std@@@std@@QEAA@V?$allocator@D@1@@Z@4HA
pdata	ENDS
;	COMDAT xdata
xdata	SEGMENT
$ip2state$??0?$_String_val@DV?$allocator@D@std@@@std@@QEAA@V?$allocator@D@1@@Z DD imagerel ??0?$_String_val@DV?$allocator@D@std@@@std@@QEAA@V?$allocator@D@1@@Z
	DD	0ffffffffH
	DD	imagerel ??0?$_String_val@DV?$allocator@D@std@@@std@@QEAA@V?$allocator@D@1@@Z+55
	DD	00H
	DD	imagerel ??0?$_String_val@DV?$allocator@D@std@@@std@@QEAA@V?$allocator@D@1@@Z+169
	DD	0ffffffffH
xdata	ENDS
;	COMDAT xdata
xdata	SEGMENT
$unwind$?dtor$0@?0???0?$_String_val@DV?$allocator@D@std@@@std@@QEAA@V?$allocator@D@1@@Z@4HA DD 031001H
	DD	0700c4210H
	DD	0500bH
xdata	ENDS
;	COMDAT xdata
xdata	SEGMENT
$unwind$??0?$_String_val@DV?$allocator@D@std@@@std@@QEAA@V?$allocator@D@1@@Z DD 022c11H
	DD	0700b920fH
	DD	imagerel __CxxFrameHandler3
	DD	imagerel $cppxdata$??0?$_String_val@DV?$allocator@D@std@@@std@@QEAA@V?$allocator@D@1@@Z
xdata	ENDS
;	COMDAT xdata
xdata	SEGMENT
$stateUnwindMap$??0?$_String_val@DV?$allocator@D@std@@@std@@QEAA@V?$allocator@D@1@@Z DD 0ffffffffH
	DD	imagerel ?dtor$0@?0???0?$_String_val@DV?$allocator@D@std@@@std@@QEAA@V?$allocator@D@1@@Z@4HA
xdata	ENDS
;	COMDAT CONST
CONST	SEGMENT
??0?$_String_val@DV?$allocator@D@std@@@std@@QEAA@V?$allocator@D@1@@Z$rtcName$0 DB 05fH ; std::_String_val<char,std::allocator<char> >::_String_val<char,std::allocator<char> >
	DB	041H
	DB	06cH
	DB	070H
	DB	072H
	DB	06fH
	DB	078H
	DB	079H
	DB	00H
	ORG $+7
??0?$_String_val@DV?$allocator@D@std@@@std@@QEAA@V?$allocator@D@1@@Z$rtcVarDesc DD 024H ; std::_String_val<char,std::allocator<char> >::_String_val<char,std::allocator<char> >
	DD	01H
	DQ	FLAT:??0?$_String_val@DV?$allocator@D@std@@@std@@QEAA@V?$allocator@D@1@@Z$rtcName$0
	ORG $+48
??0?$_String_val@DV?$allocator@D@std@@@std@@QEAA@V?$allocator@D@1@@Z$rtcFrameData DD 01H ; std::_String_val<char,std::allocator<char> >::_String_val<char,std::allocator<char> >
	DD	00H
	DQ	FLAT:??0?$_String_val@DV?$allocator@D@std@@@std@@QEAA@V?$allocator@D@1@@Z$rtcVarDesc
$cppxdata$??0?$_String_val@DV?$allocator@D@std@@@std@@QEAA@V?$allocator@D@1@@Z DD 019930522H
	DD	01H
	DD	imagerel $stateUnwindMap$??0?$_String_val@DV?$allocator@D@std@@@std@@QEAA@V?$allocator@D@1@@Z
	DD	00H
	DD	00H
	DD	03H
	DD	imagerel $ip2state$??0?$_String_val@DV?$allocator@D@std@@@std@@QEAA@V?$allocator@D@1@@Z
	DD	048H
	DD	00H
	DD	01H
; Function compile flags: /Odtp /RTCsu
CONST	ENDS
;	COMDAT ??0?$_String_val@DV?$allocator@D@std@@@std@@QEAA@V?$allocator@D@1@@Z
_TEXT	SEGMENT
_Alproxy$ = 36
$T27904 = 56
$T27910 = 72
this$ = 96
_Al$ = 104
??0?$_String_val@DV?$allocator@D@std@@@std@@QEAA@V?$allocator@D@1@@Z PROC ; std::_String_val<char,std::allocator<char> >::_String_val<char,std::allocator<char> >, COMDAT
; Line 466
$LN4:
	mov	QWORD PTR [rsp+16], rdx
	mov	QWORD PTR [rsp+8], rcx
	push	rdi
	sub	rsp, 80					; 00000050H
	mov	rdi, rsp
	mov	ecx, 20
	mov	eax, -858993460				; ccccccccH
	rep stosd
	mov	rcx, QWORD PTR [rsp+96]
	mov	QWORD PTR $T27910[rsp], -2
	mov	rcx, QWORD PTR this$[rsp]
	call	??0_Container_base12@std@@QEAA@XZ	; std::_Container_base12::_Container_base12
	npad	1
	mov	rax, QWORD PTR this$[rsp]
	add	rax, 40					; 00000028H
	mov	rdx, QWORD PTR _Al$[rsp]
	mov	rcx, rax
	call	??0?$allocator@D@std@@QEAA@AEBV01@@Z	; std::allocator<char>::allocator<char>
; Line 468
	mov	rax, QWORD PTR this$[rsp]
	add	rax, 40					; 00000028H
	mov	rdx, rax
	lea	rcx, QWORD PTR _Alproxy$[rsp]
	call	??$?0D@?$allocator@U_Container_proxy@std@@@std@@QEAA@AEBV?$allocator@D@1@@Z ; std::allocator<std::_Container_proxy>::allocator<std::_Container_proxy><char>
; Line 469
	mov	edx, 1
	lea	rcx, QWORD PTR _Alproxy$[rsp]
	call	?allocate@?$allocator@U_Container_proxy@std@@@std@@QEAAPEAU_Container_proxy@2@_K@Z ; std::allocator<std::_Container_proxy>::allocate
	mov	rcx, QWORD PTR this$[rsp]
	mov	QWORD PTR [rcx], rax
; Line 470
	lea	rcx, QWORD PTR $T27904[rsp]
	call	??0_Container_proxy@std@@QEAA@XZ	; std::_Container_proxy::_Container_proxy
	mov	r8, rax
	mov	rax, QWORD PTR this$[rsp]
	mov	rdx, QWORD PTR [rax]
	lea	rcx, QWORD PTR _Alproxy$[rsp]
	call	??$_Cons_val@V?$allocator@U_Container_proxy@std@@@std@@U_Container_proxy@2@U32@@std@@YAXAEAV?$allocator@U_Container_proxy@std@@@0@PEAU_Container_proxy@0@$$QEAU20@@Z ; std::_Cons_val<std::allocator<std::_Container_proxy>,std::_Container_proxy,std::_Container_proxy>
; Line 471
	mov	rax, QWORD PTR this$[rsp]
	mov	rax, QWORD PTR [rax]
	mov	rcx, QWORD PTR this$[rsp]
	mov	QWORD PTR [rax], rcx
; Line 472
	mov	rax, QWORD PTR this$[rsp]
	mov	rdi, rax
	mov	rcx, rsp
	lea	rdx, OFFSET FLAT:??0?$_String_val@DV?$allocator@D@std@@@std@@QEAA@V?$allocator@D@1@@Z$rtcFrameData
	call	_RTC_CheckStackVars
	mov	rax, rdi
	add	rsp, 80					; 00000050H
	pop	rdi
	ret	0
??0?$_String_val@DV?$allocator@D@std@@@std@@QEAA@V?$allocator@D@1@@Z ENDP ; std::_String_val<char,std::allocator<char> >::_String_val<char,std::allocator<char> >
; Function compile flags: /Odtp /RTCsu
_TEXT	ENDS
;	COMDAT text$x
text$x	SEGMENT
_Alproxy$ = 36
$T27904 = 56
$T27910 = 72
this$ = 96
_Al$ = 104
?dtor$0@?0???0?$_String_val@DV?$allocator@D@std@@@std@@QEAA@V?$allocator@D@1@@Z@4HA PROC ; `std::_String_val<char,std::allocator<char> >::_String_val<char,std::allocator<char> >'::`1'::dtor$0
	mov	QWORD PTR [rsp+8], rcx
	mov	QWORD PTR [rsp+16], rdx
	push	rbp
	push	rdi
	sub	rsp, 40					; 00000028H
	mov	rbp, rdx
	mov	rcx, QWORD PTR this$[rbp]
	call	??1_Container_base12@std@@QEAA@XZ	; std::_Container_base12::~_Container_base12
	add	rsp, 40					; 00000028H
	pop	rdi
	pop	rbp
	ret	0
?dtor$0@?0???0?$_String_val@DV?$allocator@D@std@@@std@@QEAA@V?$allocator@D@1@@Z@4HA ENDP ; `std::_String_val<char,std::allocator<char> >::_String_val<char,std::allocator<char> >'::`1'::dtor$0
text$x	ENDS
;	COMDAT pdata
; File c:\program files (x86)\microsoft visual studio 10.0\vc\include\xutility
pdata	SEGMENT
$pdata$??0_Container_proxy@std@@QEAA@XZ DD imagerel $LN3
	DD	imagerel $LN3+38
	DD	imagerel $unwind$??0_Container_proxy@std@@QEAA@XZ
pdata	ENDS
;	COMDAT xdata
xdata	SEGMENT
$unwind$??0_Container_proxy@std@@QEAA@XZ DD 010601H
	DD	07006H
; Function compile flags: /Odtp /RTCsu
xdata	ENDS
;	COMDAT ??0_Container_proxy@std@@QEAA@XZ
_TEXT	SEGMENT
this$ = 16
??0_Container_proxy@std@@QEAA@XZ PROC			; std::_Container_proxy::_Container_proxy, COMDAT
; Line 65
$LN3:
	mov	QWORD PTR [rsp+8], rcx
	push	rdi
	mov	rax, QWORD PTR this$[rsp]
	mov	QWORD PTR [rax], 0
	mov	rax, QWORD PTR this$[rsp]
	mov	QWORD PTR [rax+8], 0
; Line 66
	mov	rax, QWORD PTR this$[rsp]
	pop	rdi
	ret	0
??0_Container_proxy@std@@QEAA@XZ ENDP			; std::_Container_proxy::_Container_proxy
_TEXT	ENDS
;	COMDAT pdata
pdata	SEGMENT
$pdata$??0_Container_base12@std@@QEAA@XZ DD imagerel $LN3
	DD	imagerel $LN3+25
	DD	imagerel $unwind$??0_Container_base12@std@@QEAA@XZ
pdata	ENDS
;	COMDAT xdata
xdata	SEGMENT
$unwind$??0_Container_base12@std@@QEAA@XZ DD 010601H
	DD	07006H
; Function compile flags: /Odtp /RTCsu
xdata	ENDS
;	COMDAT ??0_Container_base12@std@@QEAA@XZ
_TEXT	SEGMENT
this$ = 16
??0_Container_base12@std@@QEAA@XZ PROC			; std::_Container_base12::_Container_base12, COMDAT
; Line 77
$LN3:
	mov	QWORD PTR [rsp+8], rcx
	push	rdi
	mov	rax, QWORD PTR this$[rsp]
	mov	QWORD PTR [rax], 0
; Line 78
	mov	rax, QWORD PTR this$[rsp]
	pop	rdi
	ret	0
??0_Container_base12@std@@QEAA@XZ ENDP			; std::_Container_base12::_Container_base12
_TEXT	ENDS
PUBLIC	?_Orphan_all@_Container_base12@std@@QEAAXXZ	; std::_Container_base12::_Orphan_all
;	COMDAT pdata
pdata	SEGMENT
$pdata$??1_Container_base12@std@@QEAA@XZ DD imagerel $LN3
	DD	imagerel $LN3+46
	DD	imagerel $unwind$??1_Container_base12@std@@QEAA@XZ
pdata	ENDS
;	COMDAT xdata
xdata	SEGMENT
$unwind$??1_Container_base12@std@@QEAA@XZ DD 021e01H
	DD	07006320aH
; Function compile flags: /Odtp /RTCsu
xdata	ENDS
;	COMDAT ??1_Container_base12@std@@QEAA@XZ
_TEXT	SEGMENT
this$ = 48
??1_Container_base12@std@@QEAA@XZ PROC			; std::_Container_base12::~_Container_base12, COMDAT
; Line 91
$LN3:
	mov	QWORD PTR [rsp+8], rcx
	push	rdi
	sub	rsp, 32					; 00000020H
	mov	rdi, rsp
	mov	ecx, 8
	mov	eax, -858993460				; ccccccccH
	rep stosd
	mov	rcx, QWORD PTR [rsp+48]
; Line 92
	mov	rcx, QWORD PTR this$[rsp]
	call	?_Orphan_all@_Container_base12@std@@QEAAXXZ ; std::_Container_base12::_Orphan_all
; Line 93
	add	rsp, 32					; 00000020H
	pop	rdi
	ret	0
??1_Container_base12@std@@QEAA@XZ ENDP			; std::_Container_base12::~_Container_base12
_TEXT	ENDS
EXTRN	??1_Lockit@std@@QEAA@XZ:PROC			; std::_Lockit::~_Lockit
EXTRN	??0_Lockit@std@@QEAA@H@Z:PROC			; std::_Lockit::_Lockit
;	COMDAT pdata
pdata	SEGMENT
$pdata$?_Orphan_all@_Container_base12@std@@QEAAXXZ DD imagerel $LN8
	DD	imagerel $LN8+170
	DD	imagerel $unwind$?_Orphan_all@_Container_base12@std@@QEAAXXZ
pdata	ENDS
;	COMDAT xdata
xdata	SEGMENT
$unwind$?_Orphan_all@_Container_base12@std@@QEAAXXZ DD 021e01H
	DD	07006720aH
xdata	ENDS
;	COMDAT CONST
CONST	SEGMENT
?_Orphan_all@_Container_base12@std@@QEAAXXZ$rtcName$0 DB 05fH ; std::_Container_base12::_Orphan_all
	DB	04cH
	DB	06fH
	DB	063H
	DB	06bH
	DB	00H
	ORG $+10
?_Orphan_all@_Container_base12@std@@QEAAXXZ$rtcVarDesc DD 024H ; std::_Container_base12::_Orphan_all
	DD	04H
	DQ	FLAT:?_Orphan_all@_Container_base12@std@@QEAAXXZ$rtcName$0
	ORG $+48
?_Orphan_all@_Container_base12@std@@QEAAXXZ$rtcFrameData DD 01H ; std::_Container_base12::_Orphan_all
	DD	00H
	DQ	FLAT:?_Orphan_all@_Container_base12@std@@QEAAXXZ$rtcVarDesc
; Function compile flags: /Odtp /RTCsu
CONST	ENDS
;	COMDAT ?_Orphan_all@_Container_base12@std@@QEAAXXZ
_TEXT	SEGMENT
_Lock$11447 = 36
_Pnext$11448 = 56
this$ = 80
?_Orphan_all@_Container_base12@std@@QEAAXXZ PROC	; std::_Container_base12::_Orphan_all, COMDAT
; Line 194
$LN8:
	mov	QWORD PTR [rsp+8], rcx
	push	rdi
	sub	rsp, 64					; 00000040H
	mov	rdi, rsp
	mov	ecx, 16
	mov	eax, -858993460				; ccccccccH
	rep stosd
	mov	rcx, QWORD PTR [rsp+80]
; Line 196
	mov	rax, QWORD PTR this$[rsp]
	cmp	QWORD PTR [rax], 0
	je	SHORT $LN4@Orphan_all
; Line 198
	mov	edx, 3
	lea	rcx, QWORD PTR _Lock$11447[rsp]
	call	??0_Lockit@std@@QEAA@H@Z		; std::_Lockit::_Lockit
; Line 200
	mov	rax, QWORD PTR this$[rsp]
	mov	rax, QWORD PTR [rax]
	add	rax, 8
	mov	QWORD PTR _Pnext$11448[rsp], rax
; Line 201
	jmp	SHORT $LN3@Orphan_all
$LN2@Orphan_all:
	mov	rax, QWORD PTR _Pnext$11448[rsp]
	mov	rax, QWORD PTR [rax]
	mov	rcx, QWORD PTR _Pnext$11448[rsp]
	mov	rax, QWORD PTR [rax+8]
	mov	QWORD PTR [rcx], rax
$LN3@Orphan_all:
	mov	rax, QWORD PTR _Pnext$11448[rsp]
	cmp	QWORD PTR [rax], 0
	je	SHORT $LN1@Orphan_all
; Line 202
	mov	rax, QWORD PTR _Pnext$11448[rsp]
	mov	rax, QWORD PTR [rax]
	mov	QWORD PTR [rax], 0
	jmp	SHORT $LN2@Orphan_all
$LN1@Orphan_all:
; Line 203
	mov	rax, QWORD PTR this$[rsp]
	mov	rax, QWORD PTR [rax]
	mov	QWORD PTR [rax+8], 0
; Line 204
	lea	rcx, QWORD PTR _Lock$11447[rsp]
	call	??1_Lockit@std@@QEAA@XZ			; std::_Lockit::~_Lockit
$LN4@Orphan_all:
; Line 206
	mov	rcx, rsp
	lea	rdx, OFFSET FLAT:?_Orphan_all@_Container_base12@std@@QEAAXXZ$rtcFrameData
	call	_RTC_CheckStackVars
	add	rsp, 64					; 00000040H
	pop	rdi
	ret	0
?_Orphan_all@_Container_base12@std@@QEAAXXZ ENDP	; std::_Container_base12::_Orphan_all
_TEXT	ENDS
PUBLIC	?deallocate@?$allocator@U_Container_proxy@std@@@std@@QEAAXPEAU_Container_proxy@2@_K@Z ; std::allocator<std::_Container_proxy>::deallocate
PUBLIC	??$_Dest_val@V?$allocator@U_Container_proxy@std@@@std@@U_Container_proxy@2@@std@@YAXAEAV?$allocator@U_Container_proxy@std@@@0@PEAU_Container_proxy@0@@Z ; std::_Dest_val<std::allocator<std::_Container_proxy>,std::_Container_proxy>
;	COMDAT pdata
; File c:\program files (x86)\microsoft visual studio 10.0\vc\include\xstring
pdata	SEGMENT
$pdata$??1?$_String_val@DV?$allocator@D@std@@@std@@QEAA@XZ DD imagerel $LN4
	DD	imagerel $LN4+156
	DD	imagerel $unwind$??1?$_String_val@DV?$allocator@D@std@@@std@@QEAA@XZ
pdata	ENDS
;	COMDAT pdata
pdata	SEGMENT
$pdata$?dtor$0@?0???1?$_String_val@DV?$allocator@D@std@@@std@@QEAA@XZ@4HA DD imagerel ?dtor$0@?0???1?$_String_val@DV?$allocator@D@std@@@std@@QEAA@XZ@4HA
	DD	imagerel ?dtor$0@?0???1?$_String_val@DV?$allocator@D@std@@@std@@QEAA@XZ@4HA+35
	DD	imagerel $unwind$?dtor$0@?0???1?$_String_val@DV?$allocator@D@std@@@std@@QEAA@XZ@4HA
pdata	ENDS
;	COMDAT xdata
xdata	SEGMENT
$ip2state$??1?$_String_val@DV?$allocator@D@std@@@std@@QEAA@XZ DD imagerel ??1?$_String_val@DV?$allocator@D@std@@@std@@QEAA@XZ
	DD	0ffffffffH
	DD	imagerel ??1?$_String_val@DV?$allocator@D@std@@@std@@QEAA@XZ+39
	DD	00H
	DD	imagerel ??1?$_String_val@DV?$allocator@D@std@@@std@@QEAA@XZ+125
	DD	0ffffffffH
xdata	ENDS
;	COMDAT xdata
xdata	SEGMENT
$unwind$?dtor$0@?0???1?$_String_val@DV?$allocator@D@std@@@std@@QEAA@XZ@4HA DD 031001H
	DD	0700c4210H
	DD	0500bH
xdata	ENDS
;	COMDAT xdata
xdata	SEGMENT
$unwind$??1?$_String_val@DV?$allocator@D@std@@@std@@QEAA@XZ DD 022711H
	DD	07006720aH
	DD	imagerel __CxxFrameHandler3
	DD	imagerel $cppxdata$??1?$_String_val@DV?$allocator@D@std@@@std@@QEAA@XZ
xdata	ENDS
;	COMDAT xdata
xdata	SEGMENT
$stateUnwindMap$??1?$_String_val@DV?$allocator@D@std@@@std@@QEAA@XZ DD 0ffffffffH
	DD	imagerel ?dtor$0@?0???1?$_String_val@DV?$allocator@D@std@@@std@@QEAA@XZ@4HA
xdata	ENDS
;	COMDAT CONST
CONST	SEGMENT
??1?$_String_val@DV?$allocator@D@std@@@std@@QEAA@XZ$rtcName$0 DB 05fH ; std::_String_val<char,std::allocator<char> >::~_String_val<char,std::allocator<char> >
	DB	041H
	DB	06cH
	DB	070H
	DB	072H
	DB	06fH
	DB	078H
	DB	079H
	DB	00H
	ORG $+7
??1?$_String_val@DV?$allocator@D@std@@@std@@QEAA@XZ$rtcVarDesc DD 024H ; std::_String_val<char,std::allocator<char> >::~_String_val<char,std::allocator<char> >
	DD	01H
	DQ	FLAT:??1?$_String_val@DV?$allocator@D@std@@@std@@QEAA@XZ$rtcName$0
	ORG $+48
??1?$_String_val@DV?$allocator@D@std@@@std@@QEAA@XZ$rtcFrameData DD 01H ; std::_String_val<char,std::allocator<char> >::~_String_val<char,std::allocator<char> >
	DD	00H
	DQ	FLAT:??1?$_String_val@DV?$allocator@D@std@@@std@@QEAA@XZ$rtcVarDesc
$cppxdata$??1?$_String_val@DV?$allocator@D@std@@@std@@QEAA@XZ DD 019930522H
	DD	01H
	DD	imagerel $stateUnwindMap$??1?$_String_val@DV?$allocator@D@std@@@std@@QEAA@XZ
	DD	00H
	DD	00H
	DD	03H
	DD	imagerel $ip2state$??1?$_String_val@DV?$allocator@D@std@@@std@@QEAA@XZ
	DD	038H
	DD	00H
	DD	01H
; Function compile flags: /Odtp /RTCsu
CONST	ENDS
;	COMDAT ??1?$_String_val@DV?$allocator@D@std@@@std@@QEAA@XZ
_TEXT	SEGMENT
_Alproxy$ = 36
$T27972 = 56
this$ = 80
??1?$_String_val@DV?$allocator@D@std@@@std@@QEAA@XZ PROC ; std::_String_val<char,std::allocator<char> >::~_String_val<char,std::allocator<char> >, COMDAT
; Line 475
$LN4:
	mov	QWORD PTR [rsp+8], rcx
	push	rdi
	sub	rsp, 64					; 00000040H
	mov	rdi, rsp
	mov	ecx, 16
	mov	eax, -858993460				; ccccccccH
	rep stosd
	mov	rcx, QWORD PTR [rsp+80]
	mov	QWORD PTR $T27972[rsp], -2
; Line 477
	mov	rax, QWORD PTR this$[rsp]
	add	rax, 40					; 00000028H
	mov	rdx, rax
	lea	rcx, QWORD PTR _Alproxy$[rsp]
	call	??$?0D@?$allocator@U_Container_proxy@std@@@std@@QEAA@AEBV?$allocator@D@1@@Z ; std::allocator<std::_Container_proxy>::allocator<std::_Container_proxy><char>
; Line 478
	mov	rcx, QWORD PTR this$[rsp]
	call	?_Orphan_all@_Container_base12@std@@QEAAXXZ ; std::_Container_base12::_Orphan_all
; Line 479
	mov	rax, QWORD PTR this$[rsp]
	mov	rdx, QWORD PTR [rax]
	lea	rcx, QWORD PTR _Alproxy$[rsp]
	call	??$_Dest_val@V?$allocator@U_Container_proxy@std@@@std@@U_Container_proxy@2@@std@@YAXAEAV?$allocator@U_Container_proxy@std@@@0@PEAU_Container_proxy@0@@Z ; std::_Dest_val<std::allocator<std::_Container_proxy>,std::_Container_proxy>
; Line 480
	mov	r8d, 1
	mov	rax, QWORD PTR this$[rsp]
	mov	rdx, QWORD PTR [rax]
	lea	rcx, QWORD PTR _Alproxy$[rsp]
	call	?deallocate@?$allocator@U_Container_proxy@std@@@std@@QEAAXPEAU_Container_proxy@2@_K@Z ; std::allocator<std::_Container_proxy>::deallocate
; Line 481
	mov	rax, QWORD PTR this$[rsp]
	mov	QWORD PTR [rax], 0
; Line 482
	mov	rcx, QWORD PTR this$[rsp]
	call	??1_Container_base12@std@@QEAA@XZ	; std::_Container_base12::~_Container_base12
	mov	rcx, rsp
	lea	rdx, OFFSET FLAT:??1?$_String_val@DV?$allocator@D@std@@@std@@QEAA@XZ$rtcFrameData
	call	_RTC_CheckStackVars
	add	rsp, 64					; 00000040H
	pop	rdi
	ret	0
??1?$_String_val@DV?$allocator@D@std@@@std@@QEAA@XZ ENDP ; std::_String_val<char,std::allocator<char> >::~_String_val<char,std::allocator<char> >
; Function compile flags: /Odtp /RTCsu
_TEXT	ENDS
;	COMDAT text$x
text$x	SEGMENT
_Alproxy$ = 36
$T27972 = 56
this$ = 80
?dtor$0@?0???1?$_String_val@DV?$allocator@D@std@@@std@@QEAA@XZ@4HA PROC ; `std::_String_val<char,std::allocator<char> >::~_String_val<char,std::allocator<char> >'::`1'::dtor$0
	mov	QWORD PTR [rsp+8], rcx
	mov	QWORD PTR [rsp+16], rdx
	push	rbp
	push	rdi
	sub	rsp, 40					; 00000028H
	mov	rbp, rdx
	mov	rcx, QWORD PTR this$[rbp]
	call	??1_Container_base12@std@@QEAA@XZ	; std::_Container_base12::~_Container_base12
	add	rsp, 40					; 00000028H
	pop	rdi
	pop	rbp
	ret	0
?dtor$0@?0???1?$_String_val@DV?$allocator@D@std@@@std@@QEAA@XZ@4HA ENDP ; `std::_String_val<char,std::allocator<char> >::~_String_val<char,std::allocator<char> >'::`1'::dtor$0
text$x	ENDS
;	COMDAT pdata
; File c:\program files (x86)\microsoft visual studio 10.0\vc\include\xmemory
pdata	SEGMENT
$pdata$??0?$allocator@D@std@@QEAA@XZ DD imagerel $LN3
	DD	imagerel $LN3+13
	DD	imagerel $unwind$??0?$allocator@D@std@@QEAA@XZ
pdata	ENDS
;	COMDAT xdata
xdata	SEGMENT
$unwind$??0?$allocator@D@std@@QEAA@XZ DD 010601H
	DD	07006H
; Function compile flags: /Odtp /RTCsu
xdata	ENDS
;	COMDAT ??0?$allocator@D@std@@QEAA@XZ
_TEXT	SEGMENT
this$ = 16
??0?$allocator@D@std@@QEAA@XZ PROC			; std::allocator<char>::allocator<char>, COMDAT
; Line 161
$LN3:
	mov	QWORD PTR [rsp+8], rcx
	push	rdi
; Line 163
	mov	rax, QWORD PTR this$[rsp]
	pop	rdi
	ret	0
??0?$allocator@D@std@@QEAA@XZ ENDP			; std::allocator<char>::allocator<char>
_TEXT	ENDS
PUBLIC	?assign@?$basic_string@DU?$char_traits@D@std@@V?$allocator@D@2@@std@@QEAAAEAV12@AEBV12@_K1@Z ; std::basic_string<char,std::char_traits<char>,std::allocator<char> >::assign
;	COMDAT pdata
; File c:\program files (x86)\microsoft visual studio 10.0\vc\include\xstring
pdata	SEGMENT
$pdata$?assign@?$basic_string@DU?$char_traits@D@std@@V?$allocator@D@2@@std@@QEAAAEAV12@PEBD_K@Z DD imagerel $LN6
	DD	imagerel $LN6+218
	DD	imagerel $unwind$?assign@?$basic_string@DU?$char_traits@D@std@@V?$allocator@D@2@@std@@QEAAAEAV12@PEBD_K@Z
pdata	ENDS
;	COMDAT xdata
xdata	SEGMENT
$unwind$?assign@?$basic_string@DU?$char_traits@D@std@@V?$allocator@D@2@@std@@QEAAAEAV12@PEBD_K@Z DD 022801H
	DD	070103214H
; Function compile flags: /Odtp /RTCsu
xdata	ENDS
;	COMDAT ?assign@?$basic_string@DU?$char_traits@D@std@@V?$allocator@D@2@@std@@QEAAAEAV12@PEBD_K@Z
_TEXT	SEGMENT
this$ = 48
_Ptr$ = 56
_Count$ = 64
?assign@?$basic_string@DU?$char_traits@D@std@@V?$allocator@D@2@@std@@QEAAAEAV12@PEBD_K@Z PROC ; std::basic_string<char,std::char_traits<char>,std::allocator<char> >::assign, COMDAT
; Line 911
$LN6:
	mov	QWORD PTR [rsp+24], r8
	mov	QWORD PTR [rsp+16], rdx
	mov	QWORD PTR [rsp+8], rcx
	push	rdi
	sub	rsp, 32					; 00000020H
	mov	rdi, rsp
	mov	ecx, 8
	mov	eax, -858993460				; ccccccccH
	rep stosd
	mov	rcx, QWORD PTR [rsp+48]
; Line 913
	cmp	QWORD PTR _Count$[rsp], 0
	je	SHORT $LN3@assign
; Line 914
	mov	r8d, 914				; 00000392H
	lea	rdx, OFFSET FLAT:??_C@_1IO@KLJMFODF@?$AAC?$AA?3?$AA?2?$AAP?$AAr?$AAo?$AAg?$AAr?$AAa?$AAm?$AA?5?$AAF?$AAi?$AAl?$AAe?$AAs?$AA?5?$AA?$CI?$AAx?$AA8?$AA6?$AA?$CJ?$AA?2?$AAM?$AAi?$AAc?$AAr?$AAo?$AAs?$AAo?$AAf?$AAt@
	mov	rcx, QWORD PTR _Ptr$[rsp]
	call	??$_Debug_pointer@D@std@@YAXPEBDPEB_WI@Z ; std::_Debug_pointer<char>
$LN3@assign:
; Line 917
	mov	rdx, QWORD PTR _Ptr$[rsp]
	mov	rcx, QWORD PTR this$[rsp]
	call	?_Inside@?$basic_string@DU?$char_traits@D@std@@V?$allocator@D@2@@std@@QEAA_NPEBD@Z ; std::basic_string<char,std::char_traits<char>,std::allocator<char> >::_Inside
	movzx	eax, al
	test	eax, eax
	je	SHORT $LN2@assign
; Line 918
	mov	rcx, QWORD PTR this$[rsp]
	call	?_Myptr@?$basic_string@DU?$char_traits@D@std@@V?$allocator@D@2@@std@@QEAAPEADXZ ; std::basic_string<char,std::char_traits<char>,std::allocator<char> >::_Myptr
	mov	rcx, QWORD PTR _Ptr$[rsp]
	sub	rcx, rax
	mov	rax, rcx
	mov	r9, QWORD PTR _Count$[rsp]
	mov	r8, rax
	mov	rdx, QWORD PTR this$[rsp]
	mov	rcx, QWORD PTR this$[rsp]
	call	?assign@?$basic_string@DU?$char_traits@D@std@@V?$allocator@D@2@@std@@QEAAAEAV12@AEBV12@_K1@Z ; std::basic_string<char,std::char_traits<char>,std::allocator<char> >::assign
	jmp	SHORT $LN4@assign
$LN2@assign:
; Line 920
	xor	r8d, r8d
	mov	rdx, QWORD PTR _Count$[rsp]
	mov	rcx, QWORD PTR this$[rsp]
	call	?_Grow@?$basic_string@DU?$char_traits@D@std@@V?$allocator@D@2@@std@@QEAA_N_K_N@Z ; std::basic_string<char,std::char_traits<char>,std::allocator<char> >::_Grow
	movzx	eax, al
	test	eax, eax
	je	SHORT $LN1@assign
; Line 922
	mov	rcx, QWORD PTR this$[rsp]
	call	?_Myptr@?$basic_string@DU?$char_traits@D@std@@V?$allocator@D@2@@std@@QEAAPEADXZ ; std::basic_string<char,std::char_traits<char>,std::allocator<char> >::_Myptr
	mov	r8, QWORD PTR _Count$[rsp]
	mov	rdx, QWORD PTR _Ptr$[rsp]
	mov	rcx, rax
	call	?copy@?$char_traits@D@std@@SAPEADPEADPEBD_K@Z ; std::char_traits<char>::copy
; Line 923
	mov	rdx, QWORD PTR _Count$[rsp]
	mov	rcx, QWORD PTR this$[rsp]
	call	?_Eos@?$basic_string@DU?$char_traits@D@std@@V?$allocator@D@2@@std@@QEAAX_K@Z ; std::basic_string<char,std::char_traits<char>,std::allocator<char> >::_Eos
$LN1@assign:
; Line 925
	mov	rax, QWORD PTR this$[rsp]
$LN4@assign:
; Line 926
	add	rsp, 32					; 00000020H
	pop	rdi
	ret	0
?assign@?$basic_string@DU?$char_traits@D@std@@V?$allocator@D@2@@std@@QEAAAEAV12@PEBD_K@Z ENDP ; std::basic_string<char,std::char_traits<char>,std::allocator<char> >::assign
_TEXT	ENDS
;	COMDAT pdata
; File c:\program files (x86)\microsoft visual studio 10.0\vc\include\xmemory
pdata	SEGMENT
$pdata$??0?$allocator@D@std@@QEAA@AEBV01@@Z DD imagerel $LN3
	DD	imagerel $LN3+18
	DD	imagerel $unwind$??0?$allocator@D@std@@QEAA@AEBV01@@Z
pdata	ENDS
;	COMDAT xdata
xdata	SEGMENT
$unwind$??0?$allocator@D@std@@QEAA@AEBV01@@Z DD 010b01H
	DD	0700bH
; Function compile flags: /Odtp /RTCsu
xdata	ENDS
;	COMDAT ??0?$allocator@D@std@@QEAA@AEBV01@@Z
_TEXT	SEGMENT
this$ = 16
__formal$ = 24
??0?$allocator@D@std@@QEAA@AEBV01@@Z PROC		; std::allocator<char>::allocator<char>, COMDAT
; Line 165
$LN3:
	mov	QWORD PTR [rsp+16], rdx
	mov	QWORD PTR [rsp+8], rcx
	push	rdi
; Line 167
	mov	rax, QWORD PTR this$[rsp]
	pop	rdi
	ret	0
??0?$allocator@D@std@@QEAA@AEBV01@@Z ENDP		; std::allocator<char>::allocator<char>
_TEXT	ENDS
;	COMDAT pdata
pdata	SEGMENT
$pdata$?deallocate@?$allocator@U_Container_proxy@std@@@std@@QEAAXPEAU_Container_proxy@2@_K@Z DD imagerel $LN3
	DD	imagerel $LN3+56
	DD	imagerel $unwind$?deallocate@?$allocator@U_Container_proxy@std@@@std@@QEAAXPEAU_Container_proxy@2@_K@Z
pdata	ENDS
;	COMDAT xdata
xdata	SEGMENT
$unwind$?deallocate@?$allocator@U_Container_proxy@std@@@std@@QEAAXPEAU_Container_proxy@2@_K@Z DD 022801H
	DD	070103214H
; Function compile flags: /Odtp /RTCsu
xdata	ENDS
;	COMDAT ?deallocate@?$allocator@U_Container_proxy@std@@@std@@QEAAXPEAU_Container_proxy@2@_K@Z
_TEXT	SEGMENT
this$ = 48
_Ptr$ = 56
__formal$ = 64
?deallocate@?$allocator@U_Container_proxy@std@@@std@@QEAAXPEAU_Container_proxy@2@_K@Z PROC ; std::allocator<std::_Container_proxy>::deallocate, COMDAT
; Line 181
$LN3:
	mov	QWORD PTR [rsp+24], r8
	mov	QWORD PTR [rsp+16], rdx
	mov	QWORD PTR [rsp+8], rcx
	push	rdi
	sub	rsp, 32					; 00000020H
	mov	rdi, rsp
	mov	ecx, 8
	mov	eax, -858993460				; ccccccccH
	rep stosd
	mov	rcx, QWORD PTR [rsp+48]
; Line 182
	mov	rcx, QWORD PTR _Ptr$[rsp]
	call	??3@YAXPEAX@Z				; operator delete
; Line 183
	add	rsp, 32					; 00000020H
	pop	rdi
	ret	0
?deallocate@?$allocator@U_Container_proxy@std@@@std@@QEAAXPEAU_Container_proxy@2@_K@Z ENDP ; std::allocator<std::_Container_proxy>::deallocate
_TEXT	ENDS
PUBLIC	??$_Allocate@U_Container_proxy@std@@@std@@YAPEAU_Container_proxy@0@_KPEAU10@@Z ; std::_Allocate<std::_Container_proxy>
;	COMDAT pdata
pdata	SEGMENT
$pdata$?allocate@?$allocator@U_Container_proxy@std@@@std@@QEAAPEAU_Container_proxy@2@_K@Z DD imagerel $LN3
	DD	imagerel $LN3+53
	DD	imagerel $unwind$?allocate@?$allocator@U_Container_proxy@std@@@std@@QEAAPEAU_Container_proxy@2@_K@Z
pdata	ENDS
;	COMDAT xdata
xdata	SEGMENT
$unwind$?allocate@?$allocator@U_Container_proxy@std@@@std@@QEAAPEAU_Container_proxy@2@_K@Z DD 022301H
	DD	0700b320fH
; Function compile flags: /Odtp /RTCsu
xdata	ENDS
;	COMDAT ?allocate@?$allocator@U_Container_proxy@std@@@std@@QEAAPEAU_Container_proxy@2@_K@Z
_TEXT	SEGMENT
this$ = 48
_Count$ = 56
?allocate@?$allocator@U_Container_proxy@std@@@std@@QEAAPEAU_Container_proxy@2@_K@Z PROC ; std::allocator<std::_Container_proxy>::allocate, COMDAT
; Line 186
$LN3:
	mov	QWORD PTR [rsp+16], rdx
	mov	QWORD PTR [rsp+8], rcx
	push	rdi
	sub	rsp, 32					; 00000020H
	mov	rdi, rsp
	mov	ecx, 8
	mov	eax, -858993460				; ccccccccH
	rep stosd
	mov	rcx, QWORD PTR [rsp+48]
; Line 187
	xor	edx, edx
	mov	rcx, QWORD PTR _Count$[rsp]
	call	??$_Allocate@U_Container_proxy@std@@@std@@YAPEAU_Container_proxy@0@_KPEAU10@@Z ; std::_Allocate<std::_Container_proxy>
; Line 188
	add	rsp, 32					; 00000020H
	pop	rdi
	ret	0
?allocate@?$allocator@U_Container_proxy@std@@@std@@QEAAPEAU_Container_proxy@2@_K@Z ENDP ; std::allocator<std::_Container_proxy>::allocate
_TEXT	ENDS
PUBLIC	?erase@?$basic_string@DU?$char_traits@D@std@@V?$allocator@D@2@@std@@QEAAAEAV12@_K0@Z ; std::basic_string<char,std::char_traits<char>,std::allocator<char> >::erase
;	COMDAT pdata
; File c:\program files (x86)\microsoft visual studio 10.0\vc\include\xstring
pdata	SEGMENT
$pdata$?assign@?$basic_string@DU?$char_traits@D@std@@V?$allocator@D@2@@std@@QEAAAEAV12@AEBV12@_K1@Z DD imagerel $LN8
	DD	imagerel $LN8+283
	DD	imagerel $unwind$?assign@?$basic_string@DU?$char_traits@D@std@@V?$allocator@D@2@@std@@QEAAAEAV12@AEBV12@_K1@Z
pdata	ENDS
;	COMDAT xdata
xdata	SEGMENT
$unwind$?assign@?$basic_string@DU?$char_traits@D@std@@V?$allocator@D@2@@std@@QEAAAEAV12@AEBV12@_K1@Z DD 022d01H
	DD	070155219H
; Function compile flags: /Odtp /RTCsu
xdata	ENDS
;	COMDAT ?assign@?$basic_string@DU?$char_traits@D@std@@V?$allocator@D@2@@std@@QEAAAEAV12@AEBV12@_K1@Z
_TEXT	SEGMENT
_Num$ = 32
tv90 = 40
this$ = 64
_Right$ = 72
_Roff$ = 80
_Count$ = 88
?assign@?$basic_string@DU?$char_traits@D@std@@V?$allocator@D@2@@std@@QEAAAEAV12@AEBV12@_K1@Z PROC ; std::basic_string<char,std::char_traits<char>,std::allocator<char> >::assign, COMDAT
; Line 893
$LN8:
	mov	QWORD PTR [rsp+32], r9
	mov	QWORD PTR [rsp+24], r8
	mov	QWORD PTR [rsp+16], rdx
	mov	QWORD PTR [rsp+8], rcx
	push	rdi
	sub	rsp, 48					; 00000030H
	mov	rdi, rsp
	mov	ecx, 12
	mov	eax, -858993460				; ccccccccH
	rep stosd
	mov	rcx, QWORD PTR [rsp+64]
; Line 894
	mov	rcx, QWORD PTR _Right$[rsp]
	call	?size@?$basic_string@DU?$char_traits@D@std@@V?$allocator@D@2@@std@@QEBA_KXZ ; std::basic_string<char,std::char_traits<char>,std::allocator<char> >::size
	cmp	rax, QWORD PTR _Roff$[rsp]
	jae	SHORT $LN5@assign@2
; Line 895
	mov	rcx, QWORD PTR this$[rsp]
	call	?_Xran@?$basic_string@DU?$char_traits@D@std@@V?$allocator@D@2@@std@@QEBAXXZ ; std::basic_string<char,std::char_traits<char>,std::allocator<char> >::_Xran
$LN5@assign@2:
; Line 896
	mov	rcx, QWORD PTR _Right$[rsp]
	call	?size@?$basic_string@DU?$char_traits@D@std@@V?$allocator@D@2@@std@@QEBA_KXZ ; std::basic_string<char,std::char_traits<char>,std::allocator<char> >::size
	sub	rax, QWORD PTR _Roff$[rsp]
	mov	QWORD PTR _Num$[rsp], rax
; Line 897
	mov	rax, QWORD PTR _Num$[rsp]
	cmp	QWORD PTR _Count$[rsp], rax
	jae	SHORT $LN4@assign@2
; Line 898
	mov	rax, QWORD PTR _Count$[rsp]
	mov	QWORD PTR _Num$[rsp], rax
$LN4@assign@2:
; Line 900
	mov	rax, QWORD PTR _Right$[rsp]
	cmp	QWORD PTR this$[rsp], rax
	jne	SHORT $LN3@assign@2
; Line 901
	mov	rax, QWORD PTR _Num$[rsp]
	mov	rcx, QWORD PTR _Roff$[rsp]
	add	rcx, rax
	mov	rax, rcx
	mov	r8, QWORD PTR ?npos@?$basic_string@DU?$char_traits@D@std@@V?$allocator@D@2@@std@@2_KB ; std::basic_string<char,std::char_traits<char>,std::allocator<char> >::npos
	mov	rdx, rax
	mov	rcx, QWORD PTR this$[rsp]
	call	?erase@?$basic_string@DU?$char_traits@D@std@@V?$allocator@D@2@@std@@QEAAAEAV12@_K0@Z ; std::basic_string<char,std::char_traits<char>,std::allocator<char> >::erase
	mov	r8, QWORD PTR _Roff$[rsp]
	xor	edx, edx
	mov	rcx, QWORD PTR this$[rsp]
	call	?erase@?$basic_string@DU?$char_traits@D@std@@V?$allocator@D@2@@std@@QEAAAEAV12@_K0@Z ; std::basic_string<char,std::char_traits<char>,std::allocator<char> >::erase
	jmp	SHORT $LN2@assign@2
$LN3@assign@2:
; Line 902
	xor	r8d, r8d
	mov	rdx, QWORD PTR _Num$[rsp]
	mov	rcx, QWORD PTR this$[rsp]
	call	?_Grow@?$basic_string@DU?$char_traits@D@std@@V?$allocator@D@2@@std@@QEAA_N_K_N@Z ; std::basic_string<char,std::char_traits<char>,std::allocator<char> >::_Grow
	movzx	eax, al
	test	eax, eax
	je	SHORT $LN1@assign@2
; Line 904
	mov	rcx, QWORD PTR _Right$[rsp]
	call	?_Myptr@?$basic_string@DU?$char_traits@D@std@@V?$allocator@D@2@@std@@QEBAPEBDXZ ; std::basic_string<char,std::char_traits<char>,std::allocator<char> >::_Myptr
	add	rax, QWORD PTR _Roff$[rsp]
	mov	QWORD PTR tv90[rsp], rax
	mov	rcx, QWORD PTR this$[rsp]
	call	?_Myptr@?$basic_string@DU?$char_traits@D@std@@V?$allocator@D@2@@std@@QEAAPEADXZ ; std::basic_string<char,std::char_traits<char>,std::allocator<char> >::_Myptr
	mov	r8, QWORD PTR _Num$[rsp]
	mov	rcx, QWORD PTR tv90[rsp]
	mov	rdx, rcx
	mov	rcx, rax
	call	?copy@?$char_traits@D@std@@SAPEADPEADPEBD_K@Z ; std::char_traits<char>::copy
; Line 905
	mov	rdx, QWORD PTR _Num$[rsp]
	mov	rcx, QWORD PTR this$[rsp]
	call	?_Eos@?$basic_string@DU?$char_traits@D@std@@V?$allocator@D@2@@std@@QEAAX_K@Z ; std::basic_string<char,std::char_traits<char>,std::allocator<char> >::_Eos
$LN1@assign@2:
$LN2@assign@2:
; Line 907
	mov	rax, QWORD PTR this$[rsp]
$LN7@assign@2:
; Line 908
	add	rsp, 48					; 00000030H
	pop	rdi
	ret	0
?assign@?$basic_string@DU?$char_traits@D@std@@V?$allocator@D@2@@std@@QEAAAEAV12@AEBV12@_K1@Z ENDP ; std::basic_string<char,std::char_traits<char>,std::allocator<char> >::assign
_TEXT	ENDS
PUBLIC	?move@?$char_traits@D@std@@SAPEADPEADPEBD_K@Z	; std::char_traits<char>::move
;	COMDAT pdata
pdata	SEGMENT
$pdata$?erase@?$basic_string@DU?$char_traits@D@std@@V?$allocator@D@2@@std@@QEAAAEAV12@_K0@Z DD imagerel $LN6
	DD	imagerel $LN6+263
	DD	imagerel $unwind$?erase@?$basic_string@DU?$char_traits@D@std@@V?$allocator@D@2@@std@@QEAAAEAV12@_K0@Z
pdata	ENDS
;	COMDAT xdata
xdata	SEGMENT
$unwind$?erase@?$basic_string@DU?$char_traits@D@std@@V?$allocator@D@2@@std@@QEAAAEAV12@_K0@Z DD 022801H
	DD	070107214H
; Function compile flags: /Odtp /RTCsu
xdata	ENDS
;	COMDAT ?erase@?$basic_string@DU?$char_traits@D@std@@V?$allocator@D@2@@std@@QEAAAEAV12@_K0@Z
_TEXT	SEGMENT
_Newsize$24484 = 32
tv92 = 40
tv129 = 48
this$ = 80
_Off$ = 88
_Count$ = 96
?erase@?$basic_string@DU?$char_traits@D@std@@V?$allocator@D@2@@std@@QEAAAEAV12@_K0@Z PROC ; std::basic_string<char,std::char_traits<char>,std::allocator<char> >::erase, COMDAT
; Line 1109
$LN6:
	mov	QWORD PTR [rsp+24], r8
	mov	QWORD PTR [rsp+16], rdx
	mov	QWORD PTR [rsp+8], rcx
	push	rdi
	sub	rsp, 64					; 00000040H
	mov	rdi, rsp
	mov	ecx, 16
	mov	eax, -858993460				; ccccccccH
	rep stosd
	mov	rcx, QWORD PTR [rsp+80]
; Line 1110
	mov	rax, QWORD PTR this$[rsp]
	mov	rcx, QWORD PTR _Off$[rsp]
	cmp	QWORD PTR [rax+24], rcx
	jae	SHORT $LN3@erase
; Line 1111
	mov	rcx, QWORD PTR this$[rsp]
	call	?_Xran@?$basic_string@DU?$char_traits@D@std@@V?$allocator@D@2@@std@@QEBAXXZ ; std::basic_string<char,std::char_traits<char>,std::allocator<char> >::_Xran
$LN3@erase:
; Line 1112
	mov	rax, QWORD PTR this$[rsp]
	mov	rcx, QWORD PTR _Off$[rsp]
	mov	rax, QWORD PTR [rax+24]
	sub	rax, rcx
	cmp	rax, QWORD PTR _Count$[rsp]
	jae	SHORT $LN2@erase
; Line 1113
	mov	rax, QWORD PTR this$[rsp]
	mov	rcx, QWORD PTR _Off$[rsp]
	mov	rax, QWORD PTR [rax+24]
	sub	rax, rcx
	mov	QWORD PTR _Count$[rsp], rax
$LN2@erase:
; Line 1114
	cmp	QWORD PTR _Count$[rsp], 0
	jbe	$LN1@erase
; Line 1117
	mov	rax, QWORD PTR this$[rsp]
	mov	rcx, QWORD PTR _Off$[rsp]
	mov	rax, QWORD PTR [rax+24]
	sub	rax, rcx
	sub	rax, QWORD PTR _Count$[rsp]
	mov	QWORD PTR tv92[rsp], rax
	mov	rcx, QWORD PTR this$[rsp]
	call	?_Myptr@?$basic_string@DU?$char_traits@D@std@@V?$allocator@D@2@@std@@QEAAPEADXZ ; std::basic_string<char,std::char_traits<char>,std::allocator<char> >::_Myptr
	add	rax, QWORD PTR _Off$[rsp]
	add	rax, QWORD PTR _Count$[rsp]
	mov	QWORD PTR tv129[rsp], rax
	mov	rcx, QWORD PTR this$[rsp]
	call	?_Myptr@?$basic_string@DU?$char_traits@D@std@@V?$allocator@D@2@@std@@QEAAPEADXZ ; std::basic_string<char,std::char_traits<char>,std::allocator<char> >::_Myptr
	add	rax, QWORD PTR _Off$[rsp]
	mov	rcx, QWORD PTR tv92[rsp]
	mov	r8, rcx
	mov	rcx, QWORD PTR tv129[rsp]
	mov	rdx, rcx
	mov	rcx, rax
	call	?move@?$char_traits@D@std@@SAPEADPEADPEBD_K@Z ; std::char_traits<char>::move
; Line 1118
	mov	rax, QWORD PTR this$[rsp]
	mov	rcx, QWORD PTR _Count$[rsp]
	mov	rax, QWORD PTR [rax+24]
	sub	rax, rcx
	mov	QWORD PTR _Newsize$24484[rsp], rax
; Line 1119
	mov	rdx, QWORD PTR _Newsize$24484[rsp]
	mov	rcx, QWORD PTR this$[rsp]
	call	?_Eos@?$basic_string@DU?$char_traits@D@std@@V?$allocator@D@2@@std@@QEAAX_K@Z ; std::basic_string<char,std::char_traits<char>,std::allocator<char> >::_Eos
$LN1@erase:
; Line 1121
	mov	rax, QWORD PTR this$[rsp]
$LN5@erase:
; Line 1122
	add	rsp, 64					; 00000040H
	pop	rdi
	ret	0
?erase@?$basic_string@DU?$char_traits@D@std@@V?$allocator@D@2@@std@@QEAAAEAV12@_K0@Z ENDP ; std::basic_string<char,std::char_traits<char>,std::allocator<char> >::erase
_TEXT	ENDS
EXTRN	memmove:PROC
;	COMDAT pdata
; File c:\program files (x86)\microsoft visual studio 10.0\vc\include\iosfwd
pdata	SEGMENT
$pdata$?move@?$char_traits@D@std@@SAPEADPEADPEBD_K@Z DD imagerel $LN3
	DD	imagerel $LN3+66
	DD	imagerel $unwind$?move@?$char_traits@D@std@@SAPEADPEADPEBD_K@Z
pdata	ENDS
;	COMDAT xdata
xdata	SEGMENT
$unwind$?move@?$char_traits@D@std@@SAPEADPEADPEBD_K@Z DD 022801H
	DD	070103214H
; Function compile flags: /Odtp /RTCsu
xdata	ENDS
;	COMDAT ?move@?$char_traits@D@std@@SAPEADPEADPEBD_K@Z
_TEXT	SEGMENT
_First1$ = 48
_First2$ = 56
_Count$ = 64
?move@?$char_traits@D@std@@SAPEADPEADPEBD_K@Z PROC	; std::char_traits<char>::move, COMDAT
; Line 516
$LN3:
	mov	QWORD PTR [rsp+24], r8
	mov	QWORD PTR [rsp+16], rdx
	mov	QWORD PTR [rsp+8], rcx
	push	rdi
	sub	rsp, 32					; 00000020H
	mov	rdi, rsp
	mov	ecx, 8
	mov	eax, -858993460				; ccccccccH
	rep stosd
	mov	rcx, QWORD PTR [rsp+48]
; Line 517
	mov	r8, QWORD PTR _Count$[rsp]
	mov	rdx, QWORD PTR _First2$[rsp]
	mov	rcx, QWORD PTR _First1$[rsp]
	call	memmove
; Line 518
	add	rsp, 32					; 00000020H
	pop	rdi
	ret	0
?move@?$char_traits@D@std@@SAPEADPEADPEBD_K@Z ENDP	; std::char_traits<char>::move
_TEXT	ENDS
;	COMDAT pdata
; File c:\program files (x86)\microsoft visual studio 10.0\vc\include\xmemory
pdata	SEGMENT
$pdata$??$?0D@?$allocator@U_Container_proxy@std@@@std@@QEAA@AEBV?$allocator@D@1@@Z DD imagerel $LN3
	DD	imagerel $LN3+18
	DD	imagerel $unwind$??$?0D@?$allocator@U_Container_proxy@std@@@std@@QEAA@AEBV?$allocator@D@1@@Z
pdata	ENDS
;	COMDAT xdata
xdata	SEGMENT
$unwind$??$?0D@?$allocator@U_Container_proxy@std@@@std@@QEAA@AEBV?$allocator@D@1@@Z DD 010b01H
	DD	0700bH
; Function compile flags: /Odtp /RTCsu
xdata	ENDS
;	COMDAT ??$?0D@?$allocator@U_Container_proxy@std@@@std@@QEAA@AEBV?$allocator@D@1@@Z
_TEXT	SEGMENT
this$ = 16
__formal$ = 24
??$?0D@?$allocator@U_Container_proxy@std@@@std@@QEAA@AEBV?$allocator@D@1@@Z PROC ; std::allocator<std::_Container_proxy>::allocator<std::_Container_proxy><char>, COMDAT
; Line 170
$LN3:
	mov	QWORD PTR [rsp+16], rdx
	mov	QWORD PTR [rsp+8], rcx
	push	rdi
; Line 172
	mov	rax, QWORD PTR this$[rsp]
	pop	rdi
	ret	0
??$?0D@?$allocator@U_Container_proxy@std@@@std@@QEAA@AEBV?$allocator@D@1@@Z ENDP ; std::allocator<std::_Container_proxy>::allocator<std::_Container_proxy><char>
_TEXT	ENDS
PUBLIC	?construct@?$allocator@U_Container_proxy@std@@@std@@QEAAXPEAU_Container_proxy@2@$$QEAU32@@Z ; std::allocator<std::_Container_proxy>::construct
PUBLIC	??$forward@U_Container_proxy@std@@@std@@YA$$QEAU_Container_proxy@0@AEAU10@@Z ; std::forward<std::_Container_proxy>
;	COMDAT pdata
pdata	SEGMENT
$pdata$??$_Cons_val@V?$allocator@U_Container_proxy@std@@@std@@U_Container_proxy@2@U32@@std@@YAXAEAV?$allocator@U_Container_proxy@std@@@0@PEAU_Container_proxy@0@$$QEAU20@@Z DD imagerel $LN3
	DD	imagerel $LN3+74
	DD	imagerel $unwind$??$_Cons_val@V?$allocator@U_Container_proxy@std@@@std@@U_Container_proxy@2@U32@@std@@YAXAEAV?$allocator@U_Container_proxy@std@@@0@PEAU_Container_proxy@0@$$QEAU20@@Z
pdata	ENDS
;	COMDAT xdata
xdata	SEGMENT
$unwind$??$_Cons_val@V?$allocator@U_Container_proxy@std@@@std@@U_Container_proxy@2@U32@@std@@YAXAEAV?$allocator@U_Container_proxy@std@@@0@PEAU_Container_proxy@0@$$QEAU20@@Z DD 022801H
	DD	070103214H
; Function compile flags: /Odtp /RTCsu
xdata	ENDS
;	COMDAT ??$_Cons_val@V?$allocator@U_Container_proxy@std@@@std@@U_Container_proxy@2@U32@@std@@YAXAEAV?$allocator@U_Container_proxy@std@@@0@PEAU_Container_proxy@0@$$QEAU20@@Z
_TEXT	SEGMENT
_Alval$ = 48
_Pdest$ = 56
_Src$ = 64
??$_Cons_val@V?$allocator@U_Container_proxy@std@@@std@@U_Container_proxy@2@U32@@std@@YAXAEAV?$allocator@U_Container_proxy@std@@@0@PEAU_Container_proxy@0@$$QEAU20@@Z PROC ; std::_Cons_val<std::allocator<std::_Container_proxy>,std::_Container_proxy,std::_Container_proxy>, COMDAT
; Line 279
$LN3:
	mov	QWORD PTR [rsp+24], r8
	mov	QWORD PTR [rsp+16], rdx
	mov	QWORD PTR [rsp+8], rcx
	push	rdi
	sub	rsp, 32					; 00000020H
	mov	rdi, rsp
	mov	ecx, 8
	mov	eax, -858993460				; ccccccccH
	rep stosd
	mov	rcx, QWORD PTR [rsp+48]
; Line 280
	mov	rcx, QWORD PTR _Src$[rsp]
	call	??$forward@U_Container_proxy@std@@@std@@YA$$QEAU_Container_proxy@0@AEAU10@@Z ; std::forward<std::_Container_proxy>
	mov	r8, rax
	mov	rdx, QWORD PTR _Pdest$[rsp]
	mov	rcx, QWORD PTR _Alval$[rsp]
	call	?construct@?$allocator@U_Container_proxy@std@@@std@@QEAAXPEAU_Container_proxy@2@$$QEAU32@@Z ; std::allocator<std::_Container_proxy>::construct
; Line 281
	add	rsp, 32					; 00000020H
	pop	rdi
	ret	0
??$_Cons_val@V?$allocator@U_Container_proxy@std@@@std@@U_Container_proxy@2@U32@@std@@YAXAEAV?$allocator@U_Container_proxy@std@@@0@PEAU_Container_proxy@0@$$QEAU20@@Z ENDP ; std::_Cons_val<std::allocator<std::_Container_proxy>,std::_Container_proxy,std::_Container_proxy>
_TEXT	ENDS
PUBLIC	?destroy@?$allocator@U_Container_proxy@std@@@std@@QEAAXPEAU_Container_proxy@2@@Z ; std::allocator<std::_Container_proxy>::destroy
;	COMDAT pdata
pdata	SEGMENT
$pdata$??$_Dest_val@V?$allocator@U_Container_proxy@std@@@std@@U_Container_proxy@2@@std@@YAXAEAV?$allocator@U_Container_proxy@std@@@0@PEAU_Container_proxy@0@@Z DD imagerel $LN3
	DD	imagerel $LN3+56
	DD	imagerel $unwind$??$_Dest_val@V?$allocator@U_Container_proxy@std@@@std@@U_Container_proxy@2@@std@@YAXAEAV?$allocator@U_Container_proxy@std@@@0@PEAU_Container_proxy@0@@Z
pdata	ENDS
;	COMDAT xdata
xdata	SEGMENT
$unwind$??$_Dest_val@V?$allocator@U_Container_proxy@std@@@std@@U_Container_proxy@2@@std@@YAXAEAV?$allocator@U_Container_proxy@std@@@0@PEAU_Container_proxy@0@@Z DD 022301H
	DD	0700b320fH
; Function compile flags: /Odtp /RTCsu
xdata	ENDS
;	COMDAT ??$_Dest_val@V?$allocator@U_Container_proxy@std@@@std@@U_Container_proxy@2@@std@@YAXAEAV?$allocator@U_Container_proxy@std@@@0@PEAU_Container_proxy@0@@Z
_TEXT	SEGMENT
_Alval$ = 48
_Pdest$ = 56
??$_Dest_val@V?$allocator@U_Container_proxy@std@@@std@@U_Container_proxy@2@@std@@YAXAEAV?$allocator@U_Container_proxy@std@@@0@PEAU_Container_proxy@0@@Z PROC ; std::_Dest_val<std::allocator<std::_Container_proxy>,std::_Container_proxy>, COMDAT
; Line 286
$LN3:
	mov	QWORD PTR [rsp+16], rdx
	mov	QWORD PTR [rsp+8], rcx
	push	rdi
	sub	rsp, 32					; 00000020H
	mov	rdi, rsp
	mov	ecx, 8
	mov	eax, -858993460				; ccccccccH
	rep stosd
	mov	rcx, QWORD PTR [rsp+48]
; Line 287
	mov	rdx, QWORD PTR _Pdest$[rsp]
	mov	rcx, QWORD PTR _Alval$[rsp]
	call	?destroy@?$allocator@U_Container_proxy@std@@@std@@QEAAXPEAU_Container_proxy@2@@Z ; std::allocator<std::_Container_proxy>::destroy
; Line 288
	add	rsp, 32					; 00000020H
	pop	rdi
	ret	0
??$_Dest_val@V?$allocator@U_Container_proxy@std@@@std@@U_Container_proxy@2@@std@@YAXAEAV?$allocator@U_Container_proxy@std@@@0@PEAU_Container_proxy@0@@Z ENDP ; std::_Dest_val<std::allocator<std::_Container_proxy>,std::_Container_proxy>
_TEXT	ENDS
;	COMDAT pdata
pdata	SEGMENT
$pdata$??$_Allocate@U_Container_proxy@std@@@std@@YAPEAU_Container_proxy@0@_KPEAU10@@Z DD imagerel $LN7
	DD	imagerel $LN7+150
	DD	imagerel $unwind$??$_Allocate@U_Container_proxy@std@@@std@@YAPEAU_Container_proxy@0@_KPEAU10@@Z
pdata	ENDS
;	COMDAT xdata
xdata	SEGMENT
$unwind$??$_Allocate@U_Container_proxy@std@@@std@@YAPEAU_Container_proxy@0@_KPEAU10@@Z DD 022301H
	DD	0700b720fH
; Function compile flags: /Odtp /RTCsu
xdata	ENDS
;	COMDAT ??$_Allocate@U_Container_proxy@std@@@std@@YAPEAU_Container_proxy@0@_KPEAU10@@Z
_TEXT	SEGMENT
_Ptr$ = 32
$T28070 = 40
_Count$ = 80
__formal$ = 88
??$_Allocate@U_Container_proxy@std@@@std@@YAPEAU_Container_proxy@0@_KPEAU10@@Z PROC ; std::_Allocate<std::_Container_proxy>, COMDAT
; Line 30
$LN7:
	mov	QWORD PTR [rsp+16], rdx
	mov	QWORD PTR [rsp+8], rcx
	push	rdi
	sub	rsp, 64					; 00000040H
	mov	rdi, rsp
	mov	ecx, 16
	mov	eax, -858993460				; ccccccccH
	rep stosd
	mov	rcx, QWORD PTR [rsp+80]
; Line 31
	mov	QWORD PTR _Ptr$[rsp], 0
; Line 33
	cmp	QWORD PTR _Count$[rsp], 0
	ja	SHORT $LN4@Allocate@2
; Line 34
	mov	QWORD PTR _Count$[rsp], 0
; Line 35
	jmp	SHORT $LN3@Allocate@2
$LN4@Allocate@2:
; Line 36
	mov	rax, 1152921504606846975		; 0fffffffffffffffH
	cmp	QWORD PTR _Count$[rsp], rax
	ja	SHORT $LN1@Allocate@2
	mov	rax, QWORD PTR _Count$[rsp]
	imul	rax, 16
	mov	rcx, rax
	call	??2@YAPEAX_K@Z				; operator new
	mov	QWORD PTR _Ptr$[rsp], rax
	cmp	QWORD PTR _Ptr$[rsp], 0
	jne	SHORT $LN2@Allocate@2
$LN1@Allocate@2:
; Line 37
	xor	edx, edx
	lea	rcx, QWORD PTR $T28070[rsp]
	call	??0bad_alloc@std@@QEAA@PEBD@Z		; std::bad_alloc::bad_alloc
	lea	rdx, OFFSET FLAT:_TI2?AVbad_alloc@std@@
	lea	rcx, QWORD PTR $T28070[rsp]
	call	_CxxThrowException
$LN2@Allocate@2:
$LN3@Allocate@2:
; Line 39
	mov	rax, QWORD PTR _Ptr$[rsp]
$LN6@Allocate@2:
; Line 40
	add	rsp, 64					; 00000040H
	pop	rdi
	ret	0
??$_Allocate@U_Container_proxy@std@@@std@@YAPEAU_Container_proxy@0@_KPEAU10@@Z ENDP ; std::_Allocate<std::_Container_proxy>
_TEXT	ENDS
PUBLIC	??3@YAXPEAX0@Z					; operator delete
PUBLIC	$T28087
PUBLIC	??2@YAPEAX_KPEAX@Z				; operator new
;	COMDAT pdata
pdata	SEGMENT
$pdata$?construct@?$allocator@U_Container_proxy@std@@@std@@QEAAXPEAU_Container_proxy@2@$$QEAU32@@Z DD imagerel $LN6
	DD	imagerel $LN6+167
	DD	imagerel $unwind$?construct@?$allocator@U_Container_proxy@std@@@std@@QEAAXPEAU_Container_proxy@2@$$QEAU32@@Z
pdata	ENDS
;	COMDAT pdata
pdata	SEGMENT
$pdata$?dtor$0@?0??construct@?$allocator@U_Container_proxy@std@@@std@@QEAAXPEAU_Container_proxy@2@$$QEAU32@@Z@4HA DD imagerel ?dtor$0@?0??construct@?$allocator@U_Container_proxy@std@@@std@@QEAAXPEAU_Container_proxy@2@$$QEAU32@@Z@4HA
	DD	imagerel ?dtor$0@?0??construct@?$allocator@U_Container_proxy@std@@@std@@QEAAXPEAU_Container_proxy@2@$$QEAU32@@Z@4HA+39
	DD	imagerel $unwind$?dtor$0@?0??construct@?$allocator@U_Container_proxy@std@@@std@@QEAAXPEAU_Container_proxy@2@$$QEAU32@@Z@4HA
pdata	ENDS
;	COMDAT xdata
xdata	SEGMENT
$ip2state$?construct@?$allocator@U_Container_proxy@std@@@std@@QEAAXPEAU_Container_proxy@2@$$QEAU32@@Z DD imagerel ?construct@?$allocator@U_Container_proxy@std@@@std@@QEAAXPEAU_Container_proxy@2@$$QEAU32@@Z
	DD	0ffffffffH
	DD	imagerel ?construct@?$allocator@U_Container_proxy@std@@@std@@QEAAXPEAU_Container_proxy@2@$$QEAU32@@Z+70
	DD	00H
	DD	imagerel ?construct@?$allocator@U_Container_proxy@std@@@std@@QEAAXPEAU_Container_proxy@2@$$QEAU32@@Z+160
	DD	0ffffffffH
xdata	ENDS
;	COMDAT xdata
xdata	SEGMENT
$unwind$?dtor$0@?0??construct@?$allocator@U_Container_proxy@std@@@std@@QEAAXPEAU_Container_proxy@2@$$QEAU32@@Z@4HA DD 031001H
	DD	0700c4210H
	DD	0500bH
xdata	ENDS
;	COMDAT xdata
xdata	SEGMENT
$unwind$?construct@?$allocator@U_Container_proxy@std@@@std@@QEAAXPEAU_Container_proxy@2@$$QEAU32@@Z DD 033211H
	DD	07011a215H
	DD	06010H
	DD	imagerel __CxxFrameHandler3
	DD	imagerel $cppxdata$?construct@?$allocator@U_Container_proxy@std@@@std@@QEAAXPEAU_Container_proxy@2@$$QEAU32@@Z
xdata	ENDS
;	COMDAT CONST
CONST	SEGMENT
$cppxdata$?construct@?$allocator@U_Container_proxy@std@@@std@@QEAAXPEAU_Container_proxy@2@$$QEAU32@@Z DD 019930522H
	DD	01H
	DD	imagerel $stateUnwindMap$?construct@?$allocator@U_Container_proxy@std@@@std@@QEAAXPEAU_Container_proxy@2@$$QEAU32@@Z
	DD	00H
	DD	00H
	DD	03H
	DD	imagerel $ip2state$?construct@?$allocator@U_Container_proxy@std@@@std@@QEAAXPEAU_Container_proxy@2@$$QEAU32@@Z
	DD	040H
	DD	00H
	DD	01H
CONST	ENDS
;	COMDAT xdata
xdata	SEGMENT
$stateUnwindMap$?construct@?$allocator@U_Container_proxy@std@@@std@@QEAAXPEAU_Container_proxy@2@$$QEAU32@@Z DD 0ffffffffH
	DD	imagerel ?dtor$0@?0??construct@?$allocator@U_Container_proxy@std@@@std@@QEAAXPEAU_Container_proxy@2@$$QEAU32@@Z@4HA
; Function compile flags: /Odtp /RTCsu
xdata	ENDS
;	COMDAT ?construct@?$allocator@U_Container_proxy@std@@@std@@QEAAXPEAU_Container_proxy@2@$$QEAU32@@Z
_TEXT	SEGMENT
$T28078 = 32
$T28079 = 40
$T28087 = 48
$T28088 = 64
tv74 = 72
this$ = 112
_Ptr$ = 120
_Val$ = 128
?construct@?$allocator@U_Container_proxy@std@@@std@@QEAAXPEAU_Container_proxy@2@$$QEAU32@@Z PROC ; std::allocator<std::_Container_proxy>::construct, COMDAT
; Line 201
$LN6:
	mov	QWORD PTR [rsp+24], r8
	mov	QWORD PTR [rsp+16], rdx
	mov	QWORD PTR [rsp+8], rcx
	push	rsi
	push	rdi
	sub	rsp, 88					; 00000058H
	mov	rdi, rsp
	mov	ecx, 22
	mov	eax, -858993460				; ccccccccH
	rep stosd
	mov	rcx, QWORD PTR [rsp+112]
	mov	QWORD PTR $T28088[rsp], -2
; Line 202
	mov	rdx, QWORD PTR _Ptr$[rsp]
	mov	ecx, 16
	call	??2@YAPEAX_KPEAX@Z			; operator new
	mov	QWORD PTR $T28079[rsp], rax
	cmp	QWORD PTR $T28079[rsp], 0
	je	SHORT $LN3@construct
	mov	rcx, QWORD PTR _Val$[rsp]
	call	??$forward@U_Container_proxy@std@@@std@@YA$$QEAU_Container_proxy@0@AEAU10@@Z ; std::forward<std::_Container_proxy>
	lea	rcx, QWORD PTR $T28087[rsp]
	mov	rdi, rcx
	mov	rsi, rax
	mov	ecx, 16
	rep movsb
	lea	rax, QWORD PTR $T28087[rsp]
	mov	rdi, QWORD PTR $T28079[rsp]
	mov	rsi, rax
	mov	ecx, 16
	rep movsb
	mov	rax, QWORD PTR $T28079[rsp]
	mov	QWORD PTR tv74[rsp], rax
	jmp	SHORT $LN4@construct
$LN3@construct:
	mov	QWORD PTR tv74[rsp], 0
$LN4@construct:
	mov	rax, QWORD PTR tv74[rsp]
	mov	QWORD PTR $T28078[rsp], rax
; Line 203
	add	rsp, 88					; 00000058H
	pop	rdi
	pop	rsi
	ret	0
?construct@?$allocator@U_Container_proxy@std@@@std@@QEAAXPEAU_Container_proxy@2@$$QEAU32@@Z ENDP ; std::allocator<std::_Container_proxy>::construct
; Function compile flags: /Odtp /RTCsu
_TEXT	ENDS
;	COMDAT text$x
text$x	SEGMENT
$T28078 = 32
$T28079 = 40
$T28087 = 48
$T28088 = 64
tv74 = 72
this$ = 112
_Ptr$ = 120
_Val$ = 128
?dtor$0@?0??construct@?$allocator@U_Container_proxy@std@@@std@@QEAAXPEAU_Container_proxy@2@$$QEAU32@@Z@4HA PROC ; `std::allocator<std::_Container_proxy>::construct'::`1'::dtor$0
	mov	QWORD PTR [rsp+8], rcx
	mov	QWORD PTR [rsp+16], rdx
	push	rbp
	push	rdi
	sub	rsp, 40					; 00000028H
	mov	rbp, rdx
	mov	rdx, QWORD PTR _Ptr$[rbp]
	mov	rcx, QWORD PTR $T28079[rbp]
	call	??3@YAXPEAX0@Z				; operator delete
	add	rsp, 40					; 00000028H
	pop	rdi
	pop	rbp
	ret	0
?dtor$0@?0??construct@?$allocator@U_Container_proxy@std@@@std@@QEAAXPEAU_Container_proxy@2@$$QEAU32@@Z@4HA ENDP ; `std::allocator<std::_Container_proxy>::construct'::`1'::dtor$0
text$x	ENDS
;	COMDAT pdata
; File c:\program files (x86)\microsoft visual studio 10.0\vc\include\new
pdata	SEGMENT
$pdata$??2@YAPEAX_KPEAX@Z DD imagerel $LN3
	DD	imagerel $LN3+18
	DD	imagerel $unwind$??2@YAPEAX_KPEAX@Z
pdata	ENDS
;	COMDAT xdata
xdata	SEGMENT
$unwind$??2@YAPEAX_KPEAX@Z DD 010b01H
	DD	0700bH
; Function compile flags: /Odtp /RTCsu
xdata	ENDS
;	COMDAT ??2@YAPEAX_KPEAX@Z
_TEXT	SEGMENT
__formal$ = 16
_Where$ = 24
??2@YAPEAX_KPEAX@Z PROC					; operator new, COMDAT
; Line 56
$LN3:
	mov	QWORD PTR [rsp+16], rdx
	mov	QWORD PTR [rsp+8], rcx
	push	rdi
; Line 57
	mov	rax, QWORD PTR _Where$[rsp]
; Line 58
	pop	rdi
	ret	0
??2@YAPEAX_KPEAX@Z ENDP					; operator new
_TEXT	ENDS
;	COMDAT pdata
pdata	SEGMENT
$pdata$??3@YAXPEAX0@Z DD imagerel $LN3
	DD	imagerel $LN3+13
	DD	imagerel $unwind$??3@YAXPEAX0@Z
pdata	ENDS
;	COMDAT xdata
xdata	SEGMENT
$unwind$??3@YAXPEAX0@Z DD 010b01H
	DD	0700bH
; Function compile flags: /Odtp /RTCsu
xdata	ENDS
;	COMDAT ??3@YAXPEAX0@Z
_TEXT	SEGMENT
__formal$ = 16
__formal$ = 24
??3@YAXPEAX0@Z PROC					; operator delete, COMDAT
; Line 61
$LN3:
	mov	QWORD PTR [rsp+16], rdx
	mov	QWORD PTR [rsp+8], rcx
	push	rdi
; Line 62
	pop	rdi
	ret	0
??3@YAXPEAX0@Z ENDP					; operator delete
_TEXT	ENDS
PUBLIC	??$_Destroy@U_Container_proxy@std@@@std@@YAXPEAU_Container_proxy@0@@Z ; std::_Destroy<std::_Container_proxy>
;	COMDAT pdata
; File c:\program files (x86)\microsoft visual studio 10.0\vc\include\xmemory
pdata	SEGMENT
$pdata$?destroy@?$allocator@U_Container_proxy@std@@@std@@QEAAXPEAU_Container_proxy@2@@Z DD imagerel $LN3
	DD	imagerel $LN3+51
	DD	imagerel $unwind$?destroy@?$allocator@U_Container_proxy@std@@@std@@QEAAXPEAU_Container_proxy@2@@Z
pdata	ENDS
;	COMDAT xdata
xdata	SEGMENT
$unwind$?destroy@?$allocator@U_Container_proxy@std@@@std@@QEAAXPEAU_Container_proxy@2@@Z DD 022301H
	DD	0700b320fH
; Function compile flags: /Odtp /RTCsu
xdata	ENDS
;	COMDAT ?destroy@?$allocator@U_Container_proxy@std@@@std@@QEAAXPEAU_Container_proxy@2@@Z
_TEXT	SEGMENT
this$ = 48
_Ptr$ = 56
?destroy@?$allocator@U_Container_proxy@std@@@std@@QEAAXPEAU_Container_proxy@2@@Z PROC ; std::allocator<std::_Container_proxy>::destroy, COMDAT
; Line 212
$LN3:
	mov	QWORD PTR [rsp+16], rdx
	mov	QWORD PTR [rsp+8], rcx
	push	rdi
	sub	rsp, 32					; 00000020H
	mov	rdi, rsp
	mov	ecx, 8
	mov	eax, -858993460				; ccccccccH
	rep stosd
	mov	rcx, QWORD PTR [rsp+48]
; Line 213
	mov	rcx, QWORD PTR _Ptr$[rsp]
	call	??$_Destroy@U_Container_proxy@std@@@std@@YAXPEAU_Container_proxy@0@@Z ; std::_Destroy<std::_Container_proxy>
; Line 214
	add	rsp, 32					; 00000020H
	pop	rdi
	ret	0
?destroy@?$allocator@U_Container_proxy@std@@@std@@QEAAXPEAU_Container_proxy@2@@Z ENDP ; std::allocator<std::_Container_proxy>::destroy
_TEXT	ENDS
;	COMDAT pdata
; File c:\program files (x86)\microsoft visual studio 10.0\vc\include\utility
pdata	SEGMENT
$pdata$??$forward@U_Container_proxy@std@@@std@@YA$$QEAU_Container_proxy@0@AEAU10@@Z DD imagerel $LN3
	DD	imagerel $LN3+13
	DD	imagerel $unwind$??$forward@U_Container_proxy@std@@@std@@YA$$QEAU_Container_proxy@0@AEAU10@@Z
pdata	ENDS
;	COMDAT xdata
xdata	SEGMENT
$unwind$??$forward@U_Container_proxy@std@@@std@@YA$$QEAU_Container_proxy@0@AEAU10@@Z DD 010601H
	DD	07006H
; Function compile flags: /Odtp /RTCsu
xdata	ENDS
;	COMDAT ??$forward@U_Container_proxy@std@@@std@@YA$$QEAU_Container_proxy@0@AEAU10@@Z
_TEXT	SEGMENT
_Arg$ = 16
??$forward@U_Container_proxy@std@@@std@@YA$$QEAU_Container_proxy@0@AEAU10@@Z PROC ; std::forward<std::_Container_proxy>, COMDAT
; Line 78
$LN3:
	mov	QWORD PTR [rsp+8], rcx
	push	rdi
; Line 79
	mov	rax, QWORD PTR _Arg$[rsp]
; Line 80
	pop	rdi
	ret	0
??$forward@U_Container_proxy@std@@@std@@YA$$QEAU_Container_proxy@0@AEAU10@@Z ENDP ; std::forward<std::_Container_proxy>
_TEXT	ENDS
;	COMDAT pdata
; File c:\program files (x86)\microsoft visual studio 10.0\vc\include\xmemory
pdata	SEGMENT
$pdata$??$_Destroy@U_Container_proxy@std@@@std@@YAXPEAU_Container_proxy@0@@Z DD imagerel $LN3
	DD	imagerel $LN3+8
	DD	imagerel $unwind$??$_Destroy@U_Container_proxy@std@@@std@@YAXPEAU_Container_proxy@0@@Z
pdata	ENDS
;	COMDAT xdata
xdata	SEGMENT
$unwind$??$_Destroy@U_Container_proxy@std@@@std@@YAXPEAU_Container_proxy@0@@Z DD 010601H
	DD	07006H
; Function compile flags: /Odtp /RTCsu
xdata	ENDS
;	COMDAT ??$_Destroy@U_Container_proxy@std@@@std@@YAXPEAU_Container_proxy@0@@Z
_TEXT	SEGMENT
_Ptr$ = 16
??$_Destroy@U_Container_proxy@std@@@std@@YAXPEAU_Container_proxy@0@@Z PROC ; std::_Destroy<std::_Container_proxy>, COMDAT
; Line 62
$LN3:
	mov	QWORD PTR [rsp+8], rcx
	push	rdi
; Line 64
	pop	rdi
	ret	0
??$_Destroy@U_Container_proxy@std@@@std@@YAXPEAU_Container_proxy@0@@Z ENDP ; std::_Destroy<std::_Container_proxy>
_TEXT	ENDS
;	COMDAT pdata
; File c:\users\mark\documents\devmaster_raytracing\raytracer3.0.06.no_rec.samp\openclcode.cpp
pdata	SEGMENT
$pdata$??__EoutputLine2@@YAXXZ DD imagerel ??__EoutputLine2@@YAXXZ
	DD	imagerel ??__EoutputLine2@@YAXXZ+58
	DD	imagerel $unwind$??__EoutputLine2@@YAXXZ
pdata	ENDS
;	COMDAT xdata
xdata	SEGMENT
$unwind$??__EoutputLine2@@YAXXZ DD 021501H
	DD	070023206H
; Function compile flags: /Odtp /RTCsu
xdata	ENDS
;	COMDAT ??__EoutputLine2@@YAXXZ
text$yc	SEGMENT
??__EoutputLine2@@YAXXZ PROC				; `dynamic initializer for 'outputLine2'', COMDAT
; Line 23
	push	rdi
	sub	rsp, 32					; 00000020H
	mov	rdi, rsp
	mov	ecx, 8
	mov	eax, -858993460				; ccccccccH
	rep stosd
	lea	rdx, OFFSET FLAT:$SG23091
	lea	rcx, OFFSET FLAT:?outputLine2@@3V?$basic_string@DU?$char_traits@D@std@@V?$allocator@D@2@@std@@A ; outputLine2
	call	??0?$basic_string@DU?$char_traits@D@std@@V?$allocator@D@2@@std@@QEAA@PEBD@Z ; std::basic_string<char,std::char_traits<char>,std::allocator<char> >::basic_string<char,std::char_traits<char>,std::allocator<char> >
	lea	rcx, OFFSET FLAT:??__FoutputLine2@@YAXXZ ; `dynamic atexit destructor for 'outputLine2''
	call	atexit
	add	rsp, 32					; 00000020H
	pop	rdi
	ret	0
??__EoutputLine2@@YAXXZ ENDP				; `dynamic initializer for 'outputLine2''
text$yc	ENDS
;	COMDAT pdata
pdata	SEGMENT
$pdata$??__EoutputLine3@@YAXXZ DD imagerel ??__EoutputLine3@@YAXXZ
	DD	imagerel ??__EoutputLine3@@YAXXZ+58
	DD	imagerel $unwind$??__EoutputLine3@@YAXXZ
pdata	ENDS
;	COMDAT xdata
xdata	SEGMENT
$unwind$??__EoutputLine3@@YAXXZ DD 021501H
	DD	070023206H
; Function compile flags: /Odtp /RTCsu
xdata	ENDS
;	COMDAT ??__EoutputLine3@@YAXXZ
text$yc	SEGMENT
??__EoutputLine3@@YAXXZ PROC				; `dynamic initializer for 'outputLine3'', COMDAT
; Line 24
	push	rdi
	sub	rsp, 32					; 00000020H
	mov	rdi, rsp
	mov	ecx, 8
	mov	eax, -858993460				; ccccccccH
	rep stosd
	lea	rdx, OFFSET FLAT:$SG23098
	lea	rcx, OFFSET FLAT:?outputLine3@@3V?$basic_string@DU?$char_traits@D@std@@V?$allocator@D@2@@std@@A ; outputLine3
	call	??0?$basic_string@DU?$char_traits@D@std@@V?$allocator@D@2@@std@@QEAA@PEBD@Z ; std::basic_string<char,std::char_traits<char>,std::allocator<char> >::basic_string<char,std::char_traits<char>,std::allocator<char> >
	lea	rcx, OFFSET FLAT:??__FoutputLine3@@YAXXZ ; `dynamic atexit destructor for 'outputLine3''
	call	atexit
	add	rsp, 32					; 00000020H
	pop	rdi
	ret	0
??__EoutputLine3@@YAXXZ ENDP				; `dynamic initializer for 'outputLine3''
text$yc	ENDS
;	COMDAT pdata
pdata	SEGMENT
$pdata$??__EoutputLine4@@YAXXZ DD imagerel ??__EoutputLine4@@YAXXZ
	DD	imagerel ??__EoutputLine4@@YAXXZ+58
	DD	imagerel $unwind$??__EoutputLine4@@YAXXZ
pdata	ENDS
;	COMDAT xdata
xdata	SEGMENT
$unwind$??__EoutputLine4@@YAXXZ DD 021501H
	DD	070023206H
; Function compile flags: /Odtp /RTCsu
xdata	ENDS
;	COMDAT ??__EoutputLine4@@YAXXZ
text$yc	SEGMENT
??__EoutputLine4@@YAXXZ PROC				; `dynamic initializer for 'outputLine4'', COMDAT
; Line 25
	push	rdi
	sub	rsp, 32					; 00000020H
	mov	rdi, rsp
	mov	ecx, 8
	mov	eax, -858993460				; ccccccccH
	rep stosd
	lea	rdx, OFFSET FLAT:$SG23105
	lea	rcx, OFFSET FLAT:?outputLine4@@3V?$basic_string@DU?$char_traits@D@std@@V?$allocator@D@2@@std@@A ; outputLine4
	call	??0?$basic_string@DU?$char_traits@D@std@@V?$allocator@D@2@@std@@QEAA@PEBD@Z ; std::basic_string<char,std::char_traits<char>,std::allocator<char> >::basic_string<char,std::char_traits<char>,std::allocator<char> >
	lea	rcx, OFFSET FLAT:??__FoutputLine4@@YAXXZ ; `dynamic atexit destructor for 'outputLine4''
	call	atexit
	add	rsp, 32					; 00000020H
	pop	rdi
	ret	0
??__EoutputLine4@@YAXXZ ENDP				; `dynamic initializer for 'outputLine4''
text$yc	ENDS
;	COMDAT pdata
pdata	SEGMENT
$pdata$??__EoutputLine5@@YAXXZ DD imagerel ??__EoutputLine5@@YAXXZ
	DD	imagerel ??__EoutputLine5@@YAXXZ+58
	DD	imagerel $unwind$??__EoutputLine5@@YAXXZ
pdata	ENDS
;	COMDAT xdata
xdata	SEGMENT
$unwind$??__EoutputLine5@@YAXXZ DD 021501H
	DD	070023206H
; Function compile flags: /Odtp /RTCsu
xdata	ENDS
;	COMDAT ??__EoutputLine5@@YAXXZ
text$yc	SEGMENT
??__EoutputLine5@@YAXXZ PROC				; `dynamic initializer for 'outputLine5'', COMDAT
; Line 26
	push	rdi
	sub	rsp, 32					; 00000020H
	mov	rdi, rsp
	mov	ecx, 8
	mov	eax, -858993460				; ccccccccH
	rep stosd
	lea	rdx, OFFSET FLAT:$SG23112
	lea	rcx, OFFSET FLAT:?outputLine5@@3V?$basic_string@DU?$char_traits@D@std@@V?$allocator@D@2@@std@@A ; outputLine5
	call	??0?$basic_string@DU?$char_traits@D@std@@V?$allocator@D@2@@std@@QEAA@PEBD@Z ; std::basic_string<char,std::char_traits<char>,std::allocator<char> >::basic_string<char,std::char_traits<char>,std::allocator<char> >
	lea	rcx, OFFSET FLAT:??__FoutputLine5@@YAXXZ ; `dynamic atexit destructor for 'outputLine5''
	call	atexit
	add	rsp, 32					; 00000020H
	pop	rdi
	ret	0
??__EoutputLine5@@YAXXZ ENDP				; `dynamic initializer for 'outputLine5''
text$yc	ENDS
;	COMDAT pdata
pdata	SEGMENT
$pdata$??__EoutputLine6@@YAXXZ DD imagerel ??__EoutputLine6@@YAXXZ
	DD	imagerel ??__EoutputLine6@@YAXXZ+58
	DD	imagerel $unwind$??__EoutputLine6@@YAXXZ
pdata	ENDS
;	COMDAT xdata
xdata	SEGMENT
$unwind$??__EoutputLine6@@YAXXZ DD 021501H
	DD	070023206H
; Function compile flags: /Odtp /RTCsu
xdata	ENDS
;	COMDAT ??__EoutputLine6@@YAXXZ
text$yc	SEGMENT
??__EoutputLine6@@YAXXZ PROC				; `dynamic initializer for 'outputLine6'', COMDAT
; Line 27
	push	rdi
	sub	rsp, 32					; 00000020H
	mov	rdi, rsp
	mov	ecx, 8
	mov	eax, -858993460				; ccccccccH
	rep stosd
	lea	rdx, OFFSET FLAT:$SG23119
	lea	rcx, OFFSET FLAT:?outputLine6@@3V?$basic_string@DU?$char_traits@D@std@@V?$allocator@D@2@@std@@A ; outputLine6
	call	??0?$basic_string@DU?$char_traits@D@std@@V?$allocator@D@2@@std@@QEAA@PEBD@Z ; std::basic_string<char,std::char_traits<char>,std::allocator<char> >::basic_string<char,std::char_traits<char>,std::allocator<char> >
	lea	rcx, OFFSET FLAT:??__FoutputLine6@@YAXXZ ; `dynamic atexit destructor for 'outputLine6''
	call	atexit
	add	rsp, 32					; 00000020H
	pop	rdi
	ret	0
??__EoutputLine6@@YAXXZ ENDP				; `dynamic initializer for 'outputLine6''
text$yc	ENDS
;	COMDAT pdata
pdata	SEGMENT
$pdata$??__EoutputLine7@@YAXXZ DD imagerel ??__EoutputLine7@@YAXXZ
	DD	imagerel ??__EoutputLine7@@YAXXZ+58
	DD	imagerel $unwind$??__EoutputLine7@@YAXXZ
pdata	ENDS
;	COMDAT xdata
xdata	SEGMENT
$unwind$??__EoutputLine7@@YAXXZ DD 021501H
	DD	070023206H
; Function compile flags: /Odtp /RTCsu
xdata	ENDS
;	COMDAT ??__EoutputLine7@@YAXXZ
text$yc	SEGMENT
??__EoutputLine7@@YAXXZ PROC				; `dynamic initializer for 'outputLine7'', COMDAT
; Line 28
	push	rdi
	sub	rsp, 32					; 00000020H
	mov	rdi, rsp
	mov	ecx, 8
	mov	eax, -858993460				; ccccccccH
	rep stosd
	lea	rdx, OFFSET FLAT:$SG23126
	lea	rcx, OFFSET FLAT:?outputLine7@@3V?$basic_string@DU?$char_traits@D@std@@V?$allocator@D@2@@std@@A ; outputLine7
	call	??0?$basic_string@DU?$char_traits@D@std@@V?$allocator@D@2@@std@@QEAA@PEBD@Z ; std::basic_string<char,std::char_traits<char>,std::allocator<char> >::basic_string<char,std::char_traits<char>,std::allocator<char> >
	lea	rcx, OFFSET FLAT:??__FoutputLine7@@YAXXZ ; `dynamic atexit destructor for 'outputLine7''
	call	atexit
	add	rsp, 32					; 00000020H
	pop	rdi
	ret	0
??__EoutputLine7@@YAXXZ ENDP				; `dynamic initializer for 'outputLine7''
text$yc	ENDS
;	COMDAT pdata
pdata	SEGMENT
$pdata$??__EoutputLine8@@YAXXZ DD imagerel ??__EoutputLine8@@YAXXZ
	DD	imagerel ??__EoutputLine8@@YAXXZ+58
	DD	imagerel $unwind$??__EoutputLine8@@YAXXZ
pdata	ENDS
;	COMDAT xdata
xdata	SEGMENT
$unwind$??__EoutputLine8@@YAXXZ DD 021501H
	DD	070023206H
; Function compile flags: /Odtp /RTCsu
xdata	ENDS
;	COMDAT ??__EoutputLine8@@YAXXZ
text$yc	SEGMENT
??__EoutputLine8@@YAXXZ PROC				; `dynamic initializer for 'outputLine8'', COMDAT
; Line 29
	push	rdi
	sub	rsp, 32					; 00000020H
	mov	rdi, rsp
	mov	ecx, 8
	mov	eax, -858993460				; ccccccccH
	rep stosd
	lea	rdx, OFFSET FLAT:$SG23133
	lea	rcx, OFFSET FLAT:?outputLine8@@3V?$basic_string@DU?$char_traits@D@std@@V?$allocator@D@2@@std@@A ; outputLine8
	call	??0?$basic_string@DU?$char_traits@D@std@@V?$allocator@D@2@@std@@QEAA@PEBD@Z ; std::basic_string<char,std::char_traits<char>,std::allocator<char> >::basic_string<char,std::char_traits<char>,std::allocator<char> >
	lea	rcx, OFFSET FLAT:??__FoutputLine8@@YAXXZ ; `dynamic atexit destructor for 'outputLine8''
	call	atexit
	add	rsp, 32					; 00000020H
	pop	rdi
	ret	0
??__EoutputLine8@@YAXXZ ENDP				; `dynamic initializer for 'outputLine8''
text$yc	ENDS
;	COMDAT pdata
pdata	SEGMENT
$pdata$??__EoutputLine9@@YAXXZ DD imagerel ??__EoutputLine9@@YAXXZ
	DD	imagerel ??__EoutputLine9@@YAXXZ+58
	DD	imagerel $unwind$??__EoutputLine9@@YAXXZ
pdata	ENDS
;	COMDAT xdata
xdata	SEGMENT
$unwind$??__EoutputLine9@@YAXXZ DD 021501H
	DD	070023206H
; Function compile flags: /Odtp /RTCsu
xdata	ENDS
;	COMDAT ??__EoutputLine9@@YAXXZ
text$yc	SEGMENT
??__EoutputLine9@@YAXXZ PROC				; `dynamic initializer for 'outputLine9'', COMDAT
; Line 30
	push	rdi
	sub	rsp, 32					; 00000020H
	mov	rdi, rsp
	mov	ecx, 8
	mov	eax, -858993460				; ccccccccH
	rep stosd
	lea	rdx, OFFSET FLAT:$SG23140
	lea	rcx, OFFSET FLAT:?outputLine9@@3V?$basic_string@DU?$char_traits@D@std@@V?$allocator@D@2@@std@@A ; outputLine9
	call	??0?$basic_string@DU?$char_traits@D@std@@V?$allocator@D@2@@std@@QEAA@PEBD@Z ; std::basic_string<char,std::char_traits<char>,std::allocator<char> >::basic_string<char,std::char_traits<char>,std::allocator<char> >
	lea	rcx, OFFSET FLAT:??__FoutputLine9@@YAXXZ ; `dynamic atexit destructor for 'outputLine9''
	call	atexit
	add	rsp, 32					; 00000020H
	pop	rdi
	ret	0
??__EoutputLine9@@YAXXZ ENDP				; `dynamic initializer for 'outputLine9''
text$yc	ENDS
PUBLIC	??1?$basic_string@DU?$char_traits@D@std@@V?$allocator@D@2@@std@@QEAA@XZ ; std::basic_string<char,std::char_traits<char>,std::allocator<char> >::~basic_string<char,std::char_traits<char>,std::allocator<char> >
;	COMDAT pdata
pdata	SEGMENT
$pdata$??__FoutputLine1@@YAXXZ DD imagerel ??__FoutputLine1@@YAXXZ
	DD	imagerel ??__FoutputLine1@@YAXXZ+39
	DD	imagerel $unwind$??__FoutputLine1@@YAXXZ
pdata	ENDS
;	COMDAT xdata
xdata	SEGMENT
$unwind$??__FoutputLine1@@YAXXZ DD 021501H
	DD	070023206H
; Function compile flags: /Odtp /RTCsu
xdata	ENDS
;	COMDAT ??__FoutputLine1@@YAXXZ
text$yd	SEGMENT
??__FoutputLine1@@YAXXZ PROC				; `dynamic atexit destructor for 'outputLine1'', COMDAT
	push	rdi
	sub	rsp, 32					; 00000020H
	mov	rdi, rsp
	mov	ecx, 8
	mov	eax, -858993460				; ccccccccH
	rep stosd
	lea	rcx, OFFSET FLAT:?outputLine1@@3V?$basic_string@DU?$char_traits@D@std@@V?$allocator@D@2@@std@@A ; outputLine1
	call	??1?$basic_string@DU?$char_traits@D@std@@V?$allocator@D@2@@std@@QEAA@XZ ; std::basic_string<char,std::char_traits<char>,std::allocator<char> >::~basic_string<char,std::char_traits<char>,std::allocator<char> >
	add	rsp, 32					; 00000020H
	pop	rdi
	ret	0
??__FoutputLine1@@YAXXZ ENDP				; `dynamic atexit destructor for 'outputLine1''
text$yd	ENDS
;	COMDAT pdata
; File c:\program files (x86)\microsoft visual studio 10.0\vc\include\xstring
pdata	SEGMENT
$pdata$??1?$basic_string@DU?$char_traits@D@std@@V?$allocator@D@2@@std@@QEAA@XZ DD imagerel $LN4
	DD	imagerel $LN4+71
	DD	imagerel $unwind$??1?$basic_string@DU?$char_traits@D@std@@V?$allocator@D@2@@std@@QEAA@XZ
pdata	ENDS
;	COMDAT pdata
pdata	SEGMENT
$pdata$?dtor$0@?0???1?$basic_string@DU?$char_traits@D@std@@V?$allocator@D@2@@std@@QEAA@XZ@4HA DD imagerel ?dtor$0@?0???1?$basic_string@DU?$char_traits@D@std@@V?$allocator@D@2@@std@@QEAA@XZ@4HA
	DD	imagerel ?dtor$0@?0???1?$basic_string@DU?$char_traits@D@std@@V?$allocator@D@2@@std@@QEAA@XZ@4HA+35
	DD	imagerel $unwind$?dtor$0@?0???1?$basic_string@DU?$char_traits@D@std@@V?$allocator@D@2@@std@@QEAA@XZ@4HA
pdata	ENDS
;	COMDAT xdata
xdata	SEGMENT
$ip2state$??1?$basic_string@DU?$char_traits@D@std@@V?$allocator@D@2@@std@@QEAA@XZ DD imagerel ??1?$basic_string@DU?$char_traits@D@std@@V?$allocator@D@2@@std@@QEAA@XZ
	DD	0ffffffffH
	DD	imagerel ??1?$basic_string@DU?$char_traits@D@std@@V?$allocator@D@2@@std@@QEAA@XZ+39
	DD	00H
	DD	imagerel ??1?$basic_string@DU?$char_traits@D@std@@V?$allocator@D@2@@std@@QEAA@XZ+55
	DD	0ffffffffH
xdata	ENDS
;	COMDAT xdata
xdata	SEGMENT
$unwind$?dtor$0@?0???1?$basic_string@DU?$char_traits@D@std@@V?$allocator@D@2@@std@@QEAA@XZ@4HA DD 031001H
	DD	0700c4210H
	DD	0500bH
xdata	ENDS
;	COMDAT xdata
xdata	SEGMENT
$unwind$??1?$basic_string@DU?$char_traits@D@std@@V?$allocator@D@2@@std@@QEAA@XZ DD 022711H
	DD	07006520aH
	DD	imagerel __CxxFrameHandler3
	DD	imagerel $cppxdata$??1?$basic_string@DU?$char_traits@D@std@@V?$allocator@D@2@@std@@QEAA@XZ
xdata	ENDS
;	COMDAT CONST
CONST	SEGMENT
$cppxdata$??1?$basic_string@DU?$char_traits@D@std@@V?$allocator@D@2@@std@@QEAA@XZ DD 019930522H
	DD	01H
	DD	imagerel $stateUnwindMap$??1?$basic_string@DU?$char_traits@D@std@@V?$allocator@D@2@@std@@QEAA@XZ
	DD	00H
	DD	00H
	DD	03H
	DD	imagerel $ip2state$??1?$basic_string@DU?$char_traits@D@std@@V?$allocator@D@2@@std@@QEAA@XZ
	DD	020H
	DD	00H
	DD	01H
CONST	ENDS
;	COMDAT xdata
xdata	SEGMENT
$stateUnwindMap$??1?$basic_string@DU?$char_traits@D@std@@V?$allocator@D@2@@std@@QEAA@XZ DD 0ffffffffH
	DD	imagerel ?dtor$0@?0???1?$basic_string@DU?$char_traits@D@std@@V?$allocator@D@2@@std@@QEAA@XZ@4HA
; Function compile flags: /Odtp /RTCsu
xdata	ENDS
;	COMDAT ??1?$basic_string@DU?$char_traits@D@std@@V?$allocator@D@2@@std@@QEAA@XZ
_TEXT	SEGMENT
$T28200 = 32
this$ = 64
??1?$basic_string@DU?$char_traits@D@std@@V?$allocator@D@2@@std@@QEAA@XZ PROC ; std::basic_string<char,std::char_traits<char>,std::allocator<char> >::~basic_string<char,std::char_traits<char>,std::allocator<char> >, COMDAT
; Line 753
$LN4:
	mov	QWORD PTR [rsp+8], rcx
	push	rdi
	sub	rsp, 48					; 00000030H
	mov	rdi, rsp
	mov	ecx, 12
	mov	eax, -858993460				; ccccccccH
	rep stosd
	mov	rcx, QWORD PTR [rsp+64]
	mov	QWORD PTR $T28200[rsp], -2
; Line 754
	xor	r8d, r8d
	mov	dl, 1
	mov	rcx, QWORD PTR this$[rsp]
	call	?_Tidy@?$basic_string@DU?$char_traits@D@std@@V?$allocator@D@2@@std@@QEAAX_N_K@Z ; std::basic_string<char,std::char_traits<char>,std::allocator<char> >::_Tidy
	npad	1
; Line 755
	mov	rcx, QWORD PTR this$[rsp]
	call	??1?$_String_val@DV?$allocator@D@std@@@std@@QEAA@XZ ; std::_String_val<char,std::allocator<char> >::~_String_val<char,std::allocator<char> >
	add	rsp, 48					; 00000030H
	pop	rdi
	ret	0
