; Listing generated by Microsoft (R) Optimizing Compiler Version 16.00.30319.01 

include listing.inc

INCLUDELIB LIBCMTD
INCLUDELIB OLDNAMES

PUBLIC	?Engine_Constructor@@YAXXZ			; Engine_Constructor
EXTRN	?m_Scene@@3PEAUScene@@EA:QWORD			; m_Scene
EXTRN	malloc:PROC
EXTRN	_RTC_Shutdown:PROC
EXTRN	_RTC_InitBase:PROC
pdata	SEGMENT
$pdata$?Engine_Constructor@@YAXXZ DD imagerel $LN3
	DD	imagerel $LN3+44
	DD	imagerel $unwind$?Engine_Constructor@@YAXXZ
pdata	ENDS
xdata	SEGMENT
$unwind$?Engine_Constructor@@YAXXZ DD 021501H
	DD	070023206H
xdata	ENDS
;	COMDAT rtc$TMZ
; File c:\users\mark\documents\devmaster_raytracing\raytracer3.0.06.no_rec.samp\raytracer.cpp
rtc$TMZ	SEGMENT
_RTC_Shutdown.rtc$TMZ DQ FLAT:_RTC_Shutdown
rtc$TMZ	ENDS
;	COMDAT rtc$IMZ
rtc$IMZ	SEGMENT
_RTC_InitBase.rtc$IMZ DQ FLAT:_RTC_InitBase
; Function compile flags: /Odtp /RTCsu
rtc$IMZ	ENDS
_TEXT	SEGMENT
?Engine_Constructor@@YAXXZ PROC				; Engine_Constructor
; Line 12
$LN3:
	push	rdi
	sub	rsp, 32					; 00000020H
	mov	rdi, rsp
	mov	ecx, 8
	mov	eax, -858993460				; ccccccccH
	rep stosd
; Line 13
	mov	ecx, 16
	call	malloc
	mov	QWORD PTR ?m_Scene@@3PEAUScene@@EA, rax	; m_Scene
; Line 14
	add	rsp, 32					; 00000020H
	pop	rdi
	ret	0
?Engine_Constructor@@YAXXZ ENDP				; Engine_Constructor
_TEXT	ENDS
PUBLIC	?Engine_SetTarget@@YAXPEAIHH@Z			; Engine_SetTarget
EXTRN	?m_Height@@3HA:DWORD				; m_Height
EXTRN	?m_Width@@3HA:DWORD				; m_Width
EXTRN	?m_Dest@@3PEAIEA:QWORD				; m_Dest
pdata	SEGMENT
$pdata$?Engine_SetTarget@@YAXPEAIHH@Z DD imagerel $LN3
	DD	imagerel $LN3+49
	DD	imagerel $unwind$?Engine_SetTarget@@YAXPEAIHH@Z
pdata	ENDS
xdata	SEGMENT
$unwind$?Engine_SetTarget@@YAXPEAIHH@Z DD 010f01H
	DD	0700fH
; Function compile flags: /Odtp /RTCsu
xdata	ENDS
_TEXT	SEGMENT
a_Dest$ = 16
a_Width$ = 24
a_Height$ = 32
?Engine_SetTarget@@YAXPEAIHH@Z PROC			; Engine_SetTarget
; Line 17
$LN3:
	mov	DWORD PTR [rsp+24], r8d
	mov	DWORD PTR [rsp+16], edx
	mov	QWORD PTR [rsp+8], rcx
	push	rdi
; Line 19
	mov	rax, QWORD PTR a_Dest$[rsp]
	mov	QWORD PTR ?m_Dest@@3PEAIEA, rax		; m_Dest
; Line 20
	mov	eax, DWORD PTR a_Width$[rsp]
	mov	DWORD PTR ?m_Width@@3HA, eax		; m_Width
; Line 21
	mov	eax, DWORD PTR a_Height$[rsp]
	mov	DWORD PTR ?m_Height@@3HA, eax		; m_Height
; Line 22
	pop	rdi
	ret	0
?Engine_SetTarget@@YAXPEAIHH@Z ENDP			; Engine_SetTarget
_TEXT	ENDS
PUBLIC	$T67313
PUBLIC	$T67305
PUBLIC	$T67306
PUBLIC	$T67314
PUBLIC	__mask@@NegFloat@
PUBLIC	$T67303
PUBLIC	$T67304
PUBLIC	__real@41a00000
PUBLIC	__real@40000000
PUBLIC	$T67318
PUBLIC	$T67301
PUBLIC	$T67302
PUBLIC	?sqrt@@YAMM@Z					; sqrt
PUBLIC	__real@00000000
PUBLIC	$T67319
PUBLIC	__real@3a83126f
PUBLIC	?vector3_Set@@YAXPEAUvector3@@MMM@Z		; vector3_Set
PUBLIC	$T67320
PUBLIC	$T67321
PUBLIC	__real@3f800000
PUBLIC	__real@49742400
PUBLIC	__$ArrayPad$
PUBLIC	?Engine_Raytrace@@YAHPEAURay@@PEAUvector3@@HPEAM22PEAH0230@Z ; Engine_Raytrace
EXTRN	__GSHandlerCheck:PROC
EXTRN	powf:PROC
EXTRN	?Primitive_GetNormal@@YAXPEAUvector3@@UPrimitive@@U1@@Z:PROC ; Primitive_GetNormal
EXTRN	sqrtf:PROC
EXTRN	?Primitive_Intersect@@YAHPEAUPrimitive@@PEAURay@@PEAM@Z:PROC ; Primitive_Intersect
EXTRN	__security_cookie:QWORD
EXTRN	_fltused:DWORD
EXTRN	__security_check_cookie:PROC
EXTRN	_RTC_CheckStackVars:PROC
EXTRN	_RTC_UninitUse:PROC
pdata	SEGMENT
$pdata$?Engine_Raytrace@@YAHPEAURay@@PEAUvector3@@HPEAM22PEAH0230@Z DD imagerel $LN38
	DD	imagerel $LN38+5171
	DD	imagerel $unwind$?Engine_Raytrace@@YAHPEAURay@@PEAUvector3@@HPEAM22PEAH0230@Z
pdata	ENDS
xdata	SEGMENT
$unwind$?Engine_Raytrace@@YAHPEAURay@@PEAUvector3@@HPEAM22PEAH0230@Z DD 044619H
	DD	0eb011dH
	DD	060157016H
	DD	imagerel __GSHandlerCheck
	DD	0740H
xdata	ENDS
;	COMDAT __mask@@NegFloat@
CONST	SEGMENT
__mask@@NegFloat@ DB 00H, 00H, 00H, 080H, 00H, 00H, 00H, 080H, 00H, 00H, 00H
	DB	080H, 00H, 00H, 00H, 080H
CONST	ENDS
;	COMDAT __real@41a00000
CONST	SEGMENT
__real@41a00000 DD 041a00000r			; 20
CONST	ENDS
;	COMDAT __real@40000000
CONST	SEGMENT
__real@40000000 DD 040000000r			; 2
CONST	ENDS
;	COMDAT __real@00000000
CONST	SEGMENT
__real@00000000 DD 000000000r			; 0
CONST	ENDS
;	COMDAT __real@3a83126f
CONST	SEGMENT
__real@3a83126f DD 03a83126fr			; 0.001
CONST	ENDS
;	COMDAT __real@3f800000
CONST	SEGMENT
__real@3f800000 DD 03f800000r			; 1
CONST	ENDS
;	COMDAT __real@49742400
CONST	SEGMENT
__real@49742400 DD 049742400r			; 1e+006
CONST	ENDS
CONST	SEGMENT
?Engine_Raytrace@@YAHPEAURay@@PEAUvector3@@HPEAM22PEAH0230@Z$rtcName$0 DB 072H ; Engine_Raytrace
	DB	065H
	DB	073H
	DB	075H
	DB	06cH
	DB	074H
	DB	00H
	ORG $+1
?Engine_Raytrace@@YAHPEAURay@@PEAUvector3@@HPEAM22PEAH0230@Z$rtcName$1 DB 072H ; Engine_Raytrace
	DB	00H
	ORG $+2
?Engine_Raytrace@@YAHPEAURay@@PEAUvector3@@HPEAM22PEAH0230@Z$rtcName$2 DB 070H ; Engine_Raytrace
	DB	069H
	DB	00H
	ORG $+1
?Engine_Raytrace@@YAHPEAURay@@PEAUvector3@@HPEAM22PEAH0230@Z$rtcName$3 DB 070H ; Engine_Raytrace
	DB	00H
	ORG $+2
?Engine_Raytrace@@YAHPEAURay@@PEAUvector3@@HPEAM22PEAH0230@Z$rtcName$4 DB 06cH ; Engine_Raytrace
	DB	069H
	DB	067H
	DB	068H
	DB	074H
	DB	00H
	ORG $+2
?Engine_Raytrace@@YAHPEAURay@@PEAUvector3@@HPEAM22PEAH0230@Z$rtcName$5 DB 04cH ; Engine_Raytrace
	DB	00H
	ORG $+2
?Engine_Raytrace@@YAHPEAURay@@PEAUvector3@@HPEAM22PEAH0230@Z$rtcName$6 DB 074H ; Engine_Raytrace
	DB	064H
	DB	069H
	DB	073H
	DB	074H
	DB	00H
	ORG $+2
?Engine_Raytrace@@YAHPEAURay@@PEAUvector3@@HPEAM22PEAH0230@Z$rtcName$7 DB 072H ; Engine_Raytrace
	DB	00H
	ORG $+2
?Engine_Raytrace@@YAHPEAURay@@PEAUvector3@@HPEAM22PEAH0230@Z$rtcName$8 DB 070H ; Engine_Raytrace
	DB	072H
	DB	00H
	ORG $+1
?Engine_Raytrace@@YAHPEAURay@@PEAUvector3@@HPEAM22PEAH0230@Z$rtcName$9 DB 04cH ; Engine_Raytrace
	DB	00H
	ORG $+2
?Engine_Raytrace@@YAHPEAURay@@PEAUvector3@@HPEAM22PEAH0230@Z$rtcName$10 DB 04eH ; Engine_Raytrace
	DB	00H
	ORG $+2
?Engine_Raytrace@@YAHPEAURay@@PEAUvector3@@HPEAM22PEAH0230@Z$rtcName$11 DB 064H ; Engine_Raytrace
	DB	075H
	DB	06dH
	DB	06dH
	DB	079H
	DB	05fH
	DB	076H
	DB	065H
	DB	063H
	DB	074H
	DB	06fH
	DB	072H
	DB	00H
	ORG $+3
?Engine_Raytrace@@YAHPEAURay@@PEAUvector3@@HPEAM22PEAH0230@Z$rtcName$12 DB 056H ; Engine_Raytrace
	DB	00H
	ORG $+2
?Engine_Raytrace@@YAHPEAURay@@PEAUvector3@@HPEAM22PEAH0230@Z$rtcName$13 DB 052H ; Engine_Raytrace
	DB	00H
	ORG $+2
?Engine_Raytrace@@YAHPEAURay@@PEAUvector3@@HPEAM22PEAH0230@Z$rtcName$14 DB 04eH ; Engine_Raytrace
	DB	00H
	ORG $+2
?Engine_Raytrace@@YAHPEAURay@@PEAUvector3@@HPEAM22PEAH0230@Z$rtcName$16 DB 054H ; Engine_Raytrace
	DB	00H
	ORG $+2
?Engine_Raytrace@@YAHPEAURay@@PEAUvector3@@HPEAM22PEAH0230@Z$rtcName$15 DB 064H ; Engine_Raytrace
	DB	069H
	DB	072H
	DB	046H
	DB	06fH
	DB	072H
	DB	054H
	DB	00H
?Engine_Raytrace@@YAHPEAURay@@PEAUvector3@@HPEAM22PEAH0230@Z$rtcName$17 DB 04eH ; Engine_Raytrace
	DB	00H
	ORG $+2
?Engine_Raytrace@@YAHPEAURay@@PEAUvector3@@HPEAM22PEAH0230@Z$rtcName$18 DB 052H ; Engine_Raytrace
	DB	00H
	ORG $+2
?Engine_Raytrace@@YAHPEAURay@@PEAUvector3@@HPEAM22PEAH0230@Z$rtcName$19 DB 064H ; Engine_Raytrace
	DB	069H
	DB	072H
	DB	046H
	DB	06fH
	DB	072H
	DB	052H
	DB	00H
?Engine_Raytrace@@YAHPEAURay@@PEAUvector3@@HPEAM22PEAH0230@Z$rtcVarDesc DD 0498H ; Engine_Raytrace
	DD	0cH
	DQ	FLAT:?Engine_Raytrace@@YAHPEAURay@@PEAUvector3@@HPEAM22PEAH0230@Z$rtcName$19
	DD	0468H
	DD	0cH
	DQ	FLAT:?Engine_Raytrace@@YAHPEAURay@@PEAUvector3@@HPEAM22PEAH0230@Z$rtcName$18
	DD	0438H
	DD	0cH
	DQ	FLAT:?Engine_Raytrace@@YAHPEAURay@@PEAUvector3@@HPEAM22PEAH0230@Z$rtcName$17
	DD	0408H
	DD	0cH
	DQ	FLAT:?Engine_Raytrace@@YAHPEAURay@@PEAUvector3@@HPEAM22PEAH0230@Z$rtcName$16
	DD	03d8H
	DD	0cH
	DQ	FLAT:?Engine_Raytrace@@YAHPEAURay@@PEAUvector3@@HPEAM22PEAH0230@Z$rtcName$15
	DD	03a8H
	DD	0cH
	DQ	FLAT:?Engine_Raytrace@@YAHPEAURay@@PEAUvector3@@HPEAM22PEAH0230@Z$rtcName$14
	DD	0368H
	DD	0cH
	DQ	FLAT:?Engine_Raytrace@@YAHPEAURay@@PEAUvector3@@HPEAM22PEAH0230@Z$rtcName$13
	DD	0338H
	DD	0cH
	DQ	FLAT:?Engine_Raytrace@@YAHPEAURay@@PEAUvector3@@HPEAM22PEAH0230@Z$rtcName$12
	DD	0308H
	DD	0cH
	DQ	FLAT:?Engine_Raytrace@@YAHPEAURay@@PEAUvector3@@HPEAM22PEAH0230@Z$rtcName$11
	DD	02d8H
	DD	0cH
	DQ	FLAT:?Engine_Raytrace@@YAHPEAURay@@PEAUvector3@@HPEAM22PEAH0230@Z$rtcName$10
	DD	02a8H
	DD	0cH
	DQ	FLAT:?Engine_Raytrace@@YAHPEAURay@@PEAUvector3@@HPEAM22PEAH0230@Z$rtcName$9
	DD	0230H
	DD	060H
	DQ	FLAT:?Engine_Raytrace@@YAHPEAURay@@PEAUvector3@@HPEAM22PEAH0230@Z$rtcName$8
	DD	01f8H
	DD	018H
	DQ	FLAT:?Engine_Raytrace@@YAHPEAURay@@PEAUvector3@@HPEAM22PEAH0230@Z$rtcName$7
	DD	01d4H
	DD	04H
	DQ	FLAT:?Engine_Raytrace@@YAHPEAURay@@PEAUvector3@@HPEAM22PEAH0230@Z$rtcName$6
	DD	01a8H
	DD	0cH
	DQ	FLAT:?Engine_Raytrace@@YAHPEAURay@@PEAUvector3@@HPEAM22PEAH0230@Z$rtcName$5
	DD	0130H
	DD	060H
	DQ	FLAT:?Engine_Raytrace@@YAHPEAURay@@PEAUvector3@@HPEAM22PEAH0230@Z$rtcName$4
	DD	0b0H
	DD	060H
	DQ	FLAT:?Engine_Raytrace@@YAHPEAURay@@PEAUvector3@@HPEAM22PEAH0230@Z$rtcName$3
	DD	078H
	DD	0cH
	DQ	FLAT:?Engine_Raytrace@@YAHPEAURay@@PEAUvector3@@HPEAM22PEAH0230@Z$rtcName$2
	DD	048H
	DD	018H
	DQ	FLAT:?Engine_Raytrace@@YAHPEAURay@@PEAUvector3@@HPEAM22PEAH0230@Z$rtcName$1
	ORG $+912
?Engine_Raytrace@@YAHPEAURay@@PEAUvector3@@HPEAM22PEAH0230@Z$rtcFrameData DD 013H ; Engine_Raytrace
	DD	00H
	DQ	FLAT:?Engine_Raytrace@@YAHPEAURay@@PEAUvector3@@HPEAM22PEAH0230@Z$rtcVarDesc
; Function compile flags: /Odtp /RTCsu
CONST	ENDS
_TEXT	SEGMENT
prim_index$ = 32
result$ = 36
hitOnce$ = 40
s$66943 = 44
res$66947 = 48
r$66952 = 72
pi$66953 = 120
p_index$66954 = 148
p$66958 = 176
light$66960 = 304
shade$66961 = 404
L$66963 = 424
tdist$66964 = 468
r$66965 = 504
s$66966 = 532
pr$66970 = 560
L$66975 = 680
L_len$66976 = 708
N$66979 = 728
dot$66981 = 756
diff$66983 = 760
dummy_vector$66984 = 776
V$66986 = 824
R$66987 = 872
tempDot$66988 = 900
dot$66989 = 904
primSpec$66991 = 908
spec$66992 = 912
rindex$66994 = 916
n$66995 = 920
N$66996 = 936
cosI$67000 = 964
cosT2$67001 = 968
dirForT$67003 = 984
T$67004 = 1032
N$67008 = 1080
R$67009 = 1128
dirForR$67010 = 1176
dotForR$67011 = 1204
$T67301 = 1216
$T67302 = 1312
$T67303 = 1328
$T67304 = 1424
$T67305 = 1440
$T67306 = 1536
$T67307 = 1552
$T67313 = 1560
$T67314 = 1576
$T67318 = 1592
$T67319 = 1608
$T67320 = 1704
$T67321 = 1800
tv174 = 1824
tv463 = 1828
tv464 = 1832
tv472 = 1836
tv473 = 1840
tv513 = 1844
tv514 = 1848
__$ArrayPad$ = 1856
a_Ray$ = 1904
a_Acc$ = 1912
a_Depth$ = 1920
a_RIndex$ = 1928
a_Dist$ = 1936
a_refl$ = 1944
a_refl_Index$ = 1952
a_refl_Ray$ = 1960
a_refr$ = 1968
a_refr_Index$ = 1976
a_refr_Ray$ = 1984
?Engine_Raytrace@@YAHPEAURay@@PEAUvector3@@HPEAM22PEAH0230@Z PROC ; Engine_Raytrace
; Line 31
$LN38:
	mov	QWORD PTR [rsp+32], r9
	mov	DWORD PTR [rsp+24], r8d
	mov	QWORD PTR [rsp+16], rdx
	mov	QWORD PTR [rsp+8], rcx
	push	rsi
	push	rdi
	sub	rsp, 1880				; 00000758H
	mov	rdi, rsp
	mov	ecx, 470				; 000001d6H
	mov	eax, -858993460				; ccccccccH
	rep stosd
	mov	rcx, QWORD PTR [rsp+1904]
	mov	rax, QWORD PTR __security_cookie
	xor	rax, rsp
	mov	QWORD PTR __$ArrayPad$[rsp], rax
	mov	BYTE PTR $T67307[rsp], 0
; Line 32
	cmp	DWORD PTR a_Depth$[rsp], 4
	jle	SHORT $LN32@Engine_Ray
	mov	eax, -1
	jmp	$LN33@Engine_Ray
$LN32@Engine_Ray:
; Line 34
	mov	rax, QWORD PTR a_Dist$[rsp]
	movss	xmm0, DWORD PTR __real@49742400
	movss	DWORD PTR [rax], xmm0
; Line 35
	mov	DWORD PTR prim_index$[rsp], 0
; Line 37
	mov	DWORD PTR hitOnce$[rsp], 0
; Line 39
	mov	DWORD PTR s$66943[rsp], 0
	jmp	SHORT $LN31@Engine_Ray
$LN30@Engine_Ray:
	mov	eax, DWORD PTR s$66943[rsp]
	inc	eax
	mov	DWORD PTR s$66943[rsp], eax
$LN31@Engine_Ray:
	mov	rax, QWORD PTR ?m_Scene@@3PEAUScene@@EA	; m_Scene
	mov	eax, DWORD PTR [rax]
	cmp	DWORD PTR s$66943[rsp], eax
	jge	SHORT $LN29@Engine_Ray
; Line 43
	movsxd	rax, DWORD PTR s$66943[rsp]
	imul	rax, 96					; 00000060H
	mov	rcx, QWORD PTR ?m_Scene@@3PEAUScene@@EA	; m_Scene
	add	rax, QWORD PTR [rcx+8]
	mov	r8, QWORD PTR a_Dist$[rsp]
	mov	rdx, QWORD PTR a_Ray$[rsp]
	mov	rcx, rax
	call	?Primitive_Intersect@@YAHPEAUPrimitive@@PEAURay@@PEAM@Z ; Primitive_Intersect
	mov	DWORD PTR res$66947[rsp], eax
	cmp	DWORD PTR res$66947[rsp], 0
	je	SHORT $LN28@Engine_Ray
; Line 45
	mov	DWORD PTR hitOnce$[rsp], 1
; Line 46
	mov	eax, DWORD PTR s$66943[rsp]
	mov	DWORD PTR prim_index$[rsp], eax
; Line 47
	mov	BYTE PTR $T67307[rsp], 1
	mov	eax, DWORD PTR res$66947[rsp]
	mov	DWORD PTR result$[rsp], eax
$LN28@Engine_Ray:
; Line 49
	jmp	SHORT $LN30@Engine_Ray
$LN29@Engine_Ray:
; Line 51
	cmp	DWORD PTR hitOnce$[rsp], 0
	jne	SHORT $LN27@Engine_Ray
	mov	eax, -1
	jmp	$LN33@Engine_Ray
$LN27@Engine_Ray:
; Line 53
	movsxd	rax, DWORD PTR prim_index$[rsp]
	imul	rax, 96					; 00000060H
	mov	rcx, QWORD PTR ?m_Scene@@3PEAUScene@@EA	; m_Scene
	mov	rcx, QWORD PTR [rcx+8]
	cmp	DWORD PTR [rcx+rax+4], 0
	jle	SHORT $LN26@Engine_Ray
; Line 56
	mov	rax, QWORD PTR a_Acc$[rsp]
	movss	xmm0, DWORD PTR [rax]
	addss	xmm0, DWORD PTR __real@3f800000
	mov	rax, QWORD PTR a_Acc$[rsp]
	movss	DWORD PTR [rax], xmm0
	mov	rax, QWORD PTR a_Acc$[rsp]
	movss	xmm0, DWORD PTR [rax+4]
	addss	xmm0, DWORD PTR __real@3f800000
	mov	rax, QWORD PTR a_Acc$[rsp]
	movss	DWORD PTR [rax+4], xmm0
	mov	rax, QWORD PTR a_Acc$[rsp]
	movss	xmm0, DWORD PTR [rax+8]
	addss	xmm0, DWORD PTR __real@3f800000
	mov	rax, QWORD PTR a_Acc$[rsp]
	movss	DWORD PTR [rax+8], xmm0
; Line 58
	jmp	$LN25@Engine_Ray
$LN26@Engine_Ray:
; Line 61
	lea	rax, QWORD PTR $T67321[rsp]
	mov	rdi, rax
	mov	rsi, QWORD PTR a_Ray$[rsp]
	mov	ecx, 24
	rep movsb
	lea	rax, QWORD PTR r$66952[rsp]
	lea	rcx, QWORD PTR $T67321[rsp]
	mov	rdi, rax
	mov	rsi, rcx
	mov	ecx, 24
	rep movsb
; Line 63
	movss	xmm0, DWORD PTR r$66952[rsp+12]
	movss	DWORD PTR pi$66953[rsp], xmm0
	movss	xmm0, DWORD PTR r$66952[rsp+16]
	movss	DWORD PTR pi$66953[rsp+4], xmm0
	movss	xmm0, DWORD PTR r$66952[rsp+20]
	movss	DWORD PTR pi$66953[rsp+8], xmm0
; Line 64
	mov	rax, QWORD PTR a_Dist$[rsp]
	movss	xmm0, DWORD PTR pi$66953[rsp]
	mulss	xmm0, DWORD PTR [rax]
	movss	DWORD PTR pi$66953[rsp], xmm0
	mov	rax, QWORD PTR a_Dist$[rsp]
	movss	xmm0, DWORD PTR pi$66953[rsp+4]
	mulss	xmm0, DWORD PTR [rax]
	movss	DWORD PTR pi$66953[rsp+4], xmm0
	mov	rax, QWORD PTR a_Dist$[rsp]
	movss	xmm0, DWORD PTR pi$66953[rsp+8]
	mulss	xmm0, DWORD PTR [rax]
	movss	DWORD PTR pi$66953[rsp+8], xmm0
; Line 65
	movss	xmm0, DWORD PTR pi$66953[rsp]
	addss	xmm0, DWORD PTR r$66952[rsp]
	movss	DWORD PTR pi$66953[rsp], xmm0
	movss	xmm0, DWORD PTR pi$66953[rsp+4]
	addss	xmm0, DWORD PTR r$66952[rsp+4]
	movss	DWORD PTR pi$66953[rsp+4], xmm0
	movss	xmm0, DWORD PTR pi$66953[rsp+8]
	addss	xmm0, DWORD PTR r$66952[rsp+8]
	movss	DWORD PTR pi$66953[rsp+8], xmm0
; Line 68
	mov	DWORD PTR p_index$66954[rsp], 0
	jmp	SHORT $LN24@Engine_Ray
$LN23@Engine_Ray:
	mov	eax, DWORD PTR p_index$66954[rsp]
	inc	eax
	mov	DWORD PTR p_index$66954[rsp], eax
$LN24@Engine_Ray:
	mov	rax, QWORD PTR ?m_Scene@@3PEAUScene@@EA	; m_Scene
	mov	eax, DWORD PTR [rax]
	cmp	DWORD PTR p_index$66954[rsp], eax
	jge	$LN22@Engine_Ray
; Line 70
	movsxd	rax, DWORD PTR p_index$66954[rsp]
	imul	rax, 96					; 00000060H
	mov	rcx, QWORD PTR ?m_Scene@@3PEAUScene@@EA	; m_Scene
	mov	rcx, QWORD PTR [rcx+8]
	lea	rdx, QWORD PTR $T67320[rsp]
	mov	rdi, rdx
	lea	rsi, QWORD PTR [rcx+rax]
	mov	ecx, 96					; 00000060H
	rep movsb
	lea	rax, QWORD PTR p$66958[rsp]
	lea	rcx, QWORD PTR $T67320[rsp]
	mov	rdi, rax
	mov	rsi, rcx
	mov	ecx, 96					; 00000060H
	rep movsb
; Line 71
	cmp	DWORD PTR p$66958[rsp+4], 0
	jle	$LN21@Engine_Ray
; Line 73
	lea	rax, QWORD PTR light$66960[rsp]
	lea	rcx, QWORD PTR p$66958[rsp]
	mov	rdi, rax
	mov	rsi, rcx
	mov	ecx, 96					; 00000060H
	rep movsb
; Line 75
	movss	xmm0, DWORD PTR __real@3f800000
	movss	DWORD PTR shade$66961[rsp], xmm0
; Line 76
	cmp	DWORD PTR light$66960[rsp], 1
	jne	$LN20@Engine_Ray
; Line 80
	movss	xmm0, DWORD PTR light$66960[rsp+16]
	subss	xmm0, DWORD PTR pi$66953[rsp+8]
	movss	xmm1, DWORD PTR light$66960[rsp+12]
	subss	xmm1, DWORD PTR pi$66953[rsp+4]
	movss	xmm2, DWORD PTR light$66960[rsp+8]
	subss	xmm2, DWORD PTR pi$66953[rsp]
	movss	DWORD PTR tv174[rsp], xmm2
	movaps	xmm3, xmm0
	movaps	xmm2, xmm1
	movss	xmm0, DWORD PTR tv174[rsp]
	movaps	xmm1, xmm0
	lea	rcx, QWORD PTR L$66963[rsp]
	call	?vector3_Set@@YAXPEAUvector3@@MMM@Z	; vector3_Set
; Line 82
	movss	xmm0, DWORD PTR L$66963[rsp]
	mulss	xmm0, DWORD PTR L$66963[rsp]
	movss	xmm1, DWORD PTR L$66963[rsp+4]
	mulss	xmm1, DWORD PTR L$66963[rsp+4]
	addss	xmm0, xmm1
	movss	xmm1, DWORD PTR L$66963[rsp+8]
	mulss	xmm1, DWORD PTR L$66963[rsp+8]
	addss	xmm0, xmm1
	call	sqrtf
	movss	DWORD PTR tdist$66964[rsp], xmm0
; Line 84
	movss	xmm0, DWORD PTR __real@3f800000
	divss	xmm0, DWORD PTR tdist$66964[rsp]
	movss	xmm1, DWORD PTR L$66963[rsp]
	mulss	xmm1, xmm0
	movaps	xmm0, xmm1
	movss	DWORD PTR L$66963[rsp], xmm0
; Line 85
	movss	xmm0, DWORD PTR __real@3f800000
	divss	xmm0, DWORD PTR tdist$66964[rsp]
	movss	xmm1, DWORD PTR L$66963[rsp+4]
	mulss	xmm1, xmm0
	movaps	xmm0, xmm1
	movss	DWORD PTR L$66963[rsp+4], xmm0
; Line 86
	movss	xmm0, DWORD PTR __real@3f800000
	divss	xmm0, DWORD PTR tdist$66964[rsp]
	movss	xmm1, DWORD PTR L$66963[rsp+8]
	mulss	xmm1, xmm0
	movaps	xmm0, xmm1
	movss	DWORD PTR L$66963[rsp+8], xmm0
; Line 89
	movss	xmm0, DWORD PTR L$66963[rsp]
	mulss	xmm0, DWORD PTR __real@3a83126f
	movss	xmm1, DWORD PTR pi$66953[rsp]
	addss	xmm1, xmm0
	movaps	xmm0, xmm1
	movss	DWORD PTR r$66965[rsp], xmm0
; Line 90
	movss	xmm0, DWORD PTR L$66963[rsp+4]
	mulss	xmm0, DWORD PTR __real@3a83126f
	movss	xmm1, DWORD PTR pi$66953[rsp+4]
	addss	xmm1, xmm0
	movaps	xmm0, xmm1
	movss	DWORD PTR r$66965[rsp+4], xmm0
; Line 91
	movss	xmm0, DWORD PTR L$66963[rsp+8]
	mulss	xmm0, DWORD PTR __real@3a83126f
	movss	xmm1, DWORD PTR pi$66953[rsp+8]
	addss	xmm1, xmm0
	movaps	xmm0, xmm1
	movss	DWORD PTR r$66965[rsp+8], xmm0
; Line 92
	movss	xmm0, DWORD PTR L$66963[rsp]
	movss	DWORD PTR r$66965[rsp+12], xmm0
; Line 93
	movss	xmm0, DWORD PTR L$66963[rsp+4]
	movss	DWORD PTR r$66965[rsp+16], xmm0
; Line 94
	movss	xmm0, DWORD PTR L$66963[rsp+8]
	movss	DWORD PTR r$66965[rsp+20], xmm0
; Line 96
	mov	DWORD PTR s$66966[rsp], 0
	jmp	SHORT $LN19@Engine_Ray
$LN18@Engine_Ray:
	mov	eax, DWORD PTR s$66966[rsp]
	inc	eax
	mov	DWORD PTR s$66966[rsp], eax
$LN19@Engine_Ray:
	mov	rax, QWORD PTR ?m_Scene@@3PEAUScene@@EA	; m_Scene
	mov	eax, DWORD PTR [rax]
	cmp	DWORD PTR s$66966[rsp], eax
	jge	$LN17@Engine_Ray
; Line 98
	movsxd	rax, DWORD PTR s$66966[rsp]
	imul	rax, 96					; 00000060H
	mov	rcx, QWORD PTR ?m_Scene@@3PEAUScene@@EA	; m_Scene
	mov	rcx, QWORD PTR [rcx+8]
	lea	rdx, QWORD PTR $T67319[rsp]
	mov	rdi, rdx
	lea	rsi, QWORD PTR [rcx+rax]
	mov	ecx, 96					; 00000060H
	rep movsb
	lea	rax, QWORD PTR pr$66970[rsp]
	lea	rcx, QWORD PTR $T67319[rsp]
	mov	rdi, rax
	mov	rsi, rcx
	mov	ecx, 96					; 00000060H
	rep movsb
; Line 100
	cmp	DWORD PTR pr$66970[rsp+4], 0
	jne	SHORT $LN16@Engine_Ray
; Line 101
	lea	r8, QWORD PTR tdist$66964[rsp]
	lea	rdx, QWORD PTR r$66965[rsp]
	lea	rcx, QWORD PTR pr$66970[rsp]
	call	?Primitive_Intersect@@YAHPEAUPrimitive@@PEAURay@@PEAM@Z ; Primitive_Intersect
	test	eax, eax
	je	SHORT $LN15@Engine_Ray
; Line 102
	xorps	xmm0, xmm0
	movss	DWORD PTR shade$66961[rsp], xmm0
; Line 104
	jmp	SHORT $LN17@Engine_Ray
$LN15@Engine_Ray:
$LN16@Engine_Ray:
; Line 109
	jmp	$LN18@Engine_Ray
$LN17@Engine_Ray:
$LN20@Engine_Ray:
; Line 112
	movss	xmm0, DWORD PTR shade$66961[rsp]
	comiss	xmm0, DWORD PTR __real@00000000
	jbe	$LN13@Engine_Ray
; Line 115
	lea	rax, QWORD PTR L$66975[rsp]
	lea	rcx, QWORD PTR light$66960[rsp+8]
	mov	rdi, rax
	mov	rsi, rcx
	mov	ecx, 12
	rep movsb
; Line 116
	movss	xmm0, DWORD PTR L$66975[rsp]
	subss	xmm0, DWORD PTR pi$66953[rsp]
	movss	DWORD PTR L$66975[rsp], xmm0
	movss	xmm0, DWORD PTR L$66975[rsp+4]
	subss	xmm0, DWORD PTR pi$66953[rsp+4]
	movss	DWORD PTR L$66975[rsp+4], xmm0
	movss	xmm0, DWORD PTR L$66975[rsp+8]
	subss	xmm0, DWORD PTR pi$66953[rsp+8]
	movss	DWORD PTR L$66975[rsp+8], xmm0
; Line 118
	movss	xmm0, DWORD PTR L$66975[rsp]
	mulss	xmm0, DWORD PTR L$66975[rsp]
	movss	xmm1, DWORD PTR L$66975[rsp+4]
	mulss	xmm1, DWORD PTR L$66975[rsp+4]
	addss	xmm0, xmm1
	movss	xmm1, DWORD PTR L$66975[rsp+8]
	mulss	xmm1, DWORD PTR L$66975[rsp+8]
	addss	xmm0, xmm1
	call	?sqrt@@YAMM@Z				; sqrt
	movss	DWORD PTR L_len$66976[rsp], xmm0
; Line 120
	movss	xmm0, DWORD PTR L_len$66976[rsp]
	comiss	xmm0, DWORD PTR __real@00000000
	jbe	$LN12@Engine_Ray
; Line 121
	movss	xmm0, DWORD PTR __real@3f800000
	divss	xmm0, DWORD PTR L_len$66976[rsp]
	movss	xmm1, DWORD PTR L$66975[rsp]
	mulss	xmm1, xmm0
	movaps	xmm0, xmm1
	movss	DWORD PTR L$66975[rsp], xmm0
	movss	xmm0, DWORD PTR __real@3f800000
	divss	xmm0, DWORD PTR L_len$66976[rsp]
	movss	xmm1, DWORD PTR L$66975[rsp+4]
	mulss	xmm1, xmm0
	movaps	xmm0, xmm1
	movss	DWORD PTR L$66975[rsp+4], xmm0
	movss	xmm0, DWORD PTR __real@3f800000
	divss	xmm0, DWORD PTR L_len$66976[rsp]
	movss	xmm1, DWORD PTR L$66975[rsp+8]
	mulss	xmm1, xmm0
	movaps	xmm0, xmm1
	movss	DWORD PTR L$66975[rsp+8], xmm0
; Line 122
	jmp	SHORT $LN11@Engine_Ray
$LN12@Engine_Ray:
; Line 123
	xorps	xmm0, xmm0
	movss	DWORD PTR L$66975[rsp+8], xmm0
	movss	xmm0, DWORD PTR L$66975[rsp+8]
	movss	DWORD PTR L$66975[rsp+4], xmm0
	movss	xmm0, DWORD PTR L$66975[rsp+4]
	movss	DWORD PTR L$66975[rsp], xmm0
$LN11@Engine_Ray:
; Line 125
	lea	rax, QWORD PTR $T67302[rsp]
	lea	rcx, QWORD PTR pi$66953[rsp]
	mov	rdi, rax
	mov	rsi, rcx
	mov	ecx, 12
	rep movsb
	movsxd	rax, DWORD PTR prim_index$[rsp]
	imul	rax, 96					; 00000060H
	mov	rcx, QWORD PTR ?m_Scene@@3PEAUScene@@EA	; m_Scene
	mov	rcx, QWORD PTR [rcx+8]
	lea	rdx, QWORD PTR $T67301[rsp]
	mov	rdi, rdx
	lea	rsi, QWORD PTR [rcx+rax]
	mov	ecx, 96					; 00000060H
	rep movsb
	lea	r8, QWORD PTR $T67302[rsp]
	lea	rdx, QWORD PTR $T67301[rsp]
	lea	rcx, QWORD PTR N$66979[rsp]
	call	?Primitive_GetNormal@@YAXPEAUvector3@@UPrimitive@@U1@@Z ; Primitive_GetNormal
; Line 126
	movsxd	rax, DWORD PTR prim_index$[rsp]
	imul	rax, 96					; 00000060H
	mov	rcx, QWORD PTR ?m_Scene@@3PEAUScene@@EA	; m_Scene
	mov	rcx, QWORD PTR [rcx+8]
	movss	xmm0, DWORD PTR [rcx+rax+84]
	comiss	xmm0, DWORD PTR __real@00000000
	jbe	$LN10@Engine_Ray
; Line 128
	movss	xmm0, DWORD PTR L$66975[rsp]
	mulss	xmm0, DWORD PTR N$66979[rsp]
	movss	xmm1, DWORD PTR L$66975[rsp+4]
	mulss	xmm1, DWORD PTR N$66979[rsp+4]
	addss	xmm0, xmm1
	movss	xmm1, DWORD PTR L$66975[rsp+8]
	mulss	xmm1, DWORD PTR N$66979[rsp+8]
	addss	xmm0, xmm1
	movss	DWORD PTR dot$66981[rsp], xmm0
; Line 129
	movss	xmm0, DWORD PTR dot$66981[rsp]
	comiss	xmm0, DWORD PTR __real@00000000
	jbe	$LN9@Engine_Ray
; Line 131
	movsxd	rax, DWORD PTR prim_index$[rsp]
	imul	rax, 96					; 00000060H
	mov	rcx, QWORD PTR ?m_Scene@@3PEAUScene@@EA	; m_Scene
	mov	rcx, QWORD PTR [rcx+8]
	movss	xmm0, DWORD PTR dot$66981[rsp]
	mulss	xmm0, DWORD PTR [rcx+rax+84]
	mulss	xmm0, DWORD PTR shade$66961[rsp]
	movss	DWORD PTR diff$66983[rsp], xmm0
; Line 135
	movsxd	rax, DWORD PTR prim_index$[rsp]
	imul	rax, 96					; 00000060H
	mov	rcx, QWORD PTR ?m_Scene@@3PEAUScene@@EA	; m_Scene
	mov	rcx, QWORD PTR [rcx+8]
	movss	xmm0, DWORD PTR [rcx+rax+64]
	movss	DWORD PTR dummy_vector$66984[rsp], xmm0
	movsxd	rax, DWORD PTR prim_index$[rsp]
	imul	rax, 96					; 00000060H
	mov	rcx, QWORD PTR ?m_Scene@@3PEAUScene@@EA	; m_Scene
	mov	rcx, QWORD PTR [rcx+8]
	movss	xmm0, DWORD PTR [rcx+rax+68]
	movss	DWORD PTR dummy_vector$66984[rsp+4], xmm0
	movsxd	rax, DWORD PTR prim_index$[rsp]
	imul	rax, 96					; 00000060H
	mov	rcx, QWORD PTR ?m_Scene@@3PEAUScene@@EA	; m_Scene
	mov	rcx, QWORD PTR [rcx+8]
	movss	xmm0, DWORD PTR [rcx+rax+72]
	movss	DWORD PTR dummy_vector$66984[rsp+8], xmm0
; Line 136
	movss	xmm0, DWORD PTR dummy_vector$66984[rsp]
	mulss	xmm0, DWORD PTR light$66960[rsp+64]
	movss	DWORD PTR dummy_vector$66984[rsp], xmm0
	movss	xmm0, DWORD PTR dummy_vector$66984[rsp+4]
	mulss	xmm0, DWORD PTR light$66960[rsp+68]
	movss	DWORD PTR dummy_vector$66984[rsp+4], xmm0
	movss	xmm0, DWORD PTR dummy_vector$66984[rsp+8]
	mulss	xmm0, DWORD PTR light$66960[rsp+72]
	movss	DWORD PTR dummy_vector$66984[rsp+8], xmm0
; Line 137
	movss	xmm0, DWORD PTR dummy_vector$66984[rsp]
	mulss	xmm0, DWORD PTR diff$66983[rsp]
	movss	DWORD PTR dummy_vector$66984[rsp], xmm0
	movss	xmm0, DWORD PTR dummy_vector$66984[rsp+4]
	mulss	xmm0, DWORD PTR diff$66983[rsp]
	movss	DWORD PTR dummy_vector$66984[rsp+4], xmm0
	movss	xmm0, DWORD PTR dummy_vector$66984[rsp+8]
	mulss	xmm0, DWORD PTR diff$66983[rsp]
	movss	DWORD PTR dummy_vector$66984[rsp+8], xmm0
; Line 140
	mov	rax, QWORD PTR a_Acc$[rsp]
	movss	xmm0, DWORD PTR [rax]
	addss	xmm0, DWORD PTR dummy_vector$66984[rsp]
	mov	rax, QWORD PTR a_Acc$[rsp]
	movss	DWORD PTR [rax], xmm0
; Line 141
	mov	rax, QWORD PTR a_Acc$[rsp]
	movss	xmm0, DWORD PTR [rax+4]
	addss	xmm0, DWORD PTR dummy_vector$66984[rsp+4]
	mov	rax, QWORD PTR a_Acc$[rsp]
	movss	DWORD PTR [rax+4], xmm0
; Line 142
	mov	rax, QWORD PTR a_Acc$[rsp]
	movss	xmm0, DWORD PTR [rax+8]
	addss	xmm0, DWORD PTR dummy_vector$66984[rsp+8]
	mov	rax, QWORD PTR a_Acc$[rsp]
	movss	DWORD PTR [rax+8], xmm0
$LN9@Engine_Ray:
$LN10@Engine_Ray:
; Line 149
	movsxd	rax, DWORD PTR prim_index$[rsp]
	imul	rax, 96					; 00000060H
	mov	rcx, QWORD PTR ?m_Scene@@3PEAUScene@@EA	; m_Scene
	mov	rcx, QWORD PTR [rcx+8]
	movss	xmm0, DWORD PTR [rcx+rax+88]
	comiss	xmm0, DWORD PTR __real@00000000
	jbe	$LN8@Engine_Ray
; Line 152
	lea	rax, QWORD PTR $T67318[rsp]
	mov	rcx, QWORD PTR a_Ray$[rsp]
	mov	rdi, rax
	lea	rsi, QWORD PTR [rcx+12]
	mov	ecx, 12
	rep movsb
	lea	rax, QWORD PTR V$66986[rsp]
	lea	rcx, QWORD PTR $T67318[rsp]
	mov	rdi, rax
	mov	rsi, rcx
	mov	ecx, 12
	rep movsb
; Line 155
	movss	xmm0, DWORD PTR L$66975[rsp]
	mulss	xmm0, DWORD PTR N$66979[rsp]
	movss	xmm1, DWORD PTR L$66975[rsp+4]
	mulss	xmm1, DWORD PTR N$66979[rsp+4]
	addss	xmm0, xmm1
	movss	xmm1, DWORD PTR L$66975[rsp+8]
	mulss	xmm1, DWORD PTR N$66979[rsp+8]
	addss	xmm0, xmm1
	movss	DWORD PTR tempDot$66988[rsp], xmm0
; Line 156
	movss	xmm0, DWORD PTR __real@40000000
	mulss	xmm0, DWORD PTR tempDot$66988[rsp]
	mulss	xmm0, DWORD PTR N$66979[rsp]
	movss	xmm1, DWORD PTR L$66975[rsp]
	subss	xmm1, xmm0
	movaps	xmm0, xmm1
	movss	DWORD PTR R$66987[rsp], xmm0
; Line 157
	movss	xmm0, DWORD PTR __real@40000000
	mulss	xmm0, DWORD PTR tempDot$66988[rsp]
	mulss	xmm0, DWORD PTR N$66979[rsp+4]
	movss	xmm1, DWORD PTR L$66975[rsp+4]
	subss	xmm1, xmm0
	movaps	xmm0, xmm1
	movss	DWORD PTR R$66987[rsp+4], xmm0
; Line 158
	movss	xmm0, DWORD PTR __real@40000000
	mulss	xmm0, DWORD PTR tempDot$66988[rsp]
	mulss	xmm0, DWORD PTR N$66979[rsp+8]
	movss	xmm1, DWORD PTR L$66975[rsp+8]
	subss	xmm1, xmm0
	movaps	xmm0, xmm1
	movss	DWORD PTR R$66987[rsp+8], xmm0
; Line 160
	movss	xmm0, DWORD PTR V$66986[rsp]
	mulss	xmm0, DWORD PTR R$66987[rsp]
	movss	xmm1, DWORD PTR V$66986[rsp+4]
	mulss	xmm1, DWORD PTR R$66987[rsp+4]
	addss	xmm0, xmm1
	movss	xmm1, DWORD PTR V$66986[rsp+8]
	mulss	xmm1, DWORD PTR R$66987[rsp+8]
	addss	xmm0, xmm1
	movss	DWORD PTR dot$66989[rsp], xmm0
; Line 161
	movss	xmm0, DWORD PTR dot$66989[rsp]
	comiss	xmm0, DWORD PTR __real@00000000
	jbe	$LN7@Engine_Ray
; Line 164
	movsxd	rax, DWORD PTR prim_index$[rsp]
	imul	rax, 96					; 00000060H
	mov	rcx, QWORD PTR ?m_Scene@@3PEAUScene@@EA	; m_Scene
	mov	rcx, QWORD PTR [rcx+8]
	movss	xmm0, DWORD PTR [rcx+rax+88]
	movss	DWORD PTR primSpec$66991[rsp], xmm0
; Line 165
	movss	xmm1, DWORD PTR __real@41a00000
	movss	xmm0, DWORD PTR dot$66989[rsp]
	call	powf
	mulss	xmm0, DWORD PTR primSpec$66991[rsp]
	mulss	xmm0, DWORD PTR shade$66961[rsp]
	movss	DWORD PTR spec$66992[rsp], xmm0
; Line 168
	movss	xmm0, DWORD PTR spec$66992[rsp]
	mulss	xmm0, DWORD PTR light$66960[rsp+64]
	mov	rax, QWORD PTR a_Acc$[rsp]
	movss	xmm1, DWORD PTR [rax]
	addss	xmm1, xmm0
	movaps	xmm0, xmm1
	mov	rax, QWORD PTR a_Acc$[rsp]
	movss	DWORD PTR [rax], xmm0
; Line 169
	movss	xmm0, DWORD PTR spec$66992[rsp]
	mulss	xmm0, DWORD PTR light$66960[rsp+68]
	mov	rax, QWORD PTR a_Acc$[rsp]
	movss	xmm1, DWORD PTR [rax+4]
	addss	xmm1, xmm0
	movaps	xmm0, xmm1
	mov	rax, QWORD PTR a_Acc$[rsp]
	movss	DWORD PTR [rax+4], xmm0
; Line 170
	movss	xmm0, DWORD PTR spec$66992[rsp]
	mulss	xmm0, DWORD PTR light$66960[rsp+72]
	mov	rax, QWORD PTR a_Acc$[rsp]
	movss	xmm1, DWORD PTR [rax+8]
	addss	xmm1, xmm0
	movaps	xmm0, xmm1
	mov	rax, QWORD PTR a_Acc$[rsp]
	movss	DWORD PTR [rax+8], xmm0
$LN7@Engine_Ray:
$LN8@Engine_Ray:
$LN13@Engine_Ray:
$LN21@Engine_Ray:
; Line 176
	jmp	$LN23@Engine_Ray
$LN22@Engine_Ray:
; Line 181
	movsxd	rax, DWORD PTR prim_index$[rsp]
	imul	rax, 96					; 00000060H
	mov	rcx, QWORD PTR ?m_Scene@@3PEAUScene@@EA	; m_Scene
	mov	rcx, QWORD PTR [rcx+8]
	mov	rdx, QWORD PTR a_refr$[rsp]
	movss	xmm0, DWORD PTR [rcx+rax+80]
	movss	DWORD PTR [rdx], xmm0
; Line 182
	mov	rax, QWORD PTR a_refr$[rsp]
	movss	xmm0, DWORD PTR [rax]
	comiss	xmm0, DWORD PTR __real@00000000
	jbe	$LN6@Engine_Ray
	cmp	DWORD PTR a_Depth$[rsp], 4
	jge	$LN6@Engine_Ray
; Line 185
	movsxd	rax, DWORD PTR prim_index$[rsp]
	imul	rax, 96					; 00000060H
	mov	rcx, QWORD PTR ?m_Scene@@3PEAUScene@@EA	; m_Scene
	mov	rcx, QWORD PTR [rcx+8]
	movss	xmm0, DWORD PTR [rcx+rax+92]
	movss	DWORD PTR rindex$66994[rsp], xmm0
; Line 186
	mov	rax, QWORD PTR a_RIndex$[rsp]
	movss	xmm0, DWORD PTR [rax]
	divss	xmm0, DWORD PTR rindex$66994[rsp]
	movss	DWORD PTR n$66995[rsp], xmm0
; Line 187
	mov	rax, QWORD PTR a_RIndex$[rsp]
	movss	xmm0, DWORD PTR rindex$66994[rsp]
	movss	DWORD PTR [rax], xmm0
; Line 189
	lea	rax, QWORD PTR $T67304[rsp]
	lea	rcx, QWORD PTR pi$66953[rsp]
	mov	rdi, rax
	mov	rsi, rcx
	mov	ecx, 12
	rep movsb
	movsxd	rax, DWORD PTR prim_index$[rsp]
	imul	rax, 96					; 00000060H
	mov	rcx, QWORD PTR ?m_Scene@@3PEAUScene@@EA	; m_Scene
	mov	rcx, QWORD PTR [rcx+8]
	lea	rdx, QWORD PTR $T67303[rsp]
	mov	rdi, rdx
	lea	rsi, QWORD PTR [rcx+rax]
	mov	ecx, 96					; 00000060H
	rep movsb
	lea	r8, QWORD PTR $T67304[rsp]
	lea	rdx, QWORD PTR $T67303[rsp]
	lea	rcx, QWORD PTR N$66996[rsp]
	call	?Primitive_GetNormal@@YAXPEAUvector3@@UPrimitive@@U1@@Z ; Primitive_GetNormal
; Line 190
	cmp	BYTE PTR $T67307[rsp], 0
	jne	SHORT $LN35@Engine_Ray
	lea	rcx, OFFSET FLAT:?Engine_Raytrace@@YAHPEAURay@@PEAUvector3@@HPEAM22PEAH0230@Z$rtcName$0
	call	_RTC_UninitUse
$LN35@Engine_Ray:
	movd	xmm0, DWORD PTR result$[rsp]
	cvtdq2ps xmm0, xmm0
	movss	xmm1, DWORD PTR N$66996[rsp]
	mulss	xmm1, xmm0
	movaps	xmm0, xmm1
	movss	DWORD PTR N$66996[rsp], xmm0
	cmp	BYTE PTR $T67307[rsp], 0
	jne	SHORT $LN36@Engine_Ray
	lea	rcx, OFFSET FLAT:?Engine_Raytrace@@YAHPEAURay@@PEAUvector3@@HPEAM22PEAH0230@Z$rtcName$0
	call	_RTC_UninitUse
$LN36@Engine_Ray:
	movd	xmm0, DWORD PTR result$[rsp]
	cvtdq2ps xmm0, xmm0
	movss	xmm1, DWORD PTR N$66996[rsp+4]
	mulss	xmm1, xmm0
	movaps	xmm0, xmm1
	movss	DWORD PTR N$66996[rsp+4], xmm0
	cmp	BYTE PTR $T67307[rsp], 0
	jne	SHORT $LN37@Engine_Ray
	lea	rcx, OFFSET FLAT:?Engine_Raytrace@@YAHPEAURay@@PEAUvector3@@HPEAM22PEAH0230@Z$rtcName$0
	call	_RTC_UninitUse
$LN37@Engine_Ray:
	movd	xmm0, DWORD PTR result$[rsp]
	cvtdq2ps xmm0, xmm0
	movss	xmm1, DWORD PTR N$66996[rsp+8]
	mulss	xmm1, xmm0
	movaps	xmm0, xmm1
	movss	DWORD PTR N$66996[rsp+8], xmm0
; Line 192
	mov	rax, QWORD PTR a_Ray$[rsp]
	movss	xmm0, DWORD PTR N$66996[rsp]
	mulss	xmm0, DWORD PTR [rax+12]
	mov	rax, QWORD PTR a_Ray$[rsp]
	movss	xmm1, DWORD PTR N$66996[rsp+4]
	mulss	xmm1, DWORD PTR [rax+16]
	addss	xmm0, xmm1
	mov	rax, QWORD PTR a_Ray$[rsp]
	movss	xmm1, DWORD PTR N$66996[rsp+8]
	mulss	xmm1, DWORD PTR [rax+20]
	addss	xmm0, xmm1
	movss	DWORD PTR cosI$67000[rsp], xmm0
; Line 193
	movss	xmm0, DWORD PTR cosI$67000[rsp]
	xorps	xmm0, DWORD PTR __mask@@NegFloat@
	movss	DWORD PTR cosI$67000[rsp], xmm0
; Line 196
	movss	xmm0, DWORD PTR n$66995[rsp]
	mulss	xmm0, DWORD PTR n$66995[rsp]
	movss	xmm1, DWORD PTR cosI$67000[rsp]
	mulss	xmm1, DWORD PTR cosI$67000[rsp]
	movss	xmm2, DWORD PTR __real@3f800000
	subss	xmm2, xmm1
	movaps	xmm1, xmm2
	mulss	xmm0, xmm1
	movss	xmm1, DWORD PTR __real@3f800000
	subss	xmm1, xmm0
	movaps	xmm0, xmm1
	movss	DWORD PTR cosT2$67001[rsp], xmm0
; Line 197
	movss	xmm0, DWORD PTR cosT2$67001[rsp]
	comiss	xmm0, DWORD PTR __real@00000000
	jbe	$LN5@Engine_Ray
; Line 200
	lea	rax, QWORD PTR $T67314[rsp]
	mov	rcx, QWORD PTR a_Ray$[rsp]
	mov	rdi, rax
	lea	rsi, QWORD PTR [rcx+12]
	mov	ecx, 12
	rep movsb
	lea	rax, QWORD PTR dirForT$67003[rsp]
	lea	rcx, QWORD PTR $T67314[rsp]
	mov	rdi, rax
	mov	rsi, rcx
	mov	ecx, 12
	rep movsb
; Line 202
	movss	xmm0, DWORD PTR n$66995[rsp]
	mulss	xmm0, DWORD PTR dirForT$67003[rsp]
	movss	DWORD PTR tv463[rsp], xmm0
	movss	xmm1, DWORD PTR n$66995[rsp]
	mulss	xmm1, DWORD PTR cosI$67000[rsp]
	movss	DWORD PTR tv464[rsp], xmm1
	movss	xmm0, DWORD PTR cosT2$67001[rsp]
	call	sqrtf
	movss	xmm1, DWORD PTR tv464[rsp]
	subss	xmm1, xmm0
	movaps	xmm0, xmm1
	mulss	xmm0, DWORD PTR N$66996[rsp]
	movss	xmm1, DWORD PTR tv463[rsp]
	addss	xmm1, xmm0
	movaps	xmm0, xmm1
	movss	DWORD PTR T$67004[rsp], xmm0
; Line 203
	movss	xmm0, DWORD PTR n$66995[rsp]
	mulss	xmm0, DWORD PTR dirForT$67003[rsp+4]
	movss	DWORD PTR tv472[rsp], xmm0
	movss	xmm1, DWORD PTR n$66995[rsp]
	mulss	xmm1, DWORD PTR cosI$67000[rsp]
	movss	DWORD PTR tv473[rsp], xmm1
	movss	xmm0, DWORD PTR cosT2$67001[rsp]
	call	sqrtf
	movss	xmm1, DWORD PTR tv473[rsp]
	subss	xmm1, xmm0
	movaps	xmm0, xmm1
	mulss	xmm0, DWORD PTR N$66996[rsp+4]
	movss	xmm1, DWORD PTR tv472[rsp]
	addss	xmm1, xmm0
	movaps	xmm0, xmm1
	movss	DWORD PTR T$67004[rsp+4], xmm0
; Line 204
	movss	xmm0, DWORD PTR n$66995[rsp]
	mulss	xmm0, DWORD PTR dirForT$67003[rsp+8]
	movss	DWORD PTR tv513[rsp], xmm0
	movss	xmm1, DWORD PTR n$66995[rsp]
	mulss	xmm1, DWORD PTR cosI$67000[rsp]
	movss	DWORD PTR tv514[rsp], xmm1
	movss	xmm0, DWORD PTR cosT2$67001[rsp]
	call	sqrtf
	movss	xmm1, DWORD PTR tv514[rsp]
	subss	xmm1, xmm0
	movaps	xmm0, xmm1
	mulss	xmm0, DWORD PTR N$66996[rsp+8]
	movss	xmm1, DWORD PTR tv513[rsp]
	addss	xmm1, xmm0
	movaps	xmm0, xmm1
	movss	DWORD PTR T$67004[rsp+8], xmm0
; Line 209
	movss	xmm0, DWORD PTR T$67004[rsp]
	mulss	xmm0, DWORD PTR __real@3a83126f
	movss	xmm1, DWORD PTR pi$66953[rsp]
	addss	xmm1, xmm0
	movaps	xmm0, xmm1
	mov	rax, QWORD PTR a_refr_Ray$[rsp]
	movss	DWORD PTR [rax], xmm0
; Line 210
	movss	xmm0, DWORD PTR T$67004[rsp+4]
	mulss	xmm0, DWORD PTR __real@3a83126f
	movss	xmm1, DWORD PTR pi$66953[rsp+4]
	addss	xmm1, xmm0
	movaps	xmm0, xmm1
	mov	rax, QWORD PTR a_refr_Ray$[rsp]
	movss	DWORD PTR [rax+4], xmm0
; Line 211
	movss	xmm0, DWORD PTR T$67004[rsp+8]
	mulss	xmm0, DWORD PTR __real@3a83126f
	movss	xmm1, DWORD PTR pi$66953[rsp+8]
	addss	xmm1, xmm0
	movaps	xmm0, xmm1
	mov	rax, QWORD PTR a_refr_Ray$[rsp]
	movss	DWORD PTR [rax+8], xmm0
; Line 212
	mov	rax, QWORD PTR a_refr_Ray$[rsp]
	lea	rcx, QWORD PTR T$67004[rsp]
	lea	rdi, QWORD PTR [rax+12]
	mov	rsi, rcx
	mov	ecx, 12
	rep movsb
; Line 213
	mov	rax, QWORD PTR a_refr_Index$[rsp]
	mov	ecx, DWORD PTR prim_index$[rsp]
	mov	DWORD PTR [rax], ecx
; Line 231
	jmp	SHORT $LN4@Engine_Ray
$LN5@Engine_Ray:
; Line 232
	mov	rax, QWORD PTR a_refr_Index$[rsp]
	mov	DWORD PTR [rax], -1
$LN4@Engine_Ray:
; Line 234
	jmp	SHORT $LN3@Engine_Ray
$LN6@Engine_Ray:
; Line 235
	mov	rax, QWORD PTR a_refr_Index$[rsp]
	mov	DWORD PTR [rax], -1
$LN3@Engine_Ray:
; Line 241
	movsxd	rax, DWORD PTR prim_index$[rsp]
	imul	rax, 96					; 00000060H
	mov	rcx, QWORD PTR ?m_Scene@@3PEAUScene@@EA	; m_Scene
	mov	rcx, QWORD PTR [rcx+8]
	mov	rdx, QWORD PTR a_refl$[rsp]
	movss	xmm0, DWORD PTR [rcx+rax+76]
	movss	DWORD PTR [rdx], xmm0
; Line 242
	mov	rax, QWORD PTR a_refl$[rsp]
	movss	xmm0, DWORD PTR [rax]
	comiss	xmm0, DWORD PTR __real@00000000
	jbe	$LN2@Engine_Ray
; Line 245
	lea	rax, QWORD PTR $T67306[rsp]
	lea	rcx, QWORD PTR pi$66953[rsp]
	mov	rdi, rax
	mov	rsi, rcx
	mov	ecx, 12
	rep movsb
	movsxd	rax, DWORD PTR prim_index$[rsp]
	imul	rax, 96					; 00000060H
	mov	rcx, QWORD PTR ?m_Scene@@3PEAUScene@@EA	; m_Scene
	mov	rcx, QWORD PTR [rcx+8]
	lea	rdx, QWORD PTR $T67305[rsp]
	mov	rdi, rdx
	lea	rsi, QWORD PTR [rcx+rax]
	mov	ecx, 96					; 00000060H
	rep movsb
	lea	r8, QWORD PTR $T67306[rsp]
	lea	rdx, QWORD PTR $T67305[rsp]
	lea	rcx, QWORD PTR N$67008[rsp]
	call	?Primitive_GetNormal@@YAXPEAUvector3@@UPrimitive@@U1@@Z ; Primitive_GetNormal
; Line 248
	lea	rax, QWORD PTR $T67313[rsp]
	mov	rcx, QWORD PTR a_Ray$[rsp]
	mov	rdi, rax
	lea	rsi, QWORD PTR [rcx+12]
	mov	ecx, 12
	rep movsb
	lea	rax, QWORD PTR dirForR$67010[rsp]
	lea	rcx, QWORD PTR $T67313[rsp]
	mov	rdi, rax
	mov	rsi, rcx
	mov	ecx, 12
	rep movsb
; Line 249
	movss	xmm0, DWORD PTR dirForR$67010[rsp]
	mulss	xmm0, DWORD PTR N$67008[rsp]
	movss	xmm1, DWORD PTR dirForR$67010[rsp+4]
	mulss	xmm1, DWORD PTR N$67008[rsp+4]
	addss	xmm0, xmm1
	movss	xmm1, DWORD PTR dirForR$67010[rsp+8]
	mulss	xmm1, DWORD PTR N$67008[rsp+8]
	addss	xmm0, xmm1
	movss	DWORD PTR dotForR$67011[rsp], xmm0
; Line 250
	movss	xmm0, DWORD PTR __real@40000000
	mulss	xmm0, DWORD PTR dotForR$67011[rsp]
	mulss	xmm0, DWORD PTR N$67008[rsp]
	movss	xmm1, DWORD PTR dirForR$67010[rsp]
	subss	xmm1, xmm0
	movaps	xmm0, xmm1
	movss	DWORD PTR R$67009[rsp], xmm0
; Line 251
	movss	xmm0, DWORD PTR __real@40000000
	mulss	xmm0, DWORD PTR dotForR$67011[rsp]
	mulss	xmm0, DWORD PTR N$67008[rsp+4]
	movss	xmm1, DWORD PTR dirForR$67010[rsp+4]
	subss	xmm1, xmm0
	movaps	xmm0, xmm1
	movss	DWORD PTR R$67009[rsp+4], xmm0
; Line 252
	movss	xmm0, DWORD PTR __real@40000000
	mulss	xmm0, DWORD PTR dotForR$67011[rsp]
	mulss	xmm0, DWORD PTR N$67008[rsp+8]
	movss	xmm1, DWORD PTR dirForR$67010[rsp+8]
	subss	xmm1, xmm0
	movaps	xmm0, xmm1
	movss	DWORD PTR R$67009[rsp+8], xmm0
; Line 258
	movss	xmm0, DWORD PTR R$67009[rsp]
	mulss	xmm0, DWORD PTR __real@3a83126f
	movss	xmm1, DWORD PTR pi$66953[rsp]
	addss	xmm1, xmm0
	movaps	xmm0, xmm1
	mov	rax, QWORD PTR a_refl_Ray$[rsp]
	movss	DWORD PTR [rax], xmm0
; Line 259
	movss	xmm0, DWORD PTR R$67009[rsp+4]
	mulss	xmm0, DWORD PTR __real@3a83126f
	movss	xmm1, DWORD PTR pi$66953[rsp+4]
	addss	xmm1, xmm0
	movaps	xmm0, xmm1
	mov	rax, QWORD PTR a_refl_Ray$[rsp]
	movss	DWORD PTR [rax+4], xmm0
; Line 260
	movss	xmm0, DWORD PTR R$67009[rsp+8]
	mulss	xmm0, DWORD PTR __real@3a83126f
	movss	xmm1, DWORD PTR pi$66953[rsp+8]
	addss	xmm1, xmm0
	movaps	xmm0, xmm1
	mov	rax, QWORD PTR a_refl_Ray$[rsp]
	movss	DWORD PTR [rax+8], xmm0
; Line 261
	mov	rax, QWORD PTR a_refl_Ray$[rsp]
	movss	xmm0, DWORD PTR R$67009[rsp]
	movss	DWORD PTR [rax+12], xmm0
; Line 262
	mov	rax, QWORD PTR a_refl_Ray$[rsp]
	movss	xmm0, DWORD PTR R$67009[rsp+4]
	movss	DWORD PTR [rax+16], xmm0
; Line 263
	mov	rax, QWORD PTR a_refl_Ray$[rsp]
	movss	xmm0, DWORD PTR R$67009[rsp+8]
	movss	DWORD PTR [rax+20], xmm0
; Line 264
	mov	rax, QWORD PTR a_refl_Index$[rsp]
	mov	ecx, DWORD PTR prim_index$[rsp]
	mov	DWORD PTR [rax], ecx
; Line 265
	jmp	SHORT $LN1@Engine_Ray
$LN2@Engine_Ray:
; Line 266
	mov	rax, QWORD PTR a_refl_Index$[rsp]
	mov	DWORD PTR [rax], -1
$LN1@Engine_Ray:
$LN25@Engine_Ray:
; Line 270
	mov	eax, DWORD PTR prim_index$[rsp]
$LN33@Engine_Ray:
; Line 271
	mov	rdi, rax
	mov	rcx, rsp
	lea	rdx, OFFSET FLAT:?Engine_Raytrace@@YAHPEAURay@@PEAUvector3@@HPEAM22PEAH0230@Z$rtcFrameData
	call	_RTC_CheckStackVars
	mov	rax, rdi
	mov	rcx, QWORD PTR __$ArrayPad$[rsp]
	xor	rcx, rsp
	call	__security_check_cookie
	add	rsp, 1880				; 00000758H
	pop	rdi
	pop	rsi
	ret	0
?Engine_Raytrace@@YAHPEAURay@@PEAUvector3@@HPEAM22PEAH0230@Z ENDP ; Engine_Raytrace
_TEXT	ENDS
;	COMDAT pdata
; File c:\program files (x86)\microsoft visual studio 10.0\vc\include\math.h
pdata	SEGMENT
$pdata$?sqrt@@YAMM@Z DD imagerel $LN3
	DD	imagerel $LN3+43
	DD	imagerel $unwind$?sqrt@@YAMM@Z
pdata	ENDS
;	COMDAT xdata
xdata	SEGMENT
$unwind$?sqrt@@YAMM@Z DD 021a01H
	DD	07007520bH
; Function compile flags: /Odtp /RTCsu
xdata	ENDS
;	COMDAT ?sqrt@@YAMM@Z
_TEXT	SEGMENT
_X$ = 64
?sqrt@@YAMM@Z PROC					; sqrt, COMDAT
; Line 542
$LN3:
	movss	DWORD PTR [rsp+8], xmm0
	push	rdi
	sub	rsp, 48					; 00000030H
	mov	rdi, rsp
	mov	ecx, 12
	mov	eax, -858993460				; ccccccccH
	rep stosd
	movss	xmm0, DWORD PTR _X$[rsp]
	call	sqrtf
	add	rsp, 48					; 00000030H
	pop	rdi
	ret	0
?sqrt@@YAMM@Z ENDP					; sqrt
_TEXT	ENDS
;	COMDAT pdata
; File c:\users\mark\documents\devmaster_raytracing\raytracer3.0.06.no_rec.samp\common.h
pdata	SEGMENT
$pdata$?vector3_Set@@YAXPEAUvector3@@MMM@Z DD imagerel $LN3
	DD	imagerel $LN3+73
	DD	imagerel $unwind$?vector3_Set@@YAXPEAUvector3@@MMM@Z
pdata	ENDS
;	COMDAT xdata
xdata	SEGMENT
$unwind$?vector3_Set@@YAXPEAUvector3@@MMM@Z DD 011801H
	DD	07018H
; Function compile flags: /Odtp /RTCsu
xdata	ENDS
;	COMDAT ?vector3_Set@@YAXPEAUvector3@@MMM@Z
_TEXT	SEGMENT
v$ = 16
x$ = 24
y$ = 32
z$ = 40
?vector3_Set@@YAXPEAUvector3@@MMM@Z PROC		; vector3_Set, COMDAT
; Line 36
$LN3:
	movss	DWORD PTR [rsp+32], xmm3
	movss	DWORD PTR [rsp+24], xmm2
	movss	DWORD PTR [rsp+16], xmm1
	mov	QWORD PTR [rsp+8], rcx
	push	rdi
	mov	rax, QWORD PTR v$[rsp]
	movss	xmm0, DWORD PTR x$[rsp]
	movss	DWORD PTR [rax], xmm0
	mov	rax, QWORD PTR v$[rsp]
	movss	xmm0, DWORD PTR y$[rsp]
	movss	DWORD PTR [rax+4], xmm0
	mov	rax, QWORD PTR v$[rsp]
	movss	xmm0, DWORD PTR z$[rsp]
	movss	DWORD PTR [rax+8], xmm0
	pop	rdi
	ret	0
?vector3_Set@@YAXPEAUvector3@@MMM@Z ENDP		; vector3_Set
_TEXT	ENDS
PUBLIC	__real@c0100000
PUBLIC	__real@40100000
PUBLIC	__real@40400000
PUBLIC	__real@c0400000
PUBLIC	?Engine_InitRender@@YAXXZ			; Engine_InitRender
EXTRN	?m_DY@@3MA:DWORD				; m_DY
EXTRN	?m_DX@@3MA:DWORD				; m_DX
EXTRN	?m_WY2@@3MA:DWORD				; m_WY2
EXTRN	?m_WY1@@3MA:DWORD				; m_WY1
EXTRN	?m_SY@@3MA:DWORD				; m_SY
EXTRN	?m_WX2@@3MA:DWORD				; m_WX2
EXTRN	?m_WX1@@3MA:DWORD				; m_WX1
EXTRN	?m_PPos@@3HA:DWORD				; m_PPos
EXTRN	?m_CurrLine@@3HA:DWORD				; m_CurrLine
pdata	SEGMENT
$pdata$?Engine_InitRender@@YAXXZ DD imagerel $LN3
	DD	imagerel $LN3+226
	DD	imagerel $unwind$?Engine_InitRender@@YAXXZ
pdata	ENDS
xdata	SEGMENT
$unwind$?Engine_InitRender@@YAXXZ DD 010201H
	DD	07002H
xdata	ENDS
;	COMDAT __real@c0100000
; File c:\users\mark\documents\devmaster_raytracing\raytracer3.0.06.no_rec.samp\raytracer.cpp
CONST	SEGMENT
__real@c0100000 DD 0c0100000r			; -2.25
CONST	ENDS
;	COMDAT __real@40100000
CONST	SEGMENT
__real@40100000 DD 040100000r			; 2.25
CONST	ENDS
;	COMDAT __real@40400000
CONST	SEGMENT
__real@40400000 DD 040400000r			; 3
CONST	ENDS
;	COMDAT __real@c0400000
CONST	SEGMENT
__real@c0400000 DD 0c0400000r			; -3
; Function compile flags: /Odtp /RTCsu
CONST	ENDS
_TEXT	SEGMENT
?Engine_InitRender@@YAXXZ PROC				; Engine_InitRender
; Line 279
$LN3:
	push	rdi
; Line 281
	mov	DWORD PTR ?m_CurrLine@@3HA, 20		; m_CurrLine
; Line 283
	mov	eax, DWORD PTR ?m_Width@@3HA		; m_Width
	imul	eax, 20
	mov	DWORD PTR ?m_PPos@@3HA, eax		; m_PPos
; Line 286
	movss	xmm0, DWORD PTR __real@c0400000
	movss	DWORD PTR ?m_WX1@@3MA, xmm0		; m_WX1
	movss	xmm0, DWORD PTR __real@40400000
	movss	DWORD PTR ?m_WX2@@3MA, xmm0		; m_WX2
	movss	xmm0, DWORD PTR __real@40100000
	movss	DWORD PTR ?m_SY@@3MA, xmm0		; m_SY
	movss	xmm0, DWORD PTR ?m_SY@@3MA		; m_SY
	movss	DWORD PTR ?m_WY1@@3MA, xmm0		; m_WY1
	movss	xmm0, DWORD PTR __real@c0100000
	movss	DWORD PTR ?m_WY2@@3MA, xmm0		; m_WY2
; Line 288
	movss	xmm0, DWORD PTR ?m_WX2@@3MA		; m_WX2
	subss	xmm0, DWORD PTR ?m_WX1@@3MA		; m_WX1
	movd	xmm1, DWORD PTR ?m_Width@@3HA		; m_Width
	cvtdq2ps xmm1, xmm1
	divss	xmm0, xmm1
	movss	DWORD PTR ?m_DX@@3MA, xmm0		; m_DX
; Line 289
	movss	xmm0, DWORD PTR ?m_WY2@@3MA		; m_WY2
	subss	xmm0, DWORD PTR ?m_WY1@@3MA		; m_WY1
	movd	xmm1, DWORD PTR ?m_Height@@3HA		; m_Height
	cvtdq2ps xmm1, xmm1
	divss	xmm0, xmm1
	movss	DWORD PTR ?m_DY@@3MA, xmm0		; m_DY
; Line 290
	movss	xmm0, DWORD PTR __real@41a00000
	mulss	xmm0, DWORD PTR ?m_DY@@3MA		; m_DY
	movss	xmm1, DWORD PTR ?m_SY@@3MA		; m_SY
	addss	xmm1, xmm0
	movaps	xmm0, xmm1
	movss	DWORD PTR ?m_SY@@3MA, xmm0		; m_SY
; Line 294
	pop	rdi
	ret	0
?Engine_InitRender@@YAXXZ ENDP				; Engine_InitRender
_TEXT	ENDS
PUBLIC	__real@41e00000
PUBLIC	?exp@@YAMM@Z					; exp
PUBLIC	__real@3e19999a
PUBLIC	$T67391
PUBLIC	$T67392
PUBLIC	__real@c0e00000
PUBLIC	__real@3e800000
PUBLIC	__$ArrayPad$
PUBLIC	?Engine_Render@@YA_NXZ				; Engine_Render
EXTRN	?m_SX@@3MA:DWORD				; m_SX
EXTRN	__chkstk:PROC
pdata	SEGMENT
$pdata$?Engine_Render@@YA_NXZ DD imagerel $LN35
	DD	imagerel $LN35+5961
	DD	imagerel $unwind$?Engine_Render@@YA_NXZ
pdata	ENDS
xdata	SEGMENT
$unwind$?Engine_Render@@YA_NXZ DD 043119H
	DD	03f70110H
	DD	060027003H
	DD	imagerel __GSHandlerCheck
	DD	01fa0H
xdata	ENDS
;	COMDAT __real@41e00000
CONST	SEGMENT
__real@41e00000 DD 041e00000r			; 28
CONST	ENDS
;	COMDAT __real@3e19999a
CONST	SEGMENT
__real@3e19999a DD 03e19999ar			; 0.15
CONST	ENDS
;	COMDAT __real@c0e00000
CONST	SEGMENT
__real@c0e00000 DD 0c0e00000r			; -7
CONST	ENDS
;	COMDAT __real@3e800000
CONST	SEGMENT
__real@3e800000 DD 03e800000r			; 0.25
CONST	ENDS
CONST	SEGMENT
?Engine_Render@@YA_NXZ$rtcName$0 DB 063H		; Engine_Render
	DB	061H
	DB	06dH
	DB	065H
	DB	072H
	DB	061H
	DB	00H
	ORG $+1
?Engine_Render@@YA_NXZ$rtcName$1 DB 061H		; Engine_Render
	DB	063H
	DB	063H
	DB	00H
?Engine_Render@@YA_NXZ$rtcName$3 DB 064H		; Engine_Render
	DB	069H
	DB	072H
	DB	00H
?Engine_Render@@YA_NXZ$rtcName$2 DB 074H		; Engine_Render
	DB	06fH
	DB	074H
	DB	061H
	DB	06cH
	DB	05fH
	DB	061H
	DB	063H
	DB	063H
	DB	00H
	ORG $+2
?Engine_Render@@YA_NXZ$rtcName$4 DB 06fH		; Engine_Render
	DB	05fH
	DB	052H
	DB	061H
	DB	079H
	DB	00H
	ORG $+6
?Engine_Render@@YA_NXZ$rtcName$5 DB 072H		; Engine_Render
	DB	065H
	DB	066H
	DB	06cH
	DB	05fH
	DB	052H
	DB	061H
	DB	079H
	DB	00H
	ORG $+7
?Engine_Render@@YA_NXZ$rtcName$6 DB 072H		; Engine_Render
	DB	065H
	DB	066H
	DB	072H
	DB	05fH
	DB	052H
	DB	061H
	DB	079H
	DB	00H
	ORG $+7
?Engine_Render@@YA_NXZ$rtcName$7 DB 074H		; Engine_Render
	DB	072H
	DB	05fH
	DB	06fH
	DB	05fH
	DB	052H
	DB	061H
	DB	079H
	DB	00H
	ORG $+7
?Engine_Render@@YA_NXZ$rtcName$8 DB 074H		; Engine_Render
	DB	072H
	DB	05fH
	DB	043H
	DB	06fH
	DB	06cH
	DB	06fH
	DB	072H
	DB	05fH
	DB	078H
	DB	00H
	ORG $+5
?Engine_Render@@YA_NXZ$rtcName$9 DB 074H		; Engine_Render
	DB	072H
	DB	05fH
	DB	043H
	DB	06fH
	DB	06cH
	DB	06fH
	DB	072H
	DB	05fH
	DB	079H
	DB	00H
	ORG $+5
?Engine_Render@@YA_NXZ$rtcName$10 DB 074H		; Engine_Render
	DB	072H
	DB	05fH
	DB	043H
	DB	06fH
	DB	06cH
	DB	06fH
	DB	072H
	DB	05fH
	DB	07aH
	DB	00H
	ORG $+5
?Engine_Render@@YA_NXZ$rtcName$11 DB 074H		; Engine_Render
	DB	072H
	DB	05fH
	DB	072H
	DB	065H
	DB	066H
	DB	06cH
	DB	05fH
	DB	052H
	DB	061H
	DB	079H
	DB	00H
	ORG $+4
?Engine_Render@@YA_NXZ$rtcName$12 DB 074H		; Engine_Render
	DB	072H
	DB	05fH
	DB	052H
	DB	065H
	DB	066H
	DB	06cH
	DB	00H
?Engine_Render@@YA_NXZ$rtcName$13 DB 074H		; Engine_Render
	DB	072H
	DB	05fH
	DB	052H
	DB	065H
	DB	066H
	DB	06cH
	DB	05fH
	DB	069H
	DB	06eH
	DB	064H
	DB	065H
	DB	078H
	DB	00H
	ORG $+2
?Engine_Render@@YA_NXZ$rtcName$14 DB 074H		; Engine_Render
	DB	072H
	DB	05fH
	DB	052H
	DB	065H
	DB	066H
	DB	072H
	DB	05fH
	DB	052H
	DB	069H
	DB	06eH
	DB	064H
	DB	065H
	DB	078H
	DB	00H
	ORG $+1
?Engine_Render@@YA_NXZ$rtcName$15 DB 074H		; Engine_Render
	DB	072H
	DB	05fH
	DB	072H
	DB	065H
	DB	066H
	DB	072H
	DB	05fH
	DB	052H
	DB	061H
	DB	079H
	DB	00H
	ORG $+4
?Engine_Render@@YA_NXZ$rtcName$16 DB 074H		; Engine_Render
	DB	072H
	DB	05fH
	DB	052H
	DB	065H
	DB	066H
	DB	072H
	DB	00H
?Engine_Render@@YA_NXZ$rtcName$17 DB 074H		; Engine_Render
	DB	072H
	DB	05fH
	DB	052H
	DB	065H
	DB	066H
	DB	072H
	DB	05fH
	DB	069H
	DB	06eH
	DB	064H
	DB	065H
	DB	078H
	DB	00H
	ORG $+2
?Engine_Render@@YA_NXZ$rtcName$18 DB 074H		; Engine_Render
	DB	072H
	DB	05fH
	DB	064H
	DB	069H
	DB	073H
	DB	074H
	DB	00H
?Engine_Render@@YA_NXZ$rtcName$19 DB 064H		; Engine_Render
	DB	069H
	DB	073H
	DB	074H
	DB	00H
	ORG $+3
?Engine_Render@@YA_NXZ$rtcName$20 DB 072H		; Engine_Render
	DB	065H
	DB	066H
	DB	06cH
	DB	00H
	ORG $+3
?Engine_Render@@YA_NXZ$rtcName$21 DB 072H		; Engine_Render
	DB	065H
	DB	066H
	DB	072H
	DB	00H
	ORG $+3
?Engine_Render@@YA_NXZ$rtcName$22 DB 072H		; Engine_Render
	DB	065H
	DB	066H
	DB	06cH
	DB	05fH
	DB	069H
	DB	06eH
	DB	064H
	DB	065H
	DB	078H
	DB	00H
	ORG $+5
?Engine_Render@@YA_NXZ$rtcName$23 DB 072H		; Engine_Render
	DB	065H
	DB	066H
	DB	072H
	DB	05fH
	DB	069H
	DB	06eH
	DB	064H
	DB	065H
	DB	078H
	DB	00H
	ORG $+5
?Engine_Render@@YA_NXZ$rtcName$24 DB 069H		; Engine_Render
	DB	06eH
	DB	070H
	DB	075H
	DB	074H
	DB	05fH
	DB	052H
	DB	069H
	DB	06eH
	DB	064H
	DB	065H
	DB	078H
	DB	00H
	ORG $+3
?Engine_Render@@YA_NXZ$rtcName$25 DB 061H		; Engine_Render
	DB	062H
	DB	073H
	DB	06fH
	DB	072H
	DB	062H
	DB	061H
	DB	06eH
	DB	063H
	DB	065H
	DB	00H
	ORG $+5
?Engine_Render@@YA_NXZ$rtcName$26 DB 074H		; Engine_Render
	DB	072H
	DB	061H
	DB	06eH
	DB	073H
	DB	070H
	DB	061H
	DB	072H
	DB	065H
	DB	06eH
	DB	063H
	DB	079H
	DB	00H
	ORG $+3
?Engine_Render@@YA_NXZ$rtcFrameData DD 01bH		; Engine_Render
	DD	00H
	DQ	FLAT:?Engine_Render@@YA_NXZ$rtcVarDesc
	ORG $+8
?Engine_Render@@YA_NXZ$rtcVarDesc DD 01f28H		; Engine_Render
	DD	0cH
	DQ	FLAT:?Engine_Render@@YA_NXZ$rtcName$26
	DD	01ef8H
	DD	0cH
	DQ	FLAT:?Engine_Render@@YA_NXZ$rtcName$25
	DD	01ec4H
	DD	04H
	DQ	FLAT:?Engine_Render@@YA_NXZ$rtcName$24
	DD	01ea4H
	DD	04H
	DQ	FLAT:?Engine_Render@@YA_NXZ$rtcName$23
	DD	01e84H
	DD	04H
	DQ	FLAT:?Engine_Render@@YA_NXZ$rtcName$22
	DD	01e64H
	DD	04H
	DQ	FLAT:?Engine_Render@@YA_NXZ$rtcName$21
	DD	01e44H
	DD	04H
	DQ	FLAT:?Engine_Render@@YA_NXZ$rtcName$20
	DD	01e24H
	DD	04H
	DQ	FLAT:?Engine_Render@@YA_NXZ$rtcName$19
	DD	01d00H
	DD	0fcH
	DQ	FLAT:?Engine_Render@@YA_NXZ$rtcName$18
	DD	01be0H
	DD	0fcH
	DQ	FLAT:?Engine_Render@@YA_NXZ$rtcName$17
	DD	01ac0H
	DD	0fcH
	DQ	FLAT:?Engine_Render@@YA_NXZ$rtcName$16
	DD	014b0H
	DD	05e8H
	DQ	FLAT:?Engine_Render@@YA_NXZ$rtcName$15
	DD	01390H
	DD	0fcH
	DQ	FLAT:?Engine_Render@@YA_NXZ$rtcName$14
	DD	01270H
	DD	0fcH
	DQ	FLAT:?Engine_Render@@YA_NXZ$rtcName$13
	DD	01150H
	DD	0fcH
	DQ	FLAT:?Engine_Render@@YA_NXZ$rtcName$12
	DD	0b40H
	DD	05e8H
	DQ	FLAT:?Engine_Render@@YA_NXZ$rtcName$11
	DD	0a20H
	DD	0fcH
	DQ	FLAT:?Engine_Render@@YA_NXZ$rtcName$10
	DD	0900H
	DD	0fcH
	DQ	FLAT:?Engine_Render@@YA_NXZ$rtcName$9
	DD	07e0H
	DD	0fcH
	DQ	FLAT:?Engine_Render@@YA_NXZ$rtcName$8
	DD	01d0H
	DD	05e8H
	DQ	FLAT:?Engine_Render@@YA_NXZ$rtcName$7
	DD	0198H
	DD	018H
	DQ	FLAT:?Engine_Render@@YA_NXZ$rtcName$6
	DD	0168H
	DD	018H
	DQ	FLAT:?Engine_Render@@YA_NXZ$rtcName$5
	DD	0138H
	DD	018H
	DQ	FLAT:?Engine_Render@@YA_NXZ$rtcName$4
	DD	0108H
	DD	0cH
	DQ	FLAT:?Engine_Render@@YA_NXZ$rtcName$3
	DD	0d8H
	DD	0cH
	DQ	FLAT:?Engine_Render@@YA_NXZ$rtcName$2
	DD	0a8H
	DD	0cH
	DQ	FLAT:?Engine_Render@@YA_NXZ$rtcName$1
	DD	078H
	DD	0cH
	DQ	FLAT:?Engine_Render@@YA_NXZ$rtcName$0
; Function compile flags: /Odtp /RTCsu
CONST	ENDS
_TEXT	SEGMENT
lastprim$ = 96
y$67018 = 104
x$67022 = 108
camera$67026 = 120
acc$67027 = 168
total_acc$67028 = 216
dir$67029 = 264
len$67030 = 292
o_Ray$67033 = 312
refl_Ray$67034 = 360
refr_Ray$67035 = 408
NodeCount$67036 = 436
tr_o_Ray$67037 = 464
tr_Color_x$67038 = 2016
tr_Color_y$67039 = 2304
tr_Color_z$67040 = 2592
tr_refl_Ray$67041 = 2880
tr_Refl$67042 = 4432
tr_Refl_index$67043 = 4720
tr_Refr_Rindex$67044 = 5008
tr_refr_Ray$67045 = 5296
tr_Refr$67046 = 6848
tr_Refr_index$67047 = 7136
tr_dist$67048 = 7424
tx$67049 = 7684
ty$67053 = 7688
i$67057 = 7692
l$67061 = 7696
dist$67062 = 7716
refl$67063 = 7748
refr$67064 = 7780
refl_index$67065 = 7812
refr_index$67066 = 7844
input_Rindex$67067 = 7876
pindex$67068 = 7892
refl_done$67069 = 7896
refr_done$67070 = 7900
i$67071 = 7904
i$67079 = 7908
absorbance$67084 = 7928
transparency$67085 = 7976
red$67087 = 8004
green$67089 = 8008
blue$67091 = 8012
$T67391 = 8024
$T67392 = 8048
tv628 = 8072
tv651 = 8080
tv674 = 8088
__$ArrayPad$ = 8096
?Engine_Render@@YA_NXZ PROC				; Engine_Render
; Line 302
$LN35:
	push	rsi
	push	rdi
	mov	eax, 8120				; 00001fb8H
	call	__chkstk
	sub	rsp, rax
	mov	rdi, rsp
	mov	ecx, 2030				; 000007eeH
	mov	eax, -858993460				; ccccccccH
	rep stosd
	mov	rax, QWORD PTR __security_cookie
	xor	rax, rsp
	mov	QWORD PTR __$ArrayPad$[rsp], rax
; Line 305
	mov	QWORD PTR lastprim$[rsp], 0
; Line 307
	mov	eax, DWORD PTR ?m_CurrLine@@3HA		; m_CurrLine
	mov	DWORD PTR y$67018[rsp], eax
	jmp	SHORT $LN32@Engine_Ren
$LN31@Engine_Ren:
	mov	eax, DWORD PTR y$67018[rsp]
	inc	eax
	mov	DWORD PTR y$67018[rsp], eax
$LN32@Engine_Ren:
	mov	eax, DWORD PTR ?m_Height@@3HA		; m_Height
	sub	eax, 70					; 00000046H
	cmp	DWORD PTR y$67018[rsp], eax
	jge	$LN30@Engine_Ren
; Line 309
	movss	xmm0, DWORD PTR ?m_WX1@@3MA		; m_WX1
	movss	DWORD PTR ?m_SX@@3MA, xmm0		; m_SX
; Line 311
	mov	DWORD PTR x$67022[rsp], 0
	jmp	SHORT $LN29@Engine_Ren
$LN28@Engine_Ren:
	mov	eax, DWORD PTR x$67022[rsp]
	inc	eax
	mov	DWORD PTR x$67022[rsp], eax
$LN29@Engine_Ren:
	mov	eax, DWORD PTR ?m_Width@@3HA		; m_Width
	cmp	DWORD PTR x$67022[rsp], eax
	jge	$LN27@Engine_Ren
; Line 315
	xorps	xmm0, xmm0
	movss	DWORD PTR camera$67026[rsp], xmm0
	movss	xmm0, DWORD PTR __real@3e800000
	movss	DWORD PTR camera$67026[rsp+4], xmm0
	movss	xmm0, DWORD PTR __real@c0e00000
	movss	DWORD PTR camera$67026[rsp+8], xmm0
; Line 316
	xorps	xmm0, xmm0
	movss	DWORD PTR acc$67027[rsp+8], xmm0
	movss	xmm0, DWORD PTR acc$67027[rsp+8]
	movss	DWORD PTR acc$67027[rsp+4], xmm0
	movss	xmm0, DWORD PTR acc$67027[rsp+4]
	movss	DWORD PTR acc$67027[rsp], xmm0
; Line 317
	xorps	xmm0, xmm0
	movss	DWORD PTR total_acc$67028[rsp], xmm0
	xorps	xmm0, xmm0
	movss	DWORD PTR total_acc$67028[rsp+4], xmm0
	xorps	xmm0, xmm0
	movss	DWORD PTR total_acc$67028[rsp+8], xmm0
; Line 319
	movss	xmm0, DWORD PTR ?m_SX@@3MA		; m_SX
	movss	DWORD PTR dir$67029[rsp], xmm0
	movss	xmm0, DWORD PTR ?m_SY@@3MA		; m_SY
	movss	DWORD PTR dir$67029[rsp+4], xmm0
	xorps	xmm0, xmm0
	movss	DWORD PTR dir$67029[rsp+8], xmm0
; Line 321
	movss	xmm0, DWORD PTR dir$67029[rsp]
	subss	xmm0, DWORD PTR camera$67026[rsp]
	movss	DWORD PTR dir$67029[rsp], xmm0
	movss	xmm0, DWORD PTR dir$67029[rsp+4]
	subss	xmm0, DWORD PTR camera$67026[rsp+4]
	movss	DWORD PTR dir$67029[rsp+4], xmm0
	movss	xmm0, DWORD PTR dir$67029[rsp+8]
	subss	xmm0, DWORD PTR camera$67026[rsp+8]
	movss	DWORD PTR dir$67029[rsp+8], xmm0
; Line 323
	movss	xmm0, DWORD PTR dir$67029[rsp]
	mulss	xmm0, DWORD PTR dir$67029[rsp]
	movss	xmm1, DWORD PTR dir$67029[rsp+4]
	mulss	xmm1, DWORD PTR dir$67029[rsp+4]
	addss	xmm0, xmm1
	movss	xmm1, DWORD PTR dir$67029[rsp+8]
	mulss	xmm1, DWORD PTR dir$67029[rsp+8]
	addss	xmm0, xmm1
	call	?sqrt@@YAMM@Z				; sqrt
	movss	DWORD PTR len$67030[rsp], xmm0
; Line 325
	movss	xmm0, DWORD PTR len$67030[rsp]
	comiss	xmm0, DWORD PTR __real@00000000
	jbe	$LN26@Engine_Ren
; Line 326
	movss	xmm0, DWORD PTR __real@3f800000
	divss	xmm0, DWORD PTR len$67030[rsp]
	movss	xmm1, DWORD PTR dir$67029[rsp]
	mulss	xmm1, xmm0
	movaps	xmm0, xmm1
	movss	DWORD PTR dir$67029[rsp], xmm0
	movss	xmm0, DWORD PTR __real@3f800000
	divss	xmm0, DWORD PTR len$67030[rsp]
	movss	xmm1, DWORD PTR dir$67029[rsp+4]
	mulss	xmm1, xmm0
	movaps	xmm0, xmm1
	movss	DWORD PTR dir$67029[rsp+4], xmm0
	movss	xmm0, DWORD PTR __real@3f800000
	divss	xmm0, DWORD PTR len$67030[rsp]
	movss	xmm1, DWORD PTR dir$67029[rsp+8]
	mulss	xmm1, xmm0
	movaps	xmm0, xmm1
	movss	DWORD PTR dir$67029[rsp+8], xmm0
; Line 327
	jmp	SHORT $LN25@Engine_Ren
$LN26@Engine_Ren:
; Line 328
	xorps	xmm0, xmm0
	movss	DWORD PTR dir$67029[rsp+8], xmm0
	movss	xmm0, DWORD PTR dir$67029[rsp+8]
	movss	DWORD PTR dir$67029[rsp+4], xmm0
	movss	xmm0, DWORD PTR dir$67029[rsp+4]
	movss	DWORD PTR dir$67029[rsp], xmm0
$LN25@Engine_Ren:
; Line 336
	mov	DWORD PTR NodeCount$67036[rsp], 63	; 0000003fH
; Line 351
	mov	DWORD PTR tx$67049[rsp], -1
	jmp	SHORT $LN24@Engine_Ren
$LN23@Engine_Ren:
	mov	eax, DWORD PTR tx$67049[rsp]
	inc	eax
	mov	DWORD PTR tx$67049[rsp], eax
$LN24@Engine_Ren:
	cmp	DWORD PTR tx$67049[rsp], 2
	jge	$LN22@Engine_Ren
	mov	DWORD PTR ty$67053[rsp], -1
	jmp	SHORT $LN21@Engine_Ren
$LN20@Engine_Ren:
	mov	eax, DWORD PTR ty$67053[rsp]
	inc	eax
	mov	DWORD PTR ty$67053[rsp], eax
$LN21@Engine_Ren:
	cmp	DWORD PTR ty$67053[rsp], 2
	jge	$LN19@Engine_Ren
; Line 353
	mov	DWORD PTR i$67057[rsp], 0
	jmp	SHORT $LN18@Engine_Ren
$LN17@Engine_Ren:
	mov	eax, DWORD PTR i$67057[rsp]
	inc	eax
	mov	DWORD PTR i$67057[rsp], eax
$LN18@Engine_Ren:
	cmp	DWORD PTR i$67057[rsp], 63		; 0000003fH
	jge	$LN16@Engine_Ren
; Line 354
	movsxd	rax, DWORD PTR i$67057[rsp]
	xorps	xmm0, xmm0
	movss	DWORD PTR tr_Color_x$67038[rsp+rax*4], xmm0
; Line 355
	movsxd	rax, DWORD PTR i$67057[rsp]
	xorps	xmm0, xmm0
	movss	DWORD PTR tr_Color_y$67039[rsp+rax*4], xmm0
; Line 356
	movsxd	rax, DWORD PTR i$67057[rsp]
	xorps	xmm0, xmm0
	movss	DWORD PTR tr_Color_z$67040[rsp+rax*4], xmm0
; Line 357
	movsxd	rax, DWORD PTR i$67057[rsp]
	xorps	xmm0, xmm0
	movss	DWORD PTR tr_Refl$67042[rsp+rax*4], xmm0
; Line 358
	movsxd	rax, DWORD PTR i$67057[rsp]
	mov	DWORD PTR tr_Refl_index$67043[rsp+rax*4], -1
; Line 359
	movsxd	rax, DWORD PTR i$67057[rsp]
	movss	xmm0, DWORD PTR __real@3f800000
	movss	DWORD PTR tr_Refr_Rindex$67044[rsp+rax*4], xmm0
; Line 360
	movsxd	rax, DWORD PTR i$67057[rsp]
	xorps	xmm0, xmm0
	movss	DWORD PTR tr_Refr$67046[rsp+rax*4], xmm0
; Line 361
	movsxd	rax, DWORD PTR i$67057[rsp]
	mov	DWORD PTR tr_Refr_index$67047[rsp+rax*4], -1
; Line 362
	movsxd	rax, DWORD PTR i$67057[rsp]
	xorps	xmm0, xmm0
	movss	DWORD PTR tr_dist$67048[rsp+rax*4], xmm0
; Line 363
	jmp	$LN17@Engine_Ren
$LN16@Engine_Ren:
; Line 364
	movd	xmm0, DWORD PTR tx$67049[rsp]
	cvtdq2ps xmm0, xmm0
	movss	xmm1, DWORD PTR ?m_DX@@3MA		; m_DX
	mulss	xmm1, xmm0
	movaps	xmm0, xmm1
	divss	xmm0, DWORD PTR __real@40000000
	movss	xmm1, DWORD PTR ?m_SX@@3MA		; m_SX
	addss	xmm1, xmm0
	movaps	xmm0, xmm1
	subss	xmm0, DWORD PTR camera$67026[rsp]
	movss	DWORD PTR dir$67029[rsp], xmm0
; Line 365
	movd	xmm0, DWORD PTR ty$67053[rsp]
	cvtdq2ps xmm0, xmm0
	movss	xmm1, DWORD PTR ?m_DY@@3MA		; m_DY
	mulss	xmm1, xmm0
	movaps	xmm0, xmm1
	divss	xmm0, DWORD PTR __real@40000000
	movss	xmm1, DWORD PTR ?m_SY@@3MA		; m_SY
	addss	xmm1, xmm0
	movaps	xmm0, xmm1
	subss	xmm0, DWORD PTR camera$67026[rsp+4]
	movss	DWORD PTR dir$67029[rsp+4], xmm0
; Line 366
	xorps	xmm0, xmm0
	subss	xmm0, DWORD PTR camera$67026[rsp+8]
	movss	DWORD PTR dir$67029[rsp+8], xmm0
; Line 367
	movss	xmm0, DWORD PTR dir$67029[rsp]
	mulss	xmm0, DWORD PTR dir$67029[rsp]
	movss	xmm1, DWORD PTR dir$67029[rsp+4]
	mulss	xmm1, DWORD PTR dir$67029[rsp+4]
	addss	xmm0, xmm1
	movss	xmm1, DWORD PTR dir$67029[rsp+8]
	mulss	xmm1, DWORD PTR dir$67029[rsp+8]
	addss	xmm0, xmm1
	call	sqrtf
	movss	xmm1, DWORD PTR __real@3f800000
	divss	xmm1, xmm0
	movaps	xmm0, xmm1
	movss	DWORD PTR l$67061[rsp], xmm0
	movss	xmm0, DWORD PTR dir$67029[rsp]
	mulss	xmm0, DWORD PTR l$67061[rsp]
	movss	DWORD PTR dir$67029[rsp], xmm0
	movss	xmm0, DWORD PTR dir$67029[rsp+4]
	mulss	xmm0, DWORD PTR l$67061[rsp]
	movss	DWORD PTR dir$67029[rsp+4], xmm0
	movss	xmm0, DWORD PTR dir$67029[rsp+8]
	mulss	xmm0, DWORD PTR l$67061[rsp]
	movss	DWORD PTR dir$67029[rsp+8], xmm0
; Line 368
	lea	rax, QWORD PTR o_Ray$67033[rsp+12]
	lea	rcx, QWORD PTR dir$67029[rsp]
	mov	rdi, rax
	mov	rsi, rcx
	mov	ecx, 12
	rep movsb
; Line 369
	lea	rax, QWORD PTR o_Ray$67033[rsp]
	lea	rcx, QWORD PTR camera$67026[rsp]
	mov	rdi, rax
	mov	rsi, rcx
	mov	ecx, 12
	rep movsb
; Line 370
	lea	rax, QWORD PTR refl_Ray$67034[rsp+12]
	lea	rcx, QWORD PTR dir$67029[rsp]
	mov	rdi, rax
	mov	rsi, rcx
	mov	ecx, 12
	rep movsb
; Line 371
	lea	rax, QWORD PTR refl_Ray$67034[rsp]
	lea	rcx, QWORD PTR camera$67026[rsp]
	mov	rdi, rax
	mov	rsi, rcx
	mov	ecx, 12
	rep movsb
; Line 372
	lea	rax, QWORD PTR tr_refl_Ray$67041[rsp]
	lea	rcx, QWORD PTR o_Ray$67033[rsp]
	mov	rdi, rax
	mov	rsi, rcx
	mov	ecx, 24
	rep movsb
; Line 373
	lea	rax, QWORD PTR refr_Ray$67035[rsp+12]
	lea	rcx, QWORD PTR dir$67029[rsp]
	mov	rdi, rax
	mov	rsi, rcx
	mov	ecx, 12
	rep movsb
; Line 374
	lea	rax, QWORD PTR refr_Ray$67035[rsp]
	lea	rcx, QWORD PTR camera$67026[rsp]
	mov	rdi, rax
	mov	rsi, rcx
	mov	ecx, 12
	rep movsb
; Line 376
	xorps	xmm0, xmm0
	movss	DWORD PTR dist$67062[rsp], xmm0
; Line 377
	xorps	xmm0, xmm0
	movss	DWORD PTR refl$67063[rsp], xmm0
; Line 378
	xorps	xmm0, xmm0
	movss	DWORD PTR refr$67064[rsp], xmm0
; Line 379
	mov	DWORD PTR refl_index$67065[rsp], -1
; Line 380
	mov	DWORD PTR refr_index$67066[rsp], -1
; Line 381
	xorps	xmm0, xmm0
	movss	DWORD PTR acc$67027[rsp+8], xmm0
	movss	xmm0, DWORD PTR acc$67027[rsp+8]
	movss	DWORD PTR acc$67027[rsp+4], xmm0
	movss	xmm0, DWORD PTR acc$67027[rsp+4]
	movss	DWORD PTR acc$67027[rsp], xmm0
; Line 382
	movss	xmm0, DWORD PTR __real@3f800000
	movss	DWORD PTR input_Rindex$67067[rsp], xmm0
; Line 383
	lea	rax, QWORD PTR refr_Ray$67035[rsp]
	mov	QWORD PTR [rsp+80], rax
	lea	rax, QWORD PTR refr_index$67066[rsp]
	mov	QWORD PTR [rsp+72], rax
	lea	rax, QWORD PTR refr$67064[rsp]
	mov	QWORD PTR [rsp+64], rax
	lea	rax, QWORD PTR refl_Ray$67034[rsp]
	mov	QWORD PTR [rsp+56], rax
	lea	rax, QWORD PTR refl_index$67065[rsp]
	mov	QWORD PTR [rsp+48], rax
	lea	rax, QWORD PTR refl$67063[rsp]
	mov	QWORD PTR [rsp+40], rax
	lea	rax, QWORD PTR dist$67062[rsp]
	mov	QWORD PTR [rsp+32], rax
	lea	r9, QWORD PTR input_Rindex$67067[rsp]
	mov	r8d, 1
	lea	rdx, QWORD PTR acc$67027[rsp]
	lea	rcx, QWORD PTR o_Ray$67033[rsp]
	call	?Engine_Raytrace@@YAHPEAURay@@PEAUvector3@@HPEAM22PEAH0230@Z ; Engine_Raytrace
	mov	DWORD PTR pindex$67068[rsp], eax
; Line 384
	lea	rax, QWORD PTR tr_o_Ray$67037[rsp]
	lea	rcx, QWORD PTR o_Ray$67033[rsp]
	mov	rdi, rax
	mov	rsi, rcx
	mov	ecx, 24
	rep movsb
; Line 385
	movss	xmm0, DWORD PTR acc$67027[rsp]
	movss	DWORD PTR tr_Color_x$67038[rsp], xmm0
; Line 386
	movss	xmm0, DWORD PTR acc$67027[rsp+4]
	movss	DWORD PTR tr_Color_y$67039[rsp], xmm0
; Line 387
	movss	xmm0, DWORD PTR acc$67027[rsp+8]
	movss	DWORD PTR tr_Color_z$67040[rsp], xmm0
; Line 388
	lea	rax, QWORD PTR tr_refl_Ray$67041[rsp]
	lea	rcx, QWORD PTR refl_Ray$67034[rsp]
	mov	rdi, rax
	mov	rsi, rcx
	mov	ecx, 24
	rep movsb
; Line 389
	movss	xmm0, DWORD PTR refl$67063[rsp]
	movss	DWORD PTR tr_Refl$67042[rsp], xmm0
; Line 390
	mov	eax, DWORD PTR refl_index$67065[rsp]
	mov	DWORD PTR tr_Refl_index$67043[rsp], eax
; Line 391
	lea	rax, QWORD PTR tr_refr_Ray$67045[rsp]
	lea	rcx, QWORD PTR refr_Ray$67035[rsp]
	mov	rdi, rax
	mov	rsi, rcx
	mov	ecx, 24
	rep movsb
; Line 392
	movss	xmm0, DWORD PTR input_Rindex$67067[rsp]
	movss	DWORD PTR tr_Refr_Rindex$67044[rsp], xmm0
; Line 393
	movss	xmm0, DWORD PTR refr$67064[rsp]
	movss	DWORD PTR tr_Refr$67046[rsp], xmm0
; Line 394
	mov	eax, DWORD PTR refr_index$67066[rsp]
	mov	DWORD PTR tr_Refr_index$67047[rsp], eax
; Line 395
	movss	xmm0, DWORD PTR dist$67062[rsp]
	movss	DWORD PTR tr_dist$67048[rsp], xmm0
; Line 396
	mov	DWORD PTR refl_done$67069[rsp], 0
; Line 397
	mov	DWORD PTR refr_done$67070[rsp], 0
; Line 398
	mov	DWORD PTR i$67071[rsp], 1
	jmp	SHORT $LN15@Engine_Ren
$LN14@Engine_Ren:
	mov	eax, DWORD PTR i$67071[rsp]
	add	eax, 2
	mov	DWORD PTR i$67071[rsp], eax
$LN15@Engine_Ren:
	cmp	DWORD PTR i$67071[rsp], 63		; 0000003fH
	jge	$LN13@Engine_Ren
; Line 399
	mov	eax, DWORD PTR i$67071[rsp]
	dec	eax
	cdq
	sub	eax, edx
	sar	eax, 1
	cdqe
	movss	xmm0, DWORD PTR tr_Refl$67042[rsp+rax*4]
	comiss	xmm0, DWORD PTR __real@00000000
	jbe	$LN12@Engine_Ren
; Line 400
	xorps	xmm0, xmm0
	movss	DWORD PTR refl$67063[rsp], xmm0
; Line 401
	mov	DWORD PTR refl_index$67065[rsp], -1
; Line 402
	mov	eax, DWORD PTR i$67071[rsp]
	dec	eax
	cdq
	sub	eax, edx
	sar	eax, 1
	cdqe
	imul	rax, 24
	lea	rcx, QWORD PTR $T67392[rsp]
	mov	rdi, rcx
	lea	rsi, QWORD PTR tr_refl_Ray$67041[rsp+rax]
	mov	ecx, 24
	rep movsb
	lea	rax, QWORD PTR o_Ray$67033[rsp]
	lea	rcx, QWORD PTR $T67392[rsp]
	mov	rdi, rax
	mov	rsi, rcx
	mov	ecx, 24
	rep movsb
; Line 403
	movsxd	rax, DWORD PTR i$67071[rsp]
	movss	xmm0, DWORD PTR tr_Color_x$67038[rsp+rax*4]
	movss	DWORD PTR acc$67027[rsp], xmm0
; Line 404
	movsxd	rax, DWORD PTR i$67071[rsp]
	movss	xmm0, DWORD PTR tr_Color_y$67039[rsp+rax*4]
	movss	DWORD PTR acc$67027[rsp+4], xmm0
; Line 405
	movsxd	rax, DWORD PTR i$67071[rsp]
	movss	xmm0, DWORD PTR tr_Color_z$67040[rsp+rax*4]
	movss	DWORD PTR acc$67027[rsp+8], xmm0
; Line 406
	xorps	xmm0, xmm0
	movss	DWORD PTR dist$67062[rsp], xmm0
; Line 407
	xorps	xmm0, xmm0
	movss	DWORD PTR refl$67063[rsp], xmm0
; Line 408
	xorps	xmm0, xmm0
	movss	DWORD PTR refr$67064[rsp], xmm0
; Line 409
	mov	DWORD PTR refl_index$67065[rsp], -1
; Line 410
	mov	DWORD PTR refr_index$67066[rsp], -1
; Line 412
	mov	eax, DWORD PTR i$67071[rsp]
	dec	eax
	cdq
	sub	eax, edx
	sar	eax, 1
	cdqe
	movss	xmm0, DWORD PTR tr_Refr_Rindex$67044[rsp+rax*4]
	movss	DWORD PTR input_Rindex$67067[rsp], xmm0
; Line 413
	lea	rax, QWORD PTR refr_Ray$67035[rsp]
	mov	QWORD PTR [rsp+80], rax
	lea	rax, QWORD PTR refr_index$67066[rsp]
	mov	QWORD PTR [rsp+72], rax
	lea	rax, QWORD PTR refr$67064[rsp]
	mov	QWORD PTR [rsp+64], rax
	lea	rax, QWORD PTR refl_Ray$67034[rsp]
	mov	QWORD PTR [rsp+56], rax
	lea	rax, QWORD PTR refl_index$67065[rsp]
	mov	QWORD PTR [rsp+48], rax
	lea	rax, QWORD PTR refl$67063[rsp]
	mov	QWORD PTR [rsp+40], rax
	lea	rax, QWORD PTR dist$67062[rsp]
	mov	QWORD PTR [rsp+32], rax
	lea	r9, QWORD PTR input_Rindex$67067[rsp]
	mov	r8d, 1
	lea	rdx, QWORD PTR acc$67027[rsp]
	lea	rcx, QWORD PTR o_Ray$67033[rsp]
	call	?Engine_Raytrace@@YAHPEAURay@@PEAUvector3@@HPEAM22PEAH0230@Z ; Engine_Raytrace
	mov	DWORD PTR pindex$67068[rsp], eax
; Line 414
	movsxd	rax, DWORD PTR i$67071[rsp]
	imul	rax, 24
	lea	rcx, QWORD PTR o_Ray$67033[rsp]
	lea	rdi, QWORD PTR tr_o_Ray$67037[rsp+rax]
	mov	rsi, rcx
	mov	ecx, 24
	rep movsb
; Line 415
	movsxd	rax, DWORD PTR i$67071[rsp]
	movss	xmm0, DWORD PTR acc$67027[rsp]
	movss	DWORD PTR tr_Color_x$67038[rsp+rax*4], xmm0
; Line 416
	movsxd	rax, DWORD PTR i$67071[rsp]
	movss	xmm0, DWORD PTR acc$67027[rsp+4]
	movss	DWORD PTR tr_Color_y$67039[rsp+rax*4], xmm0
; Line 417
	movsxd	rax, DWORD PTR i$67071[rsp]
	movss	xmm0, DWORD PTR acc$67027[rsp+8]
	movss	DWORD PTR tr_Color_z$67040[rsp+rax*4], xmm0
; Line 418
	movsxd	rax, DWORD PTR i$67071[rsp]
	imul	rax, 24
	lea	rcx, QWORD PTR refl_Ray$67034[rsp]
	lea	rdi, QWORD PTR tr_refl_Ray$67041[rsp+rax]
	mov	rsi, rcx
	mov	ecx, 24
	rep movsb
; Line 419
	movsxd	rax, DWORD PTR i$67071[rsp]
	movss	xmm0, DWORD PTR refl$67063[rsp]
	movss	DWORD PTR tr_Refl$67042[rsp+rax*4], xmm0
; Line 420
	movsxd	rax, DWORD PTR i$67071[rsp]
	mov	ecx, DWORD PTR refl_index$67065[rsp]
	mov	DWORD PTR tr_Refl_index$67043[rsp+rax*4], ecx
; Line 421
	movsxd	rax, DWORD PTR i$67071[rsp]
	imul	rax, 24
	lea	rcx, QWORD PTR refr_Ray$67035[rsp]
	lea	rdi, QWORD PTR tr_refr_Ray$67045[rsp+rax]
	mov	rsi, rcx
	mov	ecx, 24
	rep movsb
; Line 422
	movsxd	rax, DWORD PTR i$67071[rsp]
	movss	xmm0, DWORD PTR refr$67064[rsp]
	movss	DWORD PTR tr_Refr$67046[rsp+rax*4], xmm0
; Line 423
	movsxd	rax, DWORD PTR i$67071[rsp]
	mov	ecx, DWORD PTR refr_index$67066[rsp]
	mov	DWORD PTR tr_Refr_index$67047[rsp+rax*4], ecx
; Line 424
	movsxd	rax, DWORD PTR i$67071[rsp]
	movss	xmm0, DWORD PTR input_Rindex$67067[rsp]
	movss	DWORD PTR tr_Refr_Rindex$67044[rsp+rax*4], xmm0
; Line 425
	movsxd	rax, DWORD PTR i$67071[rsp]
	movss	xmm0, DWORD PTR dist$67062[rsp]
	movss	DWORD PTR tr_dist$67048[rsp+rax*4], xmm0
; Line 426
	jmp	$LN11@Engine_Ren
$LN12@Engine_Ren:
; Line 427
	movsxd	rax, DWORD PTR i$67071[rsp]
	xorps	xmm0, xmm0
	movss	DWORD PTR tr_Color_x$67038[rsp+rax*4], xmm0
; Line 428
	movsxd	rax, DWORD PTR i$67071[rsp]
	xorps	xmm0, xmm0
	movss	DWORD PTR tr_Color_y$67039[rsp+rax*4], xmm0
; Line 429
	movsxd	rax, DWORD PTR i$67071[rsp]
	xorps	xmm0, xmm0
	movss	DWORD PTR tr_Color_z$67040[rsp+rax*4], xmm0
; Line 430
	movsxd	rax, DWORD PTR i$67071[rsp]
	xorps	xmm0, xmm0
	movss	DWORD PTR tr_Refl$67042[rsp+rax*4], xmm0
; Line 431
	movsxd	rax, DWORD PTR i$67071[rsp]
	mov	DWORD PTR tr_Refl_index$67043[rsp+rax*4], -1
; Line 432
	movsxd	rax, DWORD PTR i$67071[rsp]
	xorps	xmm0, xmm0
	movss	DWORD PTR tr_Refr$67046[rsp+rax*4], xmm0
; Line 433
	movsxd	rax, DWORD PTR i$67071[rsp]
	mov	DWORD PTR tr_Refr_index$67047[rsp+rax*4], -1
$LN11@Engine_Ren:
; Line 436
	mov	eax, DWORD PTR i$67071[rsp]
	dec	eax
	cdq
	sub	eax, edx
	sar	eax, 1
	cdqe
	movss	xmm0, DWORD PTR tr_Refr$67046[rsp+rax*4]
	comiss	xmm0, DWORD PTR __real@00000000
	jbe	$LN10@Engine_Ren
; Line 437
	mov	eax, DWORD PTR i$67071[rsp]
	dec	eax
	cdq
	sub	eax, edx
	sar	eax, 1
	cdqe
	imul	rax, 24
	lea	rcx, QWORD PTR $T67391[rsp]
	mov	rdi, rcx
	lea	rsi, QWORD PTR tr_refr_Ray$67045[rsp+rax]
	mov	ecx, 24
	rep movsb
	lea	rax, QWORD PTR o_Ray$67033[rsp]
	lea	rcx, QWORD PTR $T67391[rsp]
	mov	rdi, rax
	mov	rsi, rcx
	mov	ecx, 24
	rep movsb
; Line 438
	mov	eax, DWORD PTR i$67071[rsp]
	inc	eax
	cdqe
	movss	xmm0, DWORD PTR tr_Color_x$67038[rsp+rax*4]
	movss	DWORD PTR acc$67027[rsp], xmm0
; Line 439
	mov	eax, DWORD PTR i$67071[rsp]
	inc	eax
	cdqe
	movss	xmm0, DWORD PTR tr_Color_y$67039[rsp+rax*4]
	movss	DWORD PTR acc$67027[rsp+4], xmm0
; Line 440
	mov	eax, DWORD PTR i$67071[rsp]
	inc	eax
	cdqe
	movss	xmm0, DWORD PTR tr_Color_z$67040[rsp+rax*4]
	movss	DWORD PTR acc$67027[rsp+8], xmm0
; Line 441
	xorps	xmm0, xmm0
	movss	DWORD PTR dist$67062[rsp], xmm0
; Line 442
	xorps	xmm0, xmm0
	movss	DWORD PTR refl$67063[rsp], xmm0
; Line 443
	xorps	xmm0, xmm0
	movss	DWORD PTR refr$67064[rsp], xmm0
; Line 444
	mov	DWORD PTR refl_index$67065[rsp], -1
; Line 445
	mov	DWORD PTR refr_index$67066[rsp], -1
; Line 446
	mov	eax, DWORD PTR i$67071[rsp]
	dec	eax
	cdq
	sub	eax, edx
	sar	eax, 1
	cdqe
	movss	xmm0, DWORD PTR tr_Refr_Rindex$67044[rsp+rax*4]
	movss	DWORD PTR input_Rindex$67067[rsp], xmm0
; Line 449
	lea	rax, QWORD PTR refr_Ray$67035[rsp]
	mov	QWORD PTR [rsp+80], rax
	lea	rax, QWORD PTR refr_index$67066[rsp]
	mov	QWORD PTR [rsp+72], rax
	lea	rax, QWORD PTR refr$67064[rsp]
	mov	QWORD PTR [rsp+64], rax
	lea	rax, QWORD PTR refl_Ray$67034[rsp]
	mov	QWORD PTR [rsp+56], rax
	lea	rax, QWORD PTR refl_index$67065[rsp]
	mov	QWORD PTR [rsp+48], rax
	lea	rax, QWORD PTR refl$67063[rsp]
	mov	QWORD PTR [rsp+40], rax
	lea	rax, QWORD PTR dist$67062[rsp]
	mov	QWORD PTR [rsp+32], rax
	lea	r9, QWORD PTR input_Rindex$67067[rsp]
	mov	r8d, 1
	lea	rdx, QWORD PTR acc$67027[rsp]
	lea	rcx, QWORD PTR o_Ray$67033[rsp]
	call	?Engine_Raytrace@@YAHPEAURay@@PEAUvector3@@HPEAM22PEAH0230@Z ; Engine_Raytrace
	mov	DWORD PTR pindex$67068[rsp], eax
; Line 450
	mov	eax, DWORD PTR i$67071[rsp]
	inc	eax
	cdqe
	imul	rax, 24
	lea	rcx, QWORD PTR o_Ray$67033[rsp]
	lea	rdi, QWORD PTR tr_o_Ray$67037[rsp+rax]
	mov	rsi, rcx
	mov	ecx, 24
	rep movsb
; Line 451
	mov	eax, DWORD PTR i$67071[rsp]
	inc	eax
	cdqe
	movss	xmm0, DWORD PTR acc$67027[rsp]
	movss	DWORD PTR tr_Color_x$67038[rsp+rax*4], xmm0
; Line 452
	mov	eax, DWORD PTR i$67071[rsp]
	inc	eax
	cdqe
	movss	xmm0, DWORD PTR acc$67027[rsp+4]
	movss	DWORD PTR tr_Color_y$67039[rsp+rax*4], xmm0
; Line 453
	mov	eax, DWORD PTR i$67071[rsp]
	inc	eax
	cdqe
	movss	xmm0, DWORD PTR acc$67027[rsp+8]
	movss	DWORD PTR tr_Color_z$67040[rsp+rax*4], xmm0
; Line 454
	mov	eax, DWORD PTR i$67071[rsp]
	inc	eax
	cdqe
	imul	rax, 24
	lea	rcx, QWORD PTR refl_Ray$67034[rsp]
	lea	rdi, QWORD PTR tr_refl_Ray$67041[rsp+rax]
	mov	rsi, rcx
	mov	ecx, 24
	rep movsb
; Line 455
	mov	eax, DWORD PTR i$67071[rsp]
	inc	eax
	cdqe
	movss	xmm0, DWORD PTR refl$67063[rsp]
	movss	DWORD PTR tr_Refl$67042[rsp+rax*4], xmm0
; Line 456
	mov	eax, DWORD PTR i$67071[rsp]
	inc	eax
	cdqe
	mov	ecx, DWORD PTR refl_index$67065[rsp]
	mov	DWORD PTR tr_Refl_index$67043[rsp+rax*4], ecx
; Line 457
	mov	eax, DWORD PTR i$67071[rsp]
	inc	eax
	cdqe
	movss	xmm0, DWORD PTR input_Rindex$67067[rsp]
	movss	DWORD PTR tr_Refr_Rindex$67044[rsp+rax*4], xmm0
; Line 458
	mov	eax, DWORD PTR i$67071[rsp]
	inc	eax
	cdqe
	imul	rax, 24
	lea	rcx, QWORD PTR refr_Ray$67035[rsp]
	lea	rdi, QWORD PTR tr_refr_Ray$67045[rsp+rax]
	mov	rsi, rcx
	mov	ecx, 24
	rep movsb
; Line 459
	mov	eax, DWORD PTR i$67071[rsp]
	inc	eax
	cdqe
	movss	xmm0, DWORD PTR refr$67064[rsp]
	movss	DWORD PTR tr_Refr$67046[rsp+rax*4], xmm0
; Line 460
	mov	eax, DWORD PTR i$67071[rsp]
	inc	eax
	cdqe
	mov	ecx, DWORD PTR refr_index$67066[rsp]
	mov	DWORD PTR tr_Refr_index$67047[rsp+rax*4], ecx
; Line 461
	mov	eax, DWORD PTR i$67071[rsp]
	inc	eax
	cdqe
	movss	xmm0, DWORD PTR dist$67062[rsp]
	movss	DWORD PTR tr_dist$67048[rsp+rax*4], xmm0
; Line 462
	jmp	$LN9@Engine_Ren
$LN10@Engine_Ren:
; Line 464
	mov	eax, DWORD PTR i$67071[rsp]
	inc	eax
	cdqe
	xorps	xmm0, xmm0
	movss	DWORD PTR tr_Color_x$67038[rsp+rax*4], xmm0
; Line 465
	mov	eax, DWORD PTR i$67071[rsp]
	inc	eax
	cdqe
	xorps	xmm0, xmm0
	movss	DWORD PTR tr_Color_y$67039[rsp+rax*4], xmm0
; Line 466
	mov	eax, DWORD PTR i$67071[rsp]
	inc	eax
	cdqe
	xorps	xmm0, xmm0
	movss	DWORD PTR tr_Color_z$67040[rsp+rax*4], xmm0
; Line 467
	mov	eax, DWORD PTR i$67071[rsp]
	inc	eax
	cdqe
	xorps	xmm0, xmm0
	movss	DWORD PTR tr_Refl$67042[rsp+rax*4], xmm0
; Line 468
	mov	eax, DWORD PTR i$67071[rsp]
	inc	eax
	cdqe
	mov	DWORD PTR tr_Refl_index$67043[rsp+rax*4], -1
; Line 469
	mov	eax, DWORD PTR i$67071[rsp]
	inc	eax
	cdqe
	xorps	xmm0, xmm0
	movss	DWORD PTR tr_Refr$67046[rsp+rax*4], xmm0
; Line 470
	mov	eax, DWORD PTR i$67071[rsp]
	inc	eax
	cdqe
	mov	DWORD PTR tr_Refr_index$67047[rsp+rax*4], -1
$LN9@Engine_Ren:
; Line 472
	jmp	$LN14@Engine_Ren
$LN13@Engine_Ren:
; Line 474
	xorps	xmm0, xmm0
	movss	DWORD PTR acc$67027[rsp+8], xmm0
	movss	xmm0, DWORD PTR acc$67027[rsp+8]
	movss	DWORD PTR acc$67027[rsp+4], xmm0
	movss	xmm0, DWORD PTR acc$67027[rsp+4]
	movss	DWORD PTR acc$67027[rsp], xmm0
; Line 476
	mov	DWORD PTR i$67079[rsp], 62		; 0000003eH
	jmp	SHORT $LN8@Engine_Ren
$LN7@Engine_Ren:
	mov	eax, DWORD PTR i$67079[rsp]
	sub	eax, 2
	mov	DWORD PTR i$67079[rsp], eax
$LN8@Engine_Ren:
	cmp	DWORD PTR i$67079[rsp], 2
	jl	$LN6@Engine_Ren
; Line 477
	movsxd	rax, DWORD PTR i$67079[rsp]
	movss	xmm0, DWORD PTR tr_Color_x$67038[rsp+rax*4]
	movss	DWORD PTR acc$67027[rsp], xmm0
; Line 478
	movsxd	rax, DWORD PTR i$67079[rsp]
	movss	xmm0, DWORD PTR tr_Color_y$67039[rsp+rax*4]
	movss	DWORD PTR acc$67027[rsp+4], xmm0
; Line 479
	movsxd	rax, DWORD PTR i$67079[rsp]
	movss	xmm0, DWORD PTR tr_Color_z$67040[rsp+rax*4]
	movss	DWORD PTR acc$67027[rsp+8], xmm0
; Line 481
	mov	eax, DWORD PTR i$67079[rsp]
	dec	eax
	cdq
	sub	eax, edx
	sar	eax, 1
	cdqe
	cmp	DWORD PTR tr_Refr_index$67047[rsp+rax*4], -1
	jle	$LN5@Engine_Ren
	mov	eax, DWORD PTR i$67079[rsp]
	dec	eax
	cdq
	sub	eax, edx
	sar	eax, 1
	cdqe
	movss	xmm0, DWORD PTR tr_Refr$67046[rsp+rax*4]
	comiss	xmm0, DWORD PTR __real@00000000
	jbe	$LN5@Engine_Ren
; Line 483
	mov	eax, DWORD PTR i$67079[rsp]
	dec	eax
	cdq
	sub	eax, edx
	sar	eax, 1
	cdqe
	movsxd	rax, DWORD PTR tr_Refr_index$67047[rsp+rax*4]
	imul	rax, 96					; 00000060H
	mov	rcx, QWORD PTR ?m_Scene@@3PEAUScene@@EA	; m_Scene
	mov	rcx, QWORD PTR [rcx+8]
	movss	xmm0, DWORD PTR [rcx+rax+64]
	mulss	xmm0, DWORD PTR __real@3e19999a
	mov	eax, DWORD PTR i$67079[rsp]
	dec	eax
	cdq
	sub	eax, edx
	sar	eax, 1
	cdqe
	movss	xmm1, DWORD PTR tr_dist$67048[rsp+rax*4]
	xorps	xmm1, DWORD PTR __mask@@NegFloat@
	mulss	xmm0, xmm1
	movss	DWORD PTR absorbance$67084[rsp], xmm0
; Line 484
	mov	eax, DWORD PTR i$67079[rsp]
	dec	eax
	cdq
	sub	eax, edx
	sar	eax, 1
	cdqe
	movsxd	rax, DWORD PTR tr_Refr_index$67047[rsp+rax*4]
	imul	rax, 96					; 00000060H
	mov	rcx, QWORD PTR ?m_Scene@@3PEAUScene@@EA	; m_Scene
	mov	rcx, QWORD PTR [rcx+8]
	movss	xmm0, DWORD PTR [rcx+rax+68]
	mulss	xmm0, DWORD PTR __real@3e19999a
	mov	eax, DWORD PTR i$67079[rsp]
	dec	eax
	cdq
	sub	eax, edx
	sar	eax, 1
	cdqe
	movss	xmm1, DWORD PTR tr_dist$67048[rsp+rax*4]
	xorps	xmm1, DWORD PTR __mask@@NegFloat@
	mulss	xmm0, xmm1
	movss	DWORD PTR absorbance$67084[rsp+4], xmm0
; Line 485
	mov	eax, DWORD PTR i$67079[rsp]
	dec	eax
	cdq
	sub	eax, edx
	sar	eax, 1
	cdqe
	movsxd	rax, DWORD PTR tr_Refr_index$67047[rsp+rax*4]
	imul	rax, 96					; 00000060H
	mov	rcx, QWORD PTR ?m_Scene@@3PEAUScene@@EA	; m_Scene
	mov	rcx, QWORD PTR [rcx+8]
	movss	xmm0, DWORD PTR [rcx+rax+72]
	mulss	xmm0, DWORD PTR __real@3e19999a
	mov	eax, DWORD PTR i$67079[rsp]
	dec	eax
	cdq
	sub	eax, edx
	sar	eax, 1
	cdqe
	movss	xmm1, DWORD PTR tr_dist$67048[rsp+rax*4]
	xorps	xmm1, DWORD PTR __mask@@NegFloat@
	mulss	xmm0, xmm1
	movss	DWORD PTR absorbance$67084[rsp+8], xmm0
; Line 487
	movss	xmm0, DWORD PTR absorbance$67084[rsp]
	call	?exp@@YAMM@Z				; exp
	movss	DWORD PTR transparency$67085[rsp], xmm0
; Line 488
	movss	xmm0, DWORD PTR absorbance$67084[rsp+4]
	call	?exp@@YAMM@Z				; exp
	movss	DWORD PTR transparency$67085[rsp+4], xmm0
; Line 489
	movss	xmm0, DWORD PTR absorbance$67084[rsp+8]
	call	?exp@@YAMM@Z				; exp
	movss	DWORD PTR transparency$67085[rsp+8], xmm0
; Line 490
	movsxd	rax, DWORD PTR i$67079[rsp]
	movss	xmm0, DWORD PTR tr_Color_x$67038[rsp+rax*4]
	mulss	xmm0, DWORD PTR transparency$67085[rsp]
	movss	DWORD PTR acc$67027[rsp], xmm0
; Line 491
	movsxd	rax, DWORD PTR i$67079[rsp]
	movss	xmm0, DWORD PTR tr_Color_y$67039[rsp+rax*4]
	mulss	xmm0, DWORD PTR transparency$67085[rsp+4]
	movss	DWORD PTR acc$67027[rsp+4], xmm0
; Line 492
	movsxd	rax, DWORD PTR i$67079[rsp]
	movss	xmm0, DWORD PTR tr_Color_z$67040[rsp+rax*4]
	mulss	xmm0, DWORD PTR transparency$67085[rsp+8]
	movss	DWORD PTR acc$67027[rsp+8], xmm0
$LN5@Engine_Ren:
; Line 494
	mov	eax, DWORD PTR i$67079[rsp]
	dec	eax
	cdq
	sub	eax, edx
	sar	eax, 1
	cdqe
	movss	xmm0, DWORD PTR tr_Color_x$67038[rsp+rax*4]
	addss	xmm0, DWORD PTR acc$67027[rsp]
	mov	eax, DWORD PTR i$67079[rsp]
	dec	eax
	cdq
	sub	eax, edx
	sar	eax, 1
	cdqe
	movss	DWORD PTR tr_Color_x$67038[rsp+rax*4], xmm0
; Line 495
	mov	eax, DWORD PTR i$67079[rsp]
	dec	eax
	cdq
	sub	eax, edx
	sar	eax, 1
	cdqe
	movss	xmm0, DWORD PTR tr_Color_y$67039[rsp+rax*4]
	addss	xmm0, DWORD PTR acc$67027[rsp+4]
	mov	eax, DWORD PTR i$67079[rsp]
	dec	eax
	cdq
	sub	eax, edx
	sar	eax, 1
	cdqe
	movss	DWORD PTR tr_Color_y$67039[rsp+rax*4], xmm0
; Line 496
	mov	eax, DWORD PTR i$67079[rsp]
	dec	eax
	cdq
	sub	eax, edx
	sar	eax, 1
	cdqe
	movss	xmm0, DWORD PTR tr_Color_z$67040[rsp+rax*4]
	addss	xmm0, DWORD PTR acc$67027[rsp+8]
	mov	eax, DWORD PTR i$67079[rsp]
	dec	eax
	cdq
	sub	eax, edx
	sar	eax, 1
	cdqe
	movss	DWORD PTR tr_Color_z$67040[rsp+rax*4], xmm0
; Line 499
	mov	eax, DWORD PTR i$67079[rsp]
	dec	eax
	cdqe
	movss	xmm0, DWORD PTR tr_Color_x$67038[rsp+rax*4]
	movss	DWORD PTR acc$67027[rsp], xmm0
; Line 500
	mov	eax, DWORD PTR i$67079[rsp]
	dec	eax
	cdqe
	movss	xmm0, DWORD PTR tr_Color_y$67039[rsp+rax*4]
	movss	DWORD PTR acc$67027[rsp+4], xmm0
; Line 501
	mov	eax, DWORD PTR i$67079[rsp]
	dec	eax
	cdqe
	movss	xmm0, DWORD PTR tr_Color_z$67040[rsp+rax*4]
	movss	DWORD PTR acc$67027[rsp+8], xmm0
; Line 503
	mov	eax, DWORD PTR i$67079[rsp]
	dec	eax
	cdq
	sub	eax, edx
	sar	eax, 1
	cdqe
	cmp	DWORD PTR tr_Refl_index$67043[rsp+rax*4], -1
	jle	$LN4@Engine_Ren
	mov	eax, DWORD PTR i$67079[rsp]
	dec	eax
	cdq
	sub	eax, edx
	sar	eax, 1
	cdqe
	movss	xmm0, DWORD PTR tr_Refl$67042[rsp+rax*4]
	comiss	xmm0, DWORD PTR __real@00000000
	jbe	$LN4@Engine_Ren
; Line 504
	mov	eax, DWORD PTR i$67079[rsp]
	dec	eax
	cdqe
	mov	QWORD PTR tv628[rsp], rax
	mov	ecx, DWORD PTR i$67079[rsp]
	dec	ecx
	mov	eax, ecx
	cdq
	sub	eax, edx
	sar	eax, 1
	cdqe
	movsxd	rax, DWORD PTR tr_Refl_index$67043[rsp+rax*4]
	imul	rax, 96					; 00000060H
	mov	rcx, QWORD PTR ?m_Scene@@3PEAUScene@@EA	; m_Scene
	mov	rcx, QWORD PTR [rcx+8]
	mov	rdx, QWORD PTR tv628[rsp]
	movss	xmm0, DWORD PTR tr_Color_x$67038[rsp+rdx*4]
	mulss	xmm0, DWORD PTR [rcx+rax+64]
	mov	eax, DWORD PTR i$67079[rsp]
	dec	eax
	cdq
	sub	eax, edx
	sar	eax, 1
	cdqe
	mulss	xmm0, DWORD PTR tr_Refl$67042[rsp+rax*4]
	movss	DWORD PTR acc$67027[rsp], xmm0
; Line 505
	mov	eax, DWORD PTR i$67079[rsp]
	dec	eax
	cdqe
	mov	QWORD PTR tv651[rsp], rax
	mov	ecx, DWORD PTR i$67079[rsp]
	dec	ecx
	mov	eax, ecx
	cdq
	sub	eax, edx
	sar	eax, 1
	cdqe
	movsxd	rax, DWORD PTR tr_Refl_index$67043[rsp+rax*4]
	imul	rax, 96					; 00000060H
	mov	rcx, QWORD PTR ?m_Scene@@3PEAUScene@@EA	; m_Scene
	mov	rcx, QWORD PTR [rcx+8]
	mov	rdx, QWORD PTR tv651[rsp]
	movss	xmm0, DWORD PTR tr_Color_y$67039[rsp+rdx*4]
	mulss	xmm0, DWORD PTR [rcx+rax+68]
	mov	eax, DWORD PTR i$67079[rsp]
	dec	eax
	cdq
	sub	eax, edx
	sar	eax, 1
	cdqe
	mulss	xmm0, DWORD PTR tr_Refl$67042[rsp+rax*4]
	movss	DWORD PTR acc$67027[rsp+4], xmm0
; Line 506
	mov	eax, DWORD PTR i$67079[rsp]
	dec	eax
	cdqe
	mov	QWORD PTR tv674[rsp], rax
	mov	ecx, DWORD PTR i$67079[rsp]
	dec	ecx
	mov	eax, ecx
	cdq
	sub	eax, edx
	sar	eax, 1
	cdqe
	movsxd	rax, DWORD PTR tr_Refl_index$67043[rsp+rax*4]
	imul	rax, 96					; 00000060H
	mov	rcx, QWORD PTR ?m_Scene@@3PEAUScene@@EA	; m_Scene
	mov	rcx, QWORD PTR [rcx+8]
	mov	rdx, QWORD PTR tv674[rsp]
	movss	xmm0, DWORD PTR tr_Color_z$67040[rsp+rdx*4]
	mulss	xmm0, DWORD PTR [rcx+rax+72]
	mov	eax, DWORD PTR i$67079[rsp]
	dec	eax
	cdq
	sub	eax, edx
	sar	eax, 1
	cdqe
	mulss	xmm0, DWORD PTR tr_Refl$67042[rsp+rax*4]
	movss	DWORD PTR acc$67027[rsp+8], xmm0
$LN4@Engine_Ren:
; Line 508
	mov	eax, DWORD PTR i$67079[rsp]
	dec	eax
	cdq
	sub	eax, edx
	sar	eax, 1
	cdqe
	movss	xmm0, DWORD PTR tr_Color_x$67038[rsp+rax*4]
	addss	xmm0, DWORD PTR acc$67027[rsp]
	mov	eax, DWORD PTR i$67079[rsp]
	dec	eax
	cdq
	sub	eax, edx
	sar	eax, 1
	cdqe
	movss	DWORD PTR tr_Color_x$67038[rsp+rax*4], xmm0
; Line 509
	mov	eax, DWORD PTR i$67079[rsp]
	dec	eax
	cdq
	sub	eax, edx
	sar	eax, 1
	cdqe
	movss	xmm0, DWORD PTR tr_Color_y$67039[rsp+rax*4]
	addss	xmm0, DWORD PTR acc$67027[rsp+4]
	mov	eax, DWORD PTR i$67079[rsp]
	dec	eax
	cdq
	sub	eax, edx
	sar	eax, 1
	cdqe
	movss	DWORD PTR tr_Color_y$67039[rsp+rax*4], xmm0
; Line 510
	mov	eax, DWORD PTR i$67079[rsp]
	dec	eax
	cdq
	sub	eax, edx
	sar	eax, 1
	cdqe
	movss	xmm0, DWORD PTR tr_Color_z$67040[rsp+rax*4]
	addss	xmm0, DWORD PTR acc$67027[rsp+8]
	mov	eax, DWORD PTR i$67079[rsp]
	dec	eax
	cdq
	sub	eax, edx
	sar	eax, 1
	cdqe
	movss	DWORD PTR tr_Color_z$67040[rsp+rax*4], xmm0
; Line 511
	jmp	$LN7@Engine_Ren
$LN6@Engine_Ren:
; Line 513
	movss	xmm0, DWORD PTR total_acc$67028[rsp]
	addss	xmm0, DWORD PTR tr_Color_x$67038[rsp]
	movss	DWORD PTR total_acc$67028[rsp], xmm0
; Line 514
	movss	xmm0, DWORD PTR total_acc$67028[rsp+4]
	addss	xmm0, DWORD PTR tr_Color_y$67039[rsp]
	movss	DWORD PTR total_acc$67028[rsp+4], xmm0
; Line 515
	movss	xmm0, DWORD PTR total_acc$67028[rsp+8]
	addss	xmm0, DWORD PTR tr_Color_z$67040[rsp]
	movss	DWORD PTR total_acc$67028[rsp+8], xmm0
; Line 516
	jmp	$LN20@Engine_Ren
$LN19@Engine_Ren:
	jmp	$LN23@Engine_Ren
$LN22@Engine_Ren:
; Line 517
	movss	xmm0, DWORD PTR total_acc$67028[rsp]
	mulss	xmm0, DWORD PTR __real@41e00000
	cvttss2si eax, xmm0
	mov	DWORD PTR red$67087[rsp], eax
; Line 518
	movss	xmm0, DWORD PTR total_acc$67028[rsp+4]
	mulss	xmm0, DWORD PTR __real@41e00000
	cvttss2si eax, xmm0
	mov	DWORD PTR green$67089[rsp], eax
; Line 519
	movss	xmm0, DWORD PTR total_acc$67028[rsp+8]
	mulss	xmm0, DWORD PTR __real@41e00000
	cvttss2si eax, xmm0
	mov	DWORD PTR blue$67091[rsp], eax
; Line 520
	cmp	DWORD PTR red$67087[rsp], 255		; 000000ffH
	jle	SHORT $LN3@Engine_Ren
	mov	DWORD PTR red$67087[rsp], 255		; 000000ffH
$LN3@Engine_Ren:
; Line 521
	cmp	DWORD PTR green$67089[rsp], 255		; 000000ffH
	jle	SHORT $LN2@Engine_Ren
	mov	DWORD PTR green$67089[rsp], 255		; 000000ffH
$LN2@Engine_Ren:
; Line 522
	cmp	DWORD PTR blue$67091[rsp], 255		; 000000ffH
	jle	SHORT $LN1@Engine_Ren
	mov	DWORD PTR blue$67091[rsp], 255		; 000000ffH
$LN1@Engine_Ren:
; Line 523
	mov	eax, DWORD PTR red$67087[rsp]
	shl	eax, 16
	mov	ecx, DWORD PTR green$67089[rsp]
	shl	ecx, 8
	mov	edx, DWORD PTR blue$67091[rsp]
	add	edx, eax
	mov	eax, edx
	add	ecx, eax
	mov	eax, ecx
	movsxd	rcx, DWORD PTR ?m_PPos@@3HA		; m_PPos
	mov	rdx, QWORD PTR ?m_Dest@@3PEAIEA		; m_Dest
	mov	DWORD PTR [rdx+rcx*4], eax
	mov	eax, DWORD PTR ?m_PPos@@3HA		; m_PPos
	inc	eax
	mov	DWORD PTR ?m_PPos@@3HA, eax		; m_PPos
; Line 524
	movss	xmm0, DWORD PTR ?m_SX@@3MA		; m_SX
	addss	xmm0, DWORD PTR ?m_DX@@3MA		; m_DX
	movss	DWORD PTR ?m_SX@@3MA, xmm0		; m_SX
; Line 525
	jmp	$LN28@Engine_Ren
$LN27@Engine_Ren:
; Line 526
	movss	xmm0, DWORD PTR ?m_SY@@3MA		; m_SY
	addss	xmm0, DWORD PTR ?m_DY@@3MA		; m_DY
	movss	DWORD PTR ?m_SY@@3MA, xmm0		; m_SY
; Line 527
	jmp	$LN31@Engine_Ren
$LN30@Engine_Ren:
; Line 529
	mov	al, 1
; Line 530
	mov	rdi, rax
	mov	rcx, rsp
	lea	rdx, OFFSET FLAT:?Engine_Render@@YA_NXZ$rtcFrameData
	call	_RTC_CheckStackVars
	mov	rax, rdi
	mov	rcx, QWORD PTR __$ArrayPad$[rsp]
	xor	rcx, rsp
	call	__security_check_cookie
	add	rsp, 8120				; 00001fb8H
	pop	rdi
	pop	rsi
	ret	0
?Engine_Render@@YA_NXZ ENDP				; Engine_Render
_TEXT	ENDS
EXTRN	expf:PROC
;	COMDAT pdata
; File c:\program files (x86)\microsoft visual studio 10.0\vc\include\math.h
pdata	SEGMENT
$pdata$?exp@@YAMM@Z DD imagerel $LN3
	DD	imagerel $LN3+43
	DD	imagerel $unwind$?exp@@YAMM@Z
pdata	ENDS
;	COMDAT xdata
xdata	SEGMENT
$unwind$?exp@@YAMM@Z DD 021a01H
	DD	07007520bH
; Function compile flags: /Odtp /RTCsu
xdata	ENDS
;	COMDAT ?exp@@YAMM@Z
_TEXT	SEGMENT
_X$ = 64
?exp@@YAMM@Z PROC					; exp, COMDAT
; Line 516
$LN3:
	movss	DWORD PTR [rsp+8], xmm0
	push	rdi
	sub	rsp, 48					; 00000030H
	mov	rdi, rsp
	mov	ecx, 12
	mov	eax, -858993460				; ccccccccH
	rep stosd
	movss	xmm0, DWORD PTR _X$[rsp]
	call	expf
	add	rsp, 48					; 00000030H
	pop	rdi
	ret	0
?exp@@YAMM@Z ENDP					; exp
_TEXT	ENDS
PUBLIC	__real@43800000
PUBLIC	__real@3f000000
PUBLIC	__$ArrayPad$
PUBLIC	?Engine_Render_Simple@@YA_NXZ			; Engine_Render_Simple
pdata	SEGMENT
$pdata$?Engine_Render_Simple@@YA_NXZ DD imagerel $LN12
	DD	imagerel $LN12+438
	DD	imagerel $unwind$?Engine_Render_Simple@@YA_NXZ
pdata	ENDS
xdata	SEGMENT
$unwind$?Engine_Render_Simple@@YA_NXZ DD 022419H
	DD	07002d206H
	DD	imagerel __GSHandlerCheck
	DD	068H
xdata	ENDS
;	COMDAT __real@43800000
; File c:\users\mark\documents\devmaster_raytracing\raytracer3.0.06.no_rec.samp\raytracer.cpp
CONST	SEGMENT
__real@43800000 DD 043800000r			; 256
CONST	ENDS
;	COMDAT __real@3f000000
CONST	SEGMENT
__real@3f000000 DD 03f000000r			; 0.5
CONST	ENDS
CONST	SEGMENT
	ORG $+1296
?Engine_Render_Simple@@YA_NXZ$rtcName$0 DB 061H		; Engine_Render_Simple
	DB	063H
	DB	063H
	DB	05fH
	DB	06eH
	DB	065H
	DB	077H
	DB	063H
	DB	06fH
	DB	06cH
	DB	06fH
	DB	072H
	DB	00H
	ORG $+3
?Engine_Render_Simple@@YA_NXZ$rtcVarDesc DD 038H	; Engine_Render_Simple
	DD	0cH
	DQ	FLAT:?Engine_Render_Simple@@YA_NXZ$rtcName$0
	ORG $+48
?Engine_Render_Simple@@YA_NXZ$rtcFrameData DD 01H	; Engine_Render_Simple
	DD	00H
	DQ	FLAT:?Engine_Render_Simple@@YA_NXZ$rtcVarDesc
; Function compile flags: /Odtp /RTCsu
CONST	ENDS
_TEXT	SEGMENT
y$67098 = 32
x$67102 = 36
acc_newcolor$67106 = 56
red$67107 = 84
green$67109 = 88
blue$67111 = 92
__$ArrayPad$ = 104
?Engine_Render_Simple@@YA_NXZ PROC			; Engine_Render_Simple
; Line 534
$LN12:
	push	rdi
	sub	rsp, 112				; 00000070H
	mov	rdi, rsp
	mov	ecx, 28
	mov	eax, -858993460				; ccccccccH
	rep stosd
	mov	rax, QWORD PTR __security_cookie
	xor	rax, rsp
	mov	QWORD PTR __$ArrayPad$[rsp], rax
; Line 536
	mov	eax, DWORD PTR ?m_CurrLine@@3HA		; m_CurrLine
	mov	DWORD PTR y$67098[rsp], eax
	jmp	SHORT $LN9@Engine_Ren@2
$LN8@Engine_Ren@2:
	mov	eax, DWORD PTR y$67098[rsp]
	inc	eax
	mov	DWORD PTR y$67098[rsp], eax
$LN9@Engine_Ren@2:
	mov	eax, DWORD PTR ?m_Height@@3HA		; m_Height
	sub	eax, 70					; 00000046H
	cmp	DWORD PTR y$67098[rsp], eax
	jge	$LN7@Engine_Ren@2
; Line 538
	movss	xmm0, DWORD PTR ?m_WX1@@3MA		; m_WX1
	movss	DWORD PTR ?m_SX@@3MA, xmm0		; m_SX
; Line 539
	mov	DWORD PTR x$67102[rsp], 0
	jmp	SHORT $LN6@Engine_Ren@2
$LN5@Engine_Ren@2:
	mov	eax, DWORD PTR x$67102[rsp]
	inc	eax
	mov	DWORD PTR x$67102[rsp], eax
$LN6@Engine_Ren@2:
	mov	eax, DWORD PTR ?m_Width@@3HA		; m_Width
	cmp	DWORD PTR x$67102[rsp], eax
	jge	$LN4@Engine_Ren@2
; Line 542
	movss	xmm0, DWORD PTR __real@3f000000
	movss	DWORD PTR acc_newcolor$67106[rsp], xmm0
	xorps	xmm0, xmm0
	movss	DWORD PTR acc_newcolor$67106[rsp+4], xmm0
	xorps	xmm0, xmm0
	movss	DWORD PTR acc_newcolor$67106[rsp+8], xmm0
; Line 544
	movss	xmm0, DWORD PTR acc_newcolor$67106[rsp]
	mulss	xmm0, DWORD PTR __real@43800000
	cvttss2si eax, xmm0
	mov	DWORD PTR red$67107[rsp], eax
; Line 545
	movss	xmm0, DWORD PTR acc_newcolor$67106[rsp+4]
	mulss	xmm0, DWORD PTR __real@43800000
	cvttss2si eax, xmm0
	mov	DWORD PTR green$67109[rsp], eax
; Line 546
	movss	xmm0, DWORD PTR acc_newcolor$67106[rsp+8]
	mulss	xmm0, DWORD PTR __real@43800000
	cvttss2si eax, xmm0
	mov	DWORD PTR blue$67111[rsp], eax
; Line 547
	cmp	DWORD PTR red$67107[rsp], 255		; 000000ffH
	jle	SHORT $LN3@Engine_Ren@2
	mov	DWORD PTR red$67107[rsp], 255		; 000000ffH
$LN3@Engine_Ren@2:
; Line 548
	cmp	DWORD PTR green$67109[rsp], 255		; 000000ffH
	jle	SHORT $LN2@Engine_Ren@2
	mov	DWORD PTR green$67109[rsp], 255		; 000000ffH
$LN2@Engine_Ren@2:
; Line 549
	cmp	DWORD PTR blue$67111[rsp], 255		; 000000ffH
	jle	SHORT $LN1@Engine_Ren@2
	mov	DWORD PTR blue$67111[rsp], 255		; 000000ffH
$LN1@Engine_Ren@2:
; Line 550
	mov	eax, DWORD PTR red$67107[rsp]
	shl	eax, 16
	mov	ecx, DWORD PTR green$67109[rsp]
	shl	ecx, 8
	mov	edx, DWORD PTR blue$67111[rsp]
	add	edx, eax
	mov	eax, edx
	add	ecx, eax
	mov	eax, ecx
	movsxd	rcx, DWORD PTR ?m_PPos@@3HA		; m_PPos
	mov	rdx, QWORD PTR ?m_Dest@@3PEAIEA		; m_Dest
	mov	DWORD PTR [rdx+rcx*4], eax
	mov	eax, DWORD PTR ?m_PPos@@3HA		; m_PPos
	inc	eax
	mov	DWORD PTR ?m_PPos@@3HA, eax		; m_PPos
; Line 552
	movss	xmm0, DWORD PTR ?m_SX@@3MA		; m_SX
	addss	xmm0, DWORD PTR ?m_DX@@3MA		; m_DX
	movss	DWORD PTR ?m_SX@@3MA, xmm0		; m_SX
; Line 553
	jmp	$LN5@Engine_Ren@2
$LN4@Engine_Ren@2:
; Line 554
	movss	xmm0, DWORD PTR ?m_SY@@3MA		; m_SY
	addss	xmm0, DWORD PTR ?m_DY@@3MA		; m_DY
	movss	DWORD PTR ?m_SY@@3MA, xmm0		; m_SY
; Line 555
	jmp	$LN8@Engine_Ren@2
$LN7@Engine_Ren@2:
; Line 556
	mov	al, 1
; Line 557
	mov	rdi, rax
	mov	rcx, rsp
	lea	rdx, OFFSET FLAT:?Engine_Render_Simple@@YA_NXZ$rtcFrameData
	call	_RTC_CheckStackVars
	mov	rax, rdi
	mov	rcx, QWORD PTR __$ArrayPad$[rsp]
	xor	rcx, rsp
	call	__security_check_cookie
	add	rsp, 112				; 00000070H
	pop	rdi
	ret	0
?Engine_Render_Simple@@YA_NXZ ENDP			; Engine_Render_Simple
_TEXT	ENDS
END
