; Listing generated by Microsoft (R) Optimizing Compiler Version 16.00.30319.01 

include listing.inc

INCLUDELIB LIBCMTD
INCLUDELIB OLDNAMES

PUBLIC	?TracedRays@@3PAUTracedRay@@A			; TracedRays
PUBLIC	?m_Scene@@3PEAUScene@@EA			; m_Scene
PUBLIC	?m_SY@@3MA					; m_SY
PUBLIC	?m_WX1@@3MA					; m_WX1
PUBLIC	?m_WY1@@3MA					; m_WY1
PUBLIC	?m_Width@@3HA					; m_Width
PUBLIC	?m_SX@@3MA					; m_SX
PUBLIC	?m_CurrLine@@3HA				; m_CurrLine
PUBLIC	?m_Height@@3HA					; m_Height
PUBLIC	?m_DX@@3MA					; m_DX
PUBLIC	?m_PPos@@3HA					; m_PPos
PUBLIC	?m_WY2@@3MA					; m_WY2
PUBLIC	?m_WX2@@3MA					; m_WX2
PUBLIC	?m_DY@@3MA					; m_DY
PUBLIC	?m_Dest@@3PEAIEA				; m_Dest
PUBLIC	?camera@@3PEAUvector3@@EA			; camera
_BSS	SEGMENT
?TracedRays@@3PAUTracedRay@@A DB 050H DUP (?)		; TracedRays
?m_Scene@@3PEAUScene@@EA DQ 01H DUP (?)			; m_Scene
?m_SY@@3MA DD	01H DUP (?)				; m_SY
?m_WX1@@3MA DD	01H DUP (?)				; m_WX1
?m_WY1@@3MA DD	01H DUP (?)				; m_WY1
?m_Width@@3HA DD 01H DUP (?)				; m_Width
?m_SX@@3MA DD	01H DUP (?)				; m_SX
?m_CurrLine@@3HA DD 01H DUP (?)				; m_CurrLine
?m_Height@@3HA DD 01H DUP (?)				; m_Height
?m_DX@@3MA DD	01H DUP (?)				; m_DX
?m_PPos@@3HA DD	01H DUP (?)				; m_PPos
?m_WY2@@3MA DD	01H DUP (?)				; m_WY2
?m_WX2@@3MA DD	01H DUP (?)				; m_WX2
?m_DY@@3MA DD	01H DUP (?)				; m_DY
?m_Dest@@3PEAIEA DQ 01H DUP (?)				; m_Dest
?camera@@3PEAUvector3@@EA DQ 01H DUP (?)		; camera
_BSS	ENDS
PUBLIC	?Primitive_GetNormal@@YAXPEAUvector3@@UPrimitive@@U1@@Z ; Primitive_GetNormal
EXTRN	_fltused:DWORD
EXTRN	_RTC_CheckStackVars:PROC
EXTRN	_RTC_Shutdown:PROC
EXTRN	_RTC_InitBase:PROC
pdata	SEGMENT
$pdata$?Primitive_GetNormal@@YAXPEAUvector3@@UPrimitive@@U1@@Z DD imagerel $LN7
	DD	imagerel $LN7+362
	DD	imagerel $unwind$?Primitive_GetNormal@@YAXPEAUvector3@@UPrimitive@@U1@@Z
pdata	ENDS
xdata	SEGMENT
$unwind$?Primitive_GetNormal@@YAXPEAUvector3@@UPrimitive@@U1@@Z DD 022801H
	DD	070107214H
xdata	ENDS
CONST	SEGMENT
?Primitive_GetNormal@@YAXPEAUvector3@@UPrimitive@@U1@@Z$rtcName$0 DB 05fH ; Primitive_GetNormal
	DB	05fH
	DB	024H
	DB	041H
	DB	072H
	DB	072H
	DB	061H
	DB	079H
	DB	050H
	DB	061H
	DB	064H
	DB	00H
	ORG $+4
?Primitive_GetNormal@@YAXPEAUvector3@@UPrimitive@@U1@@Z$rtcVarDesc DD 028H ; Primitive_GetNormal
	DD	08H
	DQ	FLAT:?Primitive_GetNormal@@YAXPEAUvector3@@UPrimitive@@U1@@Z$rtcName$0
	ORG $+48
?Primitive_GetNormal@@YAXPEAUvector3@@UPrimitive@@U1@@Z$rtcFrameData DD 01H ; Primitive_GetNormal
	DD	00H
	DQ	FLAT:?Primitive_GetNormal@@YAXPEAUvector3@@UPrimitive@@U1@@Z$rtcVarDesc
CONST	ENDS
;	COMDAT rtc$TMZ
; File c:\users\mark\documents\devmaster_raytracing\raytracer3.0.06.no_rec.samp\scene.cpp
rtc$TMZ	SEGMENT
_RTC_Shutdown.rtc$TMZ DQ FLAT:_RTC_Shutdown
rtc$TMZ	ENDS
;	COMDAT rtc$IMZ
rtc$IMZ	SEGMENT
_RTC_InitBase.rtc$IMZ DQ FLAT:_RTC_InitBase
; Function compile flags: /Odtp /RTCsu
rtc$IMZ	ENDS
_TEXT	SEGMENT
newvec$ = 80
p$ = 88
a_Pos$ = 96
?Primitive_GetNormal@@YAXPEAUvector3@@UPrimitive@@U1@@Z PROC ; Primitive_GetNormal
; Line 34
$LN7:
	mov	QWORD PTR [rsp+24], r8
	mov	QWORD PTR [rsp+16], rdx
	mov	QWORD PTR [rsp+8], rcx
	push	rdi
	sub	rsp, 64					; 00000040H
	mov	rdi, rsp
	mov	ecx, 16
	mov	eax, -858993460				; ccccccccH
	rep stosd
	mov	rcx, QWORD PTR [rsp+80]
; Line 35
	mov	rax, QWORD PTR p$[rsp]
	cmp	DWORD PTR [rax], 1
	jne	$LN4@Primitive_
; Line 36
	mov	rax, QWORD PTR a_Pos$[rsp]
	mov	rcx, QWORD PTR p$[rsp]
	movss	xmm0, DWORD PTR [rax]
	subss	xmm0, DWORD PTR [rcx+8]
	mov	rax, QWORD PTR newvec$[rsp]
	movss	DWORD PTR [rax], xmm0
; Line 37
	mov	rax, QWORD PTR a_Pos$[rsp]
	mov	rcx, QWORD PTR p$[rsp]
	movss	xmm0, DWORD PTR [rax+4]
	subss	xmm0, DWORD PTR [rcx+12]
	mov	rax, QWORD PTR newvec$[rsp]
	movss	DWORD PTR [rax+4], xmm0
; Line 38
	mov	rax, QWORD PTR a_Pos$[rsp]
	mov	rcx, QWORD PTR p$[rsp]
	movss	xmm0, DWORD PTR [rax+8]
	subss	xmm0, DWORD PTR [rcx+16]
	mov	rax, QWORD PTR newvec$[rsp]
	movss	DWORD PTR [rax+8], xmm0
; Line 39
	mov	rax, QWORD PTR newvec$[rsp]
	mov	rcx, QWORD PTR p$[rsp]
	movss	xmm0, DWORD PTR [rax]
	mulss	xmm0, DWORD PTR [rcx+28]
	mov	rax, QWORD PTR newvec$[rsp]
	movss	DWORD PTR [rax], xmm0
; Line 40
	mov	rax, QWORD PTR newvec$[rsp]
	mov	rcx, QWORD PTR p$[rsp]
	movss	xmm0, DWORD PTR [rax+4]
	mulss	xmm0, DWORD PTR [rcx+28]
	mov	rax, QWORD PTR newvec$[rsp]
	movss	DWORD PTR [rax+4], xmm0
; Line 41
	mov	rax, QWORD PTR newvec$[rsp]
	mov	rcx, QWORD PTR p$[rsp]
	movss	xmm0, DWORD PTR [rax+8]
	mulss	xmm0, DWORD PTR [rcx+28]
	mov	rax, QWORD PTR newvec$[rsp]
	movss	DWORD PTR [rax+8], xmm0
; Line 42
	jmp	SHORT $LN3@Primitive_
$LN4@Primitive_:
; Line 43
	mov	rax, QWORD PTR p$[rsp]
	cmp	DWORD PTR [rax], 2
	jne	SHORT $LN2@Primitive_
; Line 44
	mov	rax, QWORD PTR newvec$[rsp]
	mov	rcx, QWORD PTR p$[rsp]
	movss	xmm0, DWORD PTR [rcx+32]
	movss	DWORD PTR [rax], xmm0
; Line 45
	mov	rax, QWORD PTR newvec$[rsp]
	mov	rcx, QWORD PTR p$[rsp]
	movss	xmm0, DWORD PTR [rcx+36]
	movss	DWORD PTR [rax+4], xmm0
; Line 46
	mov	rax, QWORD PTR newvec$[rsp]
	mov	rcx, QWORD PTR p$[rsp]
	movss	xmm0, DWORD PTR [rcx+40]
	movss	DWORD PTR [rax+8], xmm0
; Line 47
	jmp	SHORT $LN1@Primitive_
$LN2@Primitive_:
; Line 48
	mov	rax, QWORD PTR newvec$[rsp]
	xorps	xmm0, xmm0
	movss	DWORD PTR [rax], xmm0
; Line 49
	mov	rax, QWORD PTR newvec$[rsp]
	xorps	xmm0, xmm0
	movss	DWORD PTR [rax+4], xmm0
; Line 50
	mov	rax, QWORD PTR newvec$[rsp]
	xorps	xmm0, xmm0
	movss	DWORD PTR [rax+8], xmm0
$LN1@Primitive_:
$LN3@Primitive_:
; Line 53
	mov	rcx, rsp
	lea	rdx, OFFSET FLAT:?Primitive_GetNormal@@YAXPEAUvector3@@UPrimitive@@U1@@Z$rtcFrameData
	call	_RTC_CheckStackVars
	add	rsp, 64					; 00000040H
	pop	rdi
	ret	0
?Primitive_GetNormal@@YAXPEAUvector3@@UPrimitive@@U1@@Z ENDP ; Primitive_GetNormal
_TEXT	ENDS
PUBLIC	__real@3f800000
PUBLIC	__real@00000000
PUBLIC	?Primitive_Create@@YAXPEAUPrimitive@@W4PRIMTYPE@@MMMMMMMMMMMM_N@Z ; Primitive_Create
pdata	SEGMENT
$pdata$?Primitive_Create@@YAXPEAUPrimitive@@W4PRIMTYPE@@MMMMMMMMMMMM_N@Z DD imagerel $LN29
	DD	imagerel $LN29+812
	DD	imagerel $unwind$?Primitive_Create@@YAXPEAUPrimitive@@W4PRIMTYPE@@MMMMMMMMMMMM_N@Z
pdata	ENDS
xdata	SEGMENT
$unwind$?Primitive_Create@@YAXPEAUPrimitive@@W4PRIMTYPE@@MMMMMMMMMMMM_N@Z DD 022e01H
	DD	07016721aH
xdata	ENDS
;	COMDAT __real@3f800000
CONST	SEGMENT
__real@3f800000 DD 03f800000r			; 1
CONST	ENDS
;	COMDAT __real@00000000
CONST	SEGMENT
__real@00000000 DD 000000000r			; 0
; Function compile flags: /Odtp /RTCsu
CONST	ENDS
_TEXT	SEGMENT
isSphere$ = 0
tv67 = 4
tv88 = 8
tv94 = 12
tv131 = 16
tv136 = 20
tv140 = 24
tv145 = 28
tv149 = 32
tv152 = 36
tv157 = 40
tv163 = 44
tv169 = 48
tv175 = 52
p$ = 80
type$ = 88
center_normal_x$ = 96
center_normal_y$ = 104
center_normal_z$ = 112
radius_depth$ = 120
color_r$ = 128
color_g$ = 136
color_b$ = 144
refl$ = 152
refr$ = 160
rIndex$ = 168
diff$ = 176
spec$ = 184
isLight$ = 192
?Primitive_Create@@YAXPEAUPrimitive@@W4PRIMTYPE@@MMMMMMMMMMMM_N@Z PROC ; Primitive_Create
; Line 61
$LN29:
	movss	DWORD PTR [rsp+32], xmm3
	movss	DWORD PTR [rsp+24], xmm2
	mov	DWORD PTR [rsp+16], edx
	mov	QWORD PTR [rsp+8], rcx
	push	rdi
	sub	rsp, 64					; 00000040H
	mov	rdi, rsp
	mov	ecx, 16
	mov	eax, -858993460				; ccccccccH
	rep stosd
	mov	rcx, QWORD PTR [rsp+80]
; Line 62
	mov	rax, QWORD PTR p$[rsp]
	mov	ecx, DWORD PTR type$[rsp]
	mov	DWORD PTR [rax], ecx
; Line 63
	movzx	eax, BYTE PTR isLight$[rsp]
	test	eax, eax
	je	SHORT $LN3@Primitive_@2
	mov	DWORD PTR tv67[rsp], 1
	jmp	SHORT $LN4@Primitive_@2
$LN3@Primitive_@2:
	mov	DWORD PTR tv67[rsp], 0
$LN4@Primitive_@2:
	mov	rax, QWORD PTR p$[rsp]
	mov	ecx, DWORD PTR tv67[rsp]
	mov	DWORD PTR [rax+4], ecx
; Line 64
	mov	rax, QWORD PTR p$[rsp]
	movss	xmm0, DWORD PTR color_r$[rsp]
	movss	DWORD PTR [rax+64], xmm0
; Line 65
	mov	rax, QWORD PTR p$[rsp]
	movss	xmm0, DWORD PTR color_g$[rsp]
	movss	DWORD PTR [rax+68], xmm0
; Line 66
	mov	rax, QWORD PTR p$[rsp]
	movss	xmm0, DWORD PTR color_b$[rsp]
	movss	DWORD PTR [rax+72], xmm0
; Line 67
	mov	rax, QWORD PTR p$[rsp]
	movss	xmm0, DWORD PTR refl$[rsp]
	movss	DWORD PTR [rax+76], xmm0
; Line 68
	mov	rax, QWORD PTR p$[rsp]
	movss	xmm0, DWORD PTR refr$[rsp]
	movss	DWORD PTR [rax+80], xmm0
; Line 69
	mov	rax, QWORD PTR p$[rsp]
	movss	xmm0, DWORD PTR rIndex$[rsp]
	movss	DWORD PTR [rax+92], xmm0
; Line 70
	mov	rax, QWORD PTR p$[rsp]
	movss	xmm0, DWORD PTR diff$[rsp]
	movss	DWORD PTR [rax+84], xmm0
; Line 71
	mov	rax, QWORD PTR p$[rsp]
	movss	xmm0, DWORD PTR spec$[rsp]
	movss	DWORD PTR [rax+88], xmm0
; Line 72
	cmp	DWORD PTR type$[rsp], 1
	jne	SHORT $LN5@Primitive_@2
	mov	DWORD PTR tv88[rsp], 1
	jmp	SHORT $LN6@Primitive_@2
$LN5@Primitive_@2:
	mov	DWORD PTR tv88[rsp], 0
$LN6@Primitive_@2:
	movzx	eax, BYTE PTR tv88[rsp]
	mov	BYTE PTR isSphere$[rsp], al
; Line 73
	movzx	eax, BYTE PTR isSphere$[rsp]
	test	eax, eax
	je	SHORT $LN7@Primitive_@2
	movss	xmm0, DWORD PTR center_normal_x$[rsp]
	movss	DWORD PTR tv94[rsp], xmm0
	jmp	SHORT $LN8@Primitive_@2
$LN7@Primitive_@2:
	xorps	xmm0, xmm0
	movss	DWORD PTR tv94[rsp], xmm0
$LN8@Primitive_@2:
	mov	rax, QWORD PTR p$[rsp]
	movss	xmm0, DWORD PTR tv94[rsp]
	movss	DWORD PTR [rax+8], xmm0
; Line 74
	movzx	eax, BYTE PTR isSphere$[rsp]
	test	eax, eax
	je	SHORT $LN9@Primitive_@2
	movss	xmm0, DWORD PTR center_normal_y$[rsp]
	movss	DWORD PTR tv131[rsp], xmm0
	jmp	SHORT $LN10@Primitive_@2
$LN9@Primitive_@2:
	xorps	xmm0, xmm0
	movss	DWORD PTR tv131[rsp], xmm0
$LN10@Primitive_@2:
	mov	rax, QWORD PTR p$[rsp]
	movss	xmm0, DWORD PTR tv131[rsp]
	movss	DWORD PTR [rax+12], xmm0
; Line 75
	movzx	eax, BYTE PTR isSphere$[rsp]
	test	eax, eax
	je	SHORT $LN11@Primitive_@2
	movss	xmm0, DWORD PTR center_normal_z$[rsp]
	movss	DWORD PTR tv136[rsp], xmm0
	jmp	SHORT $LN12@Primitive_@2
$LN11@Primitive_@2:
	xorps	xmm0, xmm0
	movss	DWORD PTR tv136[rsp], xmm0
$LN12@Primitive_@2:
	mov	rax, QWORD PTR p$[rsp]
	movss	xmm0, DWORD PTR tv136[rsp]
	movss	DWORD PTR [rax+16], xmm0
; Line 76
	movzx	eax, BYTE PTR isSphere$[rsp]
	test	eax, eax
	je	SHORT $LN13@Primitive_@2
	movss	xmm0, DWORD PTR radius_depth$[rsp]
	movss	DWORD PTR tv140[rsp], xmm0
	jmp	SHORT $LN14@Primitive_@2
$LN13@Primitive_@2:
	xorps	xmm0, xmm0
	movss	DWORD PTR tv140[rsp], xmm0
$LN14@Primitive_@2:
	mov	rax, QWORD PTR p$[rsp]
	movss	xmm0, DWORD PTR tv140[rsp]
	movss	DWORD PTR [rax+24], xmm0
; Line 77
	movzx	eax, BYTE PTR isSphere$[rsp]
	test	eax, eax
	je	SHORT $LN15@Primitive_@2
	movss	xmm0, DWORD PTR radius_depth$[rsp]
	mulss	xmm0, DWORD PTR radius_depth$[rsp]
	movss	DWORD PTR tv145[rsp], xmm0
	jmp	SHORT $LN16@Primitive_@2
$LN15@Primitive_@2:
	xorps	xmm0, xmm0
	movss	DWORD PTR tv145[rsp], xmm0
$LN16@Primitive_@2:
	mov	rax, QWORD PTR p$[rsp]
	movss	xmm0, DWORD PTR tv145[rsp]
	movss	DWORD PTR [rax+20], xmm0
; Line 78
	movzx	eax, BYTE PTR isSphere$[rsp]
	test	eax, eax
	je	SHORT $LN19@Primitive_@2
	movss	xmm0, DWORD PTR radius_depth$[rsp]
	comiss	xmm0, DWORD PTR __real@00000000
	jbe	SHORT $LN17@Primitive_@2
	movss	xmm0, DWORD PTR __real@3f800000
	divss	xmm0, DWORD PTR radius_depth$[rsp]
	movss	DWORD PTR tv149[rsp], xmm0
	jmp	SHORT $LN18@Primitive_@2
$LN17@Primitive_@2:
	xorps	xmm0, xmm0
	movss	DWORD PTR tv149[rsp], xmm0
$LN18@Primitive_@2:
	movss	xmm0, DWORD PTR tv149[rsp]
	movss	DWORD PTR tv152[rsp], xmm0
	jmp	SHORT $LN20@Primitive_@2
$LN19@Primitive_@2:
	xorps	xmm0, xmm0
	movss	DWORD PTR tv152[rsp], xmm0
$LN20@Primitive_@2:
	mov	rax, QWORD PTR p$[rsp]
	movss	xmm0, DWORD PTR tv152[rsp]
	movss	DWORD PTR [rax+28], xmm0
; Line 79
	movzx	eax, BYTE PTR isSphere$[rsp]
	test	eax, eax
	je	SHORT $LN21@Primitive_@2
	xorps	xmm0, xmm0
	movss	DWORD PTR tv157[rsp], xmm0
	jmp	SHORT $LN22@Primitive_@2
$LN21@Primitive_@2:
	movss	xmm0, DWORD PTR radius_depth$[rsp]
	movss	DWORD PTR tv157[rsp], xmm0
$LN22@Primitive_@2:
	mov	rax, QWORD PTR p$[rsp]
	movss	xmm0, DWORD PTR tv157[rsp]
	movss	DWORD PTR [rax+44], xmm0
; Line 80
	movzx	eax, BYTE PTR isSphere$[rsp]
	test	eax, eax
	je	SHORT $LN23@Primitive_@2
	xorps	xmm0, xmm0
	movss	DWORD PTR tv163[rsp], xmm0
	jmp	SHORT $LN24@Primitive_@2
$LN23@Primitive_@2:
	movss	xmm0, DWORD PTR center_normal_x$[rsp]
	movss	DWORD PTR tv163[rsp], xmm0
$LN24@Primitive_@2:
	mov	rax, QWORD PTR p$[rsp]
	movss	xmm0, DWORD PTR tv163[rsp]
	movss	DWORD PTR [rax+32], xmm0
; Line 81
	movzx	eax, BYTE PTR isSphere$[rsp]
	test	eax, eax
	je	SHORT $LN25@Primitive_@2
	xorps	xmm0, xmm0
	movss	DWORD PTR tv169[rsp], xmm0
	jmp	SHORT $LN26@Primitive_@2
$LN25@Primitive_@2:
	movss	xmm0, DWORD PTR center_normal_y$[rsp]
	movss	DWORD PTR tv169[rsp], xmm0
$LN26@Primitive_@2:
	mov	rax, QWORD PTR p$[rsp]
	movss	xmm0, DWORD PTR tv169[rsp]
	movss	DWORD PTR [rax+36], xmm0
; Line 82
	movzx	eax, BYTE PTR isSphere$[rsp]
	test	eax, eax
	je	SHORT $LN27@Primitive_@2
	xorps	xmm0, xmm0
	movss	DWORD PTR tv175[rsp], xmm0
	jmp	SHORT $LN28@Primitive_@2
$LN27@Primitive_@2:
	movss	xmm0, DWORD PTR center_normal_z$[rsp]
	movss	DWORD PTR tv175[rsp], xmm0
$LN28@Primitive_@2:
	mov	rax, QWORD PTR p$[rsp]
	movss	xmm0, DWORD PTR tv175[rsp]
	movss	DWORD PTR [rax+40], xmm0
; Line 83
	add	rsp, 64					; 00000040H
	pop	rdi
	ret	0
?Primitive_Create@@YAXPEAUPrimitive@@W4PRIMTYPE@@MMMMMMMMMMMM_N@Z ENDP ; Primitive_Create
_TEXT	ENDS
PUBLIC	?Primitive_GetCentre@@YA?AUvector3@@PEAUPrimitive@@@Z ; Primitive_GetCentre
pdata	SEGMENT
$pdata$?Primitive_GetCentre@@YA?AUvector3@@PEAUPrimitive@@@Z DD imagerel $LN3
	DD	imagerel $LN3+41
	DD	imagerel $unwind$?Primitive_GetCentre@@YA?AUvector3@@PEAUPrimitive@@@Z
pdata	ENDS
xdata	SEGMENT
$unwind$?Primitive_GetCentre@@YA?AUvector3@@PEAUPrimitive@@@Z DD 020c01H
	DD	0600b700cH
; Function compile flags: /Odtp /RTCsu
xdata	ENDS
_TEXT	SEGMENT
$T5436 = 24
p$ = 32
?Primitive_GetCentre@@YA?AUvector3@@PEAUPrimitive@@@Z PROC ; Primitive_GetCentre
; Line 85
$LN3:
	mov	QWORD PTR [rsp+16], rdx
	mov	QWORD PTR [rsp+8], rcx
	push	rsi
	push	rdi
; Line 86
	mov	rax, QWORD PTR p$[rsp]
	mov	rdi, QWORD PTR $T5436[rsp]
	lea	rsi, QWORD PTR [rax+8]
	mov	ecx, 12
	rep movsb
	mov	rax, QWORD PTR $T5436[rsp]
; Line 87
	pop	rdi
	pop	rsi
	ret	0
?Primitive_GetCentre@@YA?AUvector3@@PEAUPrimitive@@@Z ENDP ; Primitive_GetCentre
_TEXT	ENDS
PUBLIC	?Primitive_GetSqRadius@@YAMPEAUPrimitive@@@Z	; Primitive_GetSqRadius
pdata	SEGMENT
$pdata$?Primitive_GetSqRadius@@YAMPEAUPrimitive@@@Z DD imagerel $LN3
	DD	imagerel $LN3+46
	DD	imagerel $unwind$?Primitive_GetSqRadius@@YAMPEAUPrimitive@@@Z
pdata	ENDS
xdata	SEGMENT
$unwind$?Primitive_GetSqRadius@@YAMPEAUPrimitive@@@Z DD 021e01H
	DD	07006120aH
; Function compile flags: /Odtp /RTCsu
xdata	ENDS
_TEXT	SEGMENT
p$ = 32
?Primitive_GetSqRadius@@YAMPEAUPrimitive@@@Z PROC	; Primitive_GetSqRadius
; Line 89
$LN3:
	mov	QWORD PTR [rsp+8], rcx
	push	rdi
	sub	rsp, 16
	mov	rdi, rsp
	mov	ecx, 4
	mov	eax, -858993460				; ccccccccH
	rep stosd
	mov	rcx, QWORD PTR [rsp+32]
	mov	rax, QWORD PTR p$[rsp]
	movss	xmm0, DWORD PTR [rax+20]
	add	rsp, 16
	pop	rdi
	ret	0
?Primitive_GetSqRadius@@YAMPEAUPrimitive@@@Z ENDP	; Primitive_GetSqRadius
_TEXT	ENDS
PUBLIC	?Primitive_GetD@@YAMPEAUPrimitive@@@Z		; Primitive_GetD
pdata	SEGMENT
$pdata$?Primitive_GetD@@YAMPEAUPrimitive@@@Z DD imagerel $LN3
	DD	imagerel $LN3+46
	DD	imagerel $unwind$?Primitive_GetD@@YAMPEAUPrimitive@@@Z
pdata	ENDS
xdata	SEGMENT
$unwind$?Primitive_GetD@@YAMPEAUPrimitive@@@Z DD 021e01H
	DD	07006120aH
; Function compile flags: /Odtp /RTCsu
xdata	ENDS
_TEXT	SEGMENT
p$ = 32
?Primitive_GetD@@YAMPEAUPrimitive@@@Z PROC		; Primitive_GetD
; Line 92
$LN3:
	mov	QWORD PTR [rsp+8], rcx
	push	rdi
	sub	rsp, 16
	mov	rdi, rsp
	mov	ecx, 4
	mov	eax, -858993460				; ccccccccH
	rep stosd
	mov	rcx, QWORD PTR [rsp+32]
	mov	rax, QWORD PTR p$[rsp]
	movss	xmm0, DWORD PTR [rax+44]
	add	rsp, 16
	pop	rdi
	ret	0
?Primitive_GetD@@YAMPEAUPrimitive@@@Z ENDP		; Primitive_GetD
_TEXT	ENDS
PUBLIC	__real@3fc00000
PUBLIC	__real@3e4ccccd
PUBLIC	?Material_Set@@YAXPEAUMaterial@@@Z		; Material_Set
pdata	SEGMENT
$pdata$?Material_Set@@YAXPEAUMaterial@@@Z DD imagerel $LN3
	DD	imagerel $LN3+110
	DD	imagerel $unwind$?Material_Set@@YAXPEAUMaterial@@@Z
pdata	ENDS
xdata	SEGMENT
$unwind$?Material_Set@@YAXPEAUMaterial@@@Z DD 010601H
	DD	07006H
xdata	ENDS
;	COMDAT __real@3fc00000
CONST	SEGMENT
__real@3fc00000 DD 03fc00000r			; 1.5
CONST	ENDS
;	COMDAT __real@3e4ccccd
CONST	SEGMENT
__real@3e4ccccd DD 03e4ccccdr			; 0.2
; Function compile flags: /Odtp /RTCsu
CONST	ENDS
_TEXT	SEGMENT
m$ = 16
?Material_Set@@YAXPEAUMaterial@@@Z PROC			; Material_Set
; Line 99
$LN3:
	mov	QWORD PTR [rsp+8], rcx
	push	rdi
; Line 100
	mov	rax, QWORD PTR m$[rsp]
	movss	xmm0, DWORD PTR __real@3e4ccccd
	movss	DWORD PTR [rax], xmm0
; Line 101
	mov	rax, QWORD PTR m$[rsp]
	movss	xmm0, DWORD PTR __real@3e4ccccd
	movss	DWORD PTR [rax+4], xmm0
; Line 102
	mov	rax, QWORD PTR m$[rsp]
	movss	xmm0, DWORD PTR __real@3e4ccccd
	movss	DWORD PTR [rax+8], xmm0
; Line 103
	mov	rax, QWORD PTR m$[rsp]
	xorps	xmm0, xmm0
	movss	DWORD PTR [rax+12], xmm0
; Line 104
	mov	rax, QWORD PTR m$[rsp]
	movss	xmm0, DWORD PTR __real@3e4ccccd
	movss	DWORD PTR [rax+20], xmm0
; Line 105
	mov	rax, QWORD PTR m$[rsp]
	movss	xmm0, DWORD PTR __real@3fc00000
	movss	DWORD PTR [rax+28], xmm0
; Line 106
	pop	rdi
	ret	0
?Material_Set@@YAXPEAUMaterial@@@Z ENDP			; Material_Set
_TEXT	ENDS
PUBLIC	?Material_SetColor@@YAXPEAUMaterial@@MMM@Z	; Material_SetColor
pdata	SEGMENT
$pdata$?Material_SetColor@@YAXPEAUMaterial@@MMM@Z DD imagerel $LN3
	DD	imagerel $LN3+73
	DD	imagerel $unwind$?Material_SetColor@@YAXPEAUMaterial@@MMM@Z
pdata	ENDS
xdata	SEGMENT
$unwind$?Material_SetColor@@YAXPEAUMaterial@@MMM@Z DD 011801H
	DD	07018H
; Function compile flags: /Odtp /RTCsu
xdata	ENDS
_TEXT	SEGMENT
m$ = 16
r$ = 24
g$ = 32
b$ = 40
?Material_SetColor@@YAXPEAUMaterial@@MMM@Z PROC		; Material_SetColor
; Line 108
$LN3:
	movss	DWORD PTR [rsp+32], xmm3
	movss	DWORD PTR [rsp+24], xmm2
	movss	DWORD PTR [rsp+16], xmm1
	mov	QWORD PTR [rsp+8], rcx
	push	rdi
; Line 109
	mov	rax, QWORD PTR m$[rsp]
	movss	xmm0, DWORD PTR r$[rsp]
	movss	DWORD PTR [rax], xmm0
; Line 110
	mov	rax, QWORD PTR m$[rsp]
	movss	xmm0, DWORD PTR g$[rsp]
	movss	DWORD PTR [rax+4], xmm0
; Line 111
	mov	rax, QWORD PTR m$[rsp]
	movss	xmm0, DWORD PTR b$[rsp]
	movss	DWORD PTR [rax+8], xmm0
; Line 112
	pop	rdi
	ret	0
?Material_SetColor@@YAXPEAUMaterial@@MMM@Z ENDP		; Material_SetColor
_TEXT	ENDS
PUBLIC	?Material_GetSpecular@@YAMPEAUMaterial@@@Z	; Material_GetSpecular
pdata	SEGMENT
$pdata$?Material_GetSpecular@@YAMPEAUMaterial@@@Z DD imagerel $LN3
	DD	imagerel $LN3+54
	DD	imagerel $unwind$?Material_GetSpecular@@YAMPEAUMaterial@@@Z
pdata	ENDS
xdata	SEGMENT
$unwind$?Material_GetSpecular@@YAMPEAUMaterial@@@Z DD 021e01H
	DD	07006120aH
; Function compile flags: /Odtp /RTCsu
xdata	ENDS
_TEXT	SEGMENT
m$ = 32
?Material_GetSpecular@@YAMPEAUMaterial@@@Z PROC		; Material_GetSpecular
; Line 114
$LN3:
	mov	QWORD PTR [rsp+8], rcx
	push	rdi
	sub	rsp, 16
	mov	rdi, rsp
	mov	ecx, 4
	mov	eax, -858993460				; ccccccccH
	rep stosd
	mov	rcx, QWORD PTR [rsp+32]
	mov	rax, QWORD PTR m$[rsp]
	movss	xmm0, DWORD PTR __real@3f800000
	subss	xmm0, DWORD PTR [rax+20]
	add	rsp, 16
	pop	rdi
	ret	0
?Material_GetSpecular@@YAMPEAUMaterial@@@Z ENDP		; Material_GetSpecular
_TEXT	ENDS
PUBLIC	?Primitive_GetType@@YA?AW4PRIMTYPE@@PEAUPrimitive@@@Z ; Primitive_GetType
pdata	SEGMENT
$pdata$?Primitive_GetType@@YA?AW4PRIMTYPE@@PEAUPrimitive@@@Z DD imagerel $LN3
	DD	imagerel $LN3+15
	DD	imagerel $unwind$?Primitive_GetType@@YA?AW4PRIMTYPE@@PEAUPrimitive@@@Z
pdata	ENDS
xdata	SEGMENT
$unwind$?Primitive_GetType@@YA?AW4PRIMTYPE@@PEAUPrimitive@@@Z DD 010601H
	DD	07006H
; Function compile flags: /Odtp /RTCsu
xdata	ENDS
_TEXT	SEGMENT
p$ = 16
?Primitive_GetType@@YA?AW4PRIMTYPE@@PEAUPrimitive@@@Z PROC ; Primitive_GetType
; Line 118
$LN3:
	mov	QWORD PTR [rsp+8], rcx
	push	rdi
	mov	rax, QWORD PTR p$[rsp]
	mov	eax, DWORD PTR [rax]
	pop	rdi
	ret	0
?Primitive_GetType@@YA?AW4PRIMTYPE@@PEAUPrimitive@@@Z ENDP ; Primitive_GetType
_TEXT	ENDS
PUBLIC	__mask@@NegFloat@
PUBLIC	__$ArrayPad$
PUBLIC	?Primitive_Intersect@@YAHPEAUPrimitive@@PEAURay@@PEAM@Z ; Primitive_Intersect
EXTRN	__GSHandlerCheck:PROC
EXTRN	sqrtf:PROC
EXTRN	__security_cookie:QWORD
EXTRN	__security_check_cookie:PROC
pdata	SEGMENT
$pdata$?Primitive_Intersect@@YAHPEAUPrimitive@@PEAURay@@PEAM@Z DD imagerel $LN17
	DD	imagerel $LN17+967
	DD	imagerel $unwind$?Primitive_Intersect@@YAHPEAUPrimitive@@PEAURay@@PEAM@Z
pdata	ENDS
xdata	SEGMENT
$unwind$?Primitive_Intersect@@YAHPEAUPrimitive@@PEAURay@@PEAM@Z DD 023a19H
	DD	07010d214H
	DD	imagerel __GSHandlerCheck
	DD	068H
xdata	ENDS
;	COMDAT __mask@@NegFloat@
CONST	SEGMENT
__mask@@NegFloat@ DB 00H, 00H, 00H, 080H, 00H, 00H, 00H, 080H, 00H, 00H, 00H
	DB	080H, 00H, 00H, 00H, 080H
CONST	ENDS
CONST	SEGMENT
?Primitive_Intersect@@YAHPEAUPrimitive@@PEAURay@@PEAM@Z$rtcName$0 DB 064H ; Primitive_Intersect
	DB	075H
	DB	06dH
	DB	06dH
	DB	079H
	DB	05fH
	DB	076H
	DB	065H
	DB	063H
	DB	074H
	DB	06fH
	DB	072H
	DB	00H
	ORG $+3
?Primitive_Intersect@@YAHPEAUPrimitive@@PEAURay@@PEAM@Z$rtcVarDesc DD 028H ; Primitive_Intersect
	DD	0cH
	DQ	FLAT:?Primitive_Intersect@@YAHPEAUPrimitive@@PEAURay@@PEAM@Z$rtcName$0
	ORG $+48
?Primitive_Intersect@@YAHPEAUPrimitive@@PEAURay@@PEAM@Z$rtcFrameData DD 01H ; Primitive_Intersect
	DD	00H
	DQ	FLAT:?Primitive_Intersect@@YAHPEAUPrimitive@@PEAURay@@PEAM@Z$rtcVarDesc
; Function compile flags: /Odtp /RTCsu
CONST	ENDS
_TEXT	SEGMENT
dummy_vector$ = 40
b$5211 = 68
det$5212 = 72
retval$5213 = 76
i1$5215 = 80
i2$5216 = 84
d$5224 = 88
dist$5226 = 92
__$ArrayPad$ = 104
p$ = 128
a_Ray$ = 136
a_Dist$ = 144
?Primitive_Intersect@@YAHPEAUPrimitive@@PEAURay@@PEAM@Z PROC ; Primitive_Intersect
; Line 125
$LN17:
	mov	QWORD PTR [rsp+24], r8
	mov	QWORD PTR [rsp+16], rdx
	mov	QWORD PTR [rsp+8], rcx
	push	rdi
	sub	rsp, 112				; 00000070H
	mov	rdi, rsp
	mov	ecx, 28
	mov	eax, -858993460				; ccccccccH
	rep stosd
	mov	rcx, QWORD PTR [rsp+128]
	mov	rax, QWORD PTR __security_cookie
	xor	rax, rsp
	mov	QWORD PTR __$ArrayPad$[rsp], rax
; Line 127
	xorps	xmm0, xmm0
	movss	DWORD PTR dummy_vector$[rsp], xmm0
; Line 128
	xorps	xmm0, xmm0
	movss	DWORD PTR dummy_vector$[rsp+4], xmm0
; Line 129
	xorps	xmm0, xmm0
	movss	DWORD PTR dummy_vector$[rsp+8], xmm0
; Line 130
	mov	rax, QWORD PTR p$[rsp]
	cmp	DWORD PTR [rax], 1
	jne	$LN13@Primitive_@3
; Line 131
	mov	rax, QWORD PTR a_Ray$[rsp]
	movss	xmm0, DWORD PTR [rax]
	movss	DWORD PTR dummy_vector$[rsp], xmm0
; Line 132
	mov	rax, QWORD PTR a_Ray$[rsp]
	movss	xmm0, DWORD PTR [rax+4]
	movss	DWORD PTR dummy_vector$[rsp+4], xmm0
; Line 133
	mov	rax, QWORD PTR a_Ray$[rsp]
	movss	xmm0, DWORD PTR [rax+8]
	movss	DWORD PTR dummy_vector$[rsp+8], xmm0
; Line 136
	mov	rax, QWORD PTR p$[rsp]
	movss	xmm0, DWORD PTR dummy_vector$[rsp]
	subss	xmm0, DWORD PTR [rax+8]
	movss	DWORD PTR dummy_vector$[rsp], xmm0
; Line 137
	mov	rax, QWORD PTR p$[rsp]
	movss	xmm0, DWORD PTR dummy_vector$[rsp+4]
	subss	xmm0, DWORD PTR [rax+12]
	movss	DWORD PTR dummy_vector$[rsp+4], xmm0
; Line 138
	mov	rax, QWORD PTR p$[rsp]
	movss	xmm0, DWORD PTR dummy_vector$[rsp+8]
	subss	xmm0, DWORD PTR [rax+16]
	movss	DWORD PTR dummy_vector$[rsp+8], xmm0
; Line 139
	mov	rax, QWORD PTR a_Ray$[rsp]
	movss	xmm0, DWORD PTR dummy_vector$[rsp]
	mulss	xmm0, DWORD PTR [rax+12]
	mov	rax, QWORD PTR a_Ray$[rsp]
	movss	xmm1, DWORD PTR dummy_vector$[rsp+4]
	mulss	xmm1, DWORD PTR [rax+16]
	addss	xmm0, xmm1
	mov	rax, QWORD PTR a_Ray$[rsp]
	movss	xmm1, DWORD PTR dummy_vector$[rsp+8]
	mulss	xmm1, DWORD PTR [rax+20]
	addss	xmm0, xmm1
	movss	DWORD PTR b$5211[rsp], xmm0
; Line 140
	movss	xmm0, DWORD PTR b$5211[rsp]
	xorps	xmm0, DWORD PTR __mask@@NegFloat@
	movss	DWORD PTR b$5211[rsp], xmm0
; Line 141
	movss	xmm0, DWORD PTR b$5211[rsp]
	mulss	xmm0, DWORD PTR b$5211[rsp]
	movss	xmm1, DWORD PTR dummy_vector$[rsp]
	mulss	xmm1, DWORD PTR dummy_vector$[rsp]
	movss	xmm2, DWORD PTR dummy_vector$[rsp+4]
	mulss	xmm2, DWORD PTR dummy_vector$[rsp+4]
	addss	xmm1, xmm2
	movss	xmm2, DWORD PTR dummy_vector$[rsp+8]
	mulss	xmm2, DWORD PTR dummy_vector$[rsp+8]
	addss	xmm1, xmm2
	subss	xmm0, xmm1
	mov	rax, QWORD PTR p$[rsp]
	addss	xmm0, DWORD PTR [rax+20]
	movss	DWORD PTR det$5212[rsp], xmm0
; Line 143
	mov	DWORD PTR retval$5213[rsp], 0
; Line 144
	movss	xmm0, DWORD PTR det$5212[rsp]
	comiss	xmm0, DWORD PTR __real@00000000
	jbe	$LN12@Primitive_@3
; Line 146
	movss	xmm0, DWORD PTR det$5212[rsp]
	call	sqrtf
	movss	DWORD PTR det$5212[rsp], xmm0
; Line 147
	movss	xmm0, DWORD PTR b$5211[rsp]
	subss	xmm0, DWORD PTR det$5212[rsp]
	movss	DWORD PTR i1$5215[rsp], xmm0
; Line 148
	movss	xmm0, DWORD PTR b$5211[rsp]
	addss	xmm0, DWORD PTR det$5212[rsp]
	movss	DWORD PTR i2$5216[rsp], xmm0
; Line 149
	movss	xmm0, DWORD PTR i2$5216[rsp]
	comiss	xmm0, DWORD PTR __real@00000000
	jbe	SHORT $LN11@Primitive_@3
; Line 151
	xorps	xmm0, xmm0
	comiss	xmm0, DWORD PTR i1$5215[rsp]
	jbe	SHORT $LN10@Primitive_@3
; Line 153
	mov	rax, QWORD PTR a_Dist$[rsp]
	movss	xmm0, DWORD PTR [rax]
	comiss	xmm0, DWORD PTR i2$5216[rsp]
	jbe	SHORT $LN9@Primitive_@3
; Line 155
	mov	rax, QWORD PTR a_Dist$[rsp]
	movss	xmm0, DWORD PTR i2$5216[rsp]
	movss	DWORD PTR [rax], xmm0
; Line 156
	mov	DWORD PTR retval$5213[rsp], -1
$LN9@Primitive_@3:
; Line 159
	jmp	SHORT $LN8@Primitive_@3
$LN10@Primitive_@3:
; Line 161
	mov	rax, QWORD PTR a_Dist$[rsp]
	movss	xmm0, DWORD PTR [rax]
	comiss	xmm0, DWORD PTR i1$5215[rsp]
	jbe	SHORT $LN7@Primitive_@3
; Line 163
	mov	rax, QWORD PTR a_Dist$[rsp]
	movss	xmm0, DWORD PTR i1$5215[rsp]
	movss	DWORD PTR [rax], xmm0
; Line 164
	mov	DWORD PTR retval$5213[rsp], 1
$LN7@Primitive_@3:
$LN8@Primitive_@3:
$LN11@Primitive_@3:
$LN12@Primitive_@3:
; Line 169
	mov	eax, DWORD PTR retval$5213[rsp]
	jmp	$LN14@Primitive_@3
; Line 170
	jmp	$LN6@Primitive_@3
$LN13@Primitive_@3:
; Line 171
	mov	rax, QWORD PTR p$[rsp]
	cmp	DWORD PTR [rax], 2
	jne	$LN5@Primitive_@3
; Line 172
	mov	rax, QWORD PTR p$[rsp]
	mov	rcx, QWORD PTR a_Ray$[rsp]
	movss	xmm0, DWORD PTR [rax+32]
	mulss	xmm0, DWORD PTR [rcx+12]
	mov	rax, QWORD PTR p$[rsp]
	mov	rcx, QWORD PTR a_Ray$[rsp]
	movss	xmm1, DWORD PTR [rax+36]
	mulss	xmm1, DWORD PTR [rcx+16]
	addss	xmm0, xmm1
	mov	rax, QWORD PTR p$[rsp]
	mov	rcx, QWORD PTR a_Ray$[rsp]
	movss	xmm1, DWORD PTR [rax+40]
	mulss	xmm1, DWORD PTR [rcx+20]
	addss	xmm0, xmm1
	movss	DWORD PTR d$5224[rsp], xmm0
; Line 173
	movss	xmm0, DWORD PTR d$5224[rsp]
	ucomiss	xmm0, DWORD PTR __real@00000000
	jp	SHORT $LN16@Primitive_@3
	je	$LN4@Primitive_@3
$LN16@Primitive_@3:
; Line 175
	mov	rax, QWORD PTR p$[rsp]
	mov	rcx, QWORD PTR a_Ray$[rsp]
	movss	xmm0, DWORD PTR [rax+32]
	mulss	xmm0, DWORD PTR [rcx]
	mov	rax, QWORD PTR p$[rsp]
	mov	rcx, QWORD PTR a_Ray$[rsp]
	movss	xmm1, DWORD PTR [rax+36]
	mulss	xmm1, DWORD PTR [rcx+4]
	addss	xmm0, xmm1
	mov	rax, QWORD PTR p$[rsp]
	mov	rcx, QWORD PTR a_Ray$[rsp]
	movss	xmm1, DWORD PTR [rax+40]
	mulss	xmm1, DWORD PTR [rcx+8]
	addss	xmm0, xmm1
	mov	rax, QWORD PTR p$[rsp]
	addss	xmm0, DWORD PTR [rax+44]
	xorps	xmm0, DWORD PTR __mask@@NegFloat@
	divss	xmm0, DWORD PTR d$5224[rsp]
	movss	DWORD PTR dist$5226[rsp], xmm0
; Line 176
	movss	xmm0, DWORD PTR dist$5226[rsp]
	comiss	xmm0, DWORD PTR __real@00000000
	jbe	SHORT $LN3@Primitive_@3
; Line 178
	mov	rax, QWORD PTR a_Dist$[rsp]
	movss	xmm0, DWORD PTR [rax]
	comiss	xmm0, DWORD PTR dist$5226[rsp]
	jbe	SHORT $LN2@Primitive_@3
; Line 180
	mov	rax, QWORD PTR a_Dist$[rsp]
	movss	xmm0, DWORD PTR dist$5226[rsp]
	movss	DWORD PTR [rax], xmm0
; Line 181
	mov	eax, 1
	jmp	SHORT $LN14@Primitive_@3
$LN2@Primitive_@3:
$LN3@Primitive_@3:
$LN4@Primitive_@3:
; Line 185
	xor	eax, eax
	jmp	SHORT $LN14@Primitive_@3
; Line 186
	jmp	SHORT $LN1@Primitive_@3
$LN5@Primitive_@3:
; Line 187
	xor	eax, eax
$LN1@Primitive_@3:
$LN6@Primitive_@3:
$LN14@Primitive_@3:
; Line 190
	mov	rdi, rax
	mov	rcx, rsp
	lea	rdx, OFFSET FLAT:?Primitive_Intersect@@YAHPEAUPrimitive@@PEAURay@@PEAM@Z$rtcFrameData
	call	_RTC_CheckStackVars
	mov	rax, rdi
	mov	rcx, QWORD PTR __$ArrayPad$[rsp]
	xor	rcx, rsp
	call	__security_check_cookie
	add	rsp, 112				; 00000070H
	pop	rdi
	ret	0
?Primitive_Intersect@@YAHPEAUPrimitive@@PEAURay@@PEAM@Z ENDP ; Primitive_Intersect
_TEXT	ENDS
PUBLIC	?Scene_Create@@YAPEAUScene@@XZ			; Scene_Create
EXTRN	malloc:PROC
pdata	SEGMENT
$pdata$?Scene_Create@@YAPEAUScene@@XZ DD imagerel $LN3
	DD	imagerel $LN3+47
	DD	imagerel $unwind$?Scene_Create@@YAPEAUScene@@XZ
pdata	ENDS
xdata	SEGMENT
$unwind$?Scene_Create@@YAPEAUScene@@XZ DD 021501H
	DD	070025206H
; Function compile flags: /Odtp /RTCsu
xdata	ENDS
_TEXT	SEGMENT
s$ = 32
?Scene_Create@@YAPEAUScene@@XZ PROC			; Scene_Create
; Line 198
$LN3:
	push	rdi
	sub	rsp, 48					; 00000030H
	mov	rdi, rsp
	mov	ecx, 12
	mov	eax, -858993460				; ccccccccH
	rep stosd
; Line 199
	mov	ecx, 16
	call	malloc
	mov	QWORD PTR s$[rsp], rax
; Line 200
	mov	rax, QWORD PTR s$[rsp]
; Line 201
	add	rsp, 48					; 00000030H
	pop	rdi
	ret	0
?Scene_Create@@YAPEAUScene@@XZ ENDP			; Scene_Create
_TEXT	ENDS
PUBLIC	?TracedRays_init@@YAXXZ				; TracedRays_init
pdata	SEGMENT
$pdata$?TracedRays_init@@YAXXZ DD imagerel $LN6
	DD	imagerel $LN6+173
	DD	imagerel $unwind$?TracedRays_init@@YAXXZ
pdata	ENDS
xdata	SEGMENT
$unwind$?TracedRays_init@@YAXXZ DD 021501H
	DD	070021206H
; Function compile flags: /Odtp /RTCsu
xdata	ENDS
_TEXT	SEGMENT
i$5239 = 0
?TracedRays_init@@YAXXZ PROC				; TracedRays_init
; Line 203
$LN6:
	push	rdi
	sub	rsp, 16
	mov	rdi, rsp
	mov	ecx, 4
	mov	eax, -858993460				; ccccccccH
	rep stosd
; Line 204
	mov	DWORD PTR i$5239[rsp], 0
	jmp	SHORT $LN3@TracedRays
$LN2@TracedRays:
	mov	eax, DWORD PTR i$5239[rsp]
	inc	eax
	mov	DWORD PTR i$5239[rsp], eax
$LN3@TracedRays:
	cmp	DWORD PTR i$5239[rsp], 4
	jge	SHORT $LN1@TracedRays
; Line 205
	movsxd	rax, DWORD PTR i$5239[rsp]
	imul	rax, 20
	lea	rcx, OFFSET FLAT:?TracedRays@@3PAUTracedRay@@A ; TracedRays
	xorps	xmm0, xmm0
	movss	DWORD PTR [rcx+rax], xmm0
; Line 206
	movsxd	rax, DWORD PTR i$5239[rsp]
	imul	rax, 20
	lea	rcx, OFFSET FLAT:?TracedRays@@3PAUTracedRay@@A ; TracedRays
	xorps	xmm0, xmm0
	movss	DWORD PTR [rcx+rax+4], xmm0
; Line 207
	movsxd	rax, DWORD PTR i$5239[rsp]
	imul	rax, 20
	lea	rcx, OFFSET FLAT:?TracedRays@@3PAUTracedRay@@A ; TracedRays
	xorps	xmm0, xmm0
	movss	DWORD PTR [rcx+rax+8], xmm0
; Line 208
	movsxd	rax, DWORD PTR i$5239[rsp]
	imul	rax, 20
	lea	rcx, OFFSET FLAT:?TracedRays@@3PAUTracedRay@@A ; TracedRays
	xorps	xmm0, xmm0
	movss	DWORD PTR [rcx+rax+12], xmm0
; Line 209
	movsxd	rax, DWORD PTR i$5239[rsp]
	imul	rax, 20
	lea	rcx, OFFSET FLAT:?TracedRays@@3PAUTracedRay@@A ; TracedRays
	mov	DWORD PTR [rcx+rax+16], 0
; Line 210
	jmp	$LN2@TracedRays
$LN1@TracedRays:
; Line 211
	add	rsp, 16
	pop	rdi
	ret	0
?TracedRays_init@@YAXXZ ENDP				; TracedRays_init
_TEXT	ENDS
PUBLIC	?Scene_GetNrPrimitives@@YAHPEAUScene@@@Z	; Scene_GetNrPrimitives
pdata	SEGMENT
$pdata$?Scene_GetNrPrimitives@@YAHPEAUScene@@@Z DD imagerel $LN3
	DD	imagerel $LN3+15
	DD	imagerel $unwind$?Scene_GetNrPrimitives@@YAHPEAUScene@@@Z
pdata	ENDS
xdata	SEGMENT
$unwind$?Scene_GetNrPrimitives@@YAHPEAUScene@@@Z DD 010601H
	DD	07006H
; Function compile flags: /Odtp /RTCsu
xdata	ENDS
_TEXT	SEGMENT
s$ = 16
?Scene_GetNrPrimitives@@YAHPEAUScene@@@Z PROC		; Scene_GetNrPrimitives
; Line 214
$LN3:
	mov	QWORD PTR [rsp+8], rcx
	push	rdi
	mov	rax, QWORD PTR s$[rsp]
	mov	eax, DWORD PTR [rax]
	pop	rdi
	ret	0
?Scene_GetNrPrimitives@@YAHPEAUScene@@@Z ENDP		; Scene_GetNrPrimitives
_TEXT	ENDS
PUBLIC	__real@c1700000
PUBLIC	__real@41200000
PUBLIC	__real@3e99999a
PUBLIC	__real@3ca3d70a
PUBLIC	__real@3d4ccccd
PUBLIC	__real@3c23d70a
PUBLIC	__real@c0b9999a
PUBLIC	__real@c0b1999a
PUBLIC	__real@41f80000
PUBLIC	__real@3f933333
PUBLIC	__real@40400000
PUBLIC	__real@c0400000
PUBLIC	__real@3f3851ec
PUBLIC	__real@be0f5c29
PUBLIC	__real@bf4ccccd
PUBLIC	__real@3f99999a
PUBLIC	__real@40accccd
PUBLIC	__real@40cccccd
PUBLIC	__real@41900000
PUBLIC	__real@3e3851ec
PUBLIC	__real@40266666
PUBLIC	__real@c0d66666
PUBLIC	__real@c0c00000
PUBLIC	__real@42000000
PUBLIC	__real@3fd9999a
PUBLIC	__real@3f000000
PUBLIC	__real@c0833333
PUBLIC	__real@3f333333
PUBLIC	__real@41e80000
PUBLIC	__real@bf333333
PUBLIC	__real@c09ccccd
PUBLIC	__real@41d80000
PUBLIC	__real@3e2e147b
PUBLIC	__real@3d8f5c29
PUBLIC	__real@3dcccccd
PUBLIC	__real@3f4ccccd
PUBLIC	__real@4059999a
PUBLIC	__real@c059999a
PUBLIC	__real@41b80000
PUBLIC	__real@40200000
PUBLIC	__real@3da3d70a
PUBLIC	__real@3ff33333
PUBLIC	__real@40133333
PUBLIC	__real@40d00000
PUBLIC	__real@41b00000
PUBLIC	__real@3eb33333
PUBLIC	__real@3f59999a
PUBLIC	__real@3f400000
PUBLIC	__real@408ccccd
PUBLIC	__real@3f19999a
PUBLIC	__real@3ecccccd
PUBLIC	__real@3fe66666
PUBLIC	?Scene_InitScene@@YAXXZ				; Scene_InitScene
pdata	SEGMENT
$pdata$?Scene_InitScene@@YAXXZ DD imagerel $LN9
	DD	imagerel $LN9+4281
	DD	imagerel $unwind$?Scene_InitScene@@YAXXZ
pdata	ENDS
xdata	SEGMENT
$unwind$?Scene_InitScene@@YAXXZ DD 031801H
	DD	0260109H
	DD	07002H
xdata	ENDS
;	COMDAT __real@c1700000
CONST	SEGMENT
__real@c1700000 DD 0c1700000r			; -15
CONST	ENDS
;	COMDAT __real@41200000
CONST	SEGMENT
__real@41200000 DD 041200000r			; 10
CONST	ENDS
;	COMDAT __real@3e99999a
CONST	SEGMENT
__real@3e99999a DD 03e99999ar			; 0.3
CONST	ENDS
;	COMDAT __real@3ca3d70a
CONST	SEGMENT
__real@3ca3d70a DD 03ca3d70ar			; 0.02
CONST	ENDS
;	COMDAT __real@3d4ccccd
CONST	SEGMENT
__real@3d4ccccd DD 03d4ccccdr			; 0.05
CONST	ENDS
;	COMDAT __real@3c23d70a
CONST	SEGMENT
__real@3c23d70a DD 03c23d70ar			; 0.01
CONST	ENDS
;	COMDAT __real@c0b9999a
CONST	SEGMENT
__real@c0b9999a DD 0c0b9999ar			; -5.8
CONST	ENDS
;	COMDAT __real@c0b1999a
CONST	SEGMENT
__real@c0b1999a DD 0c0b1999ar			; -5.55
CONST	ENDS
;	COMDAT __real@41f80000
CONST	SEGMENT
__real@41f80000 DD 041f80000r			; 31
CONST	ENDS
;	COMDAT __real@3f933333
CONST	SEGMENT
__real@3f933333 DD 03f933333r			; 1.15
CONST	ENDS
;	COMDAT __real@40400000
CONST	SEGMENT
__real@40400000 DD 040400000r			; 3
CONST	ENDS
;	COMDAT __real@c0400000
CONST	SEGMENT
__real@c0400000 DD 0c0400000r			; -3
CONST	ENDS
;	COMDAT __real@3f3851ec
CONST	SEGMENT
__real@3f3851ec DD 03f3851ecr			; 0.72
CONST	ENDS
;	COMDAT __real@be0f5c29
CONST	SEGMENT
__real@be0f5c29 DD 0be0f5c29r			; -0.14
CONST	ENDS
;	COMDAT __real@bf4ccccd
CONST	SEGMENT
__real@bf4ccccd DD 0bf4ccccdr			; -0.8
CONST	ENDS
;	COMDAT __real@3f99999a
CONST	SEGMENT
__real@3f99999a DD 03f99999ar			; 1.2
CONST	ENDS
;	COMDAT __real@40accccd
CONST	SEGMENT
__real@40accccd DD 040accccdr			; 5.4
CONST	ENDS
;	COMDAT __real@40cccccd
CONST	SEGMENT
__real@40cccccd DD 040cccccdr			; 6.4
CONST	ENDS
;	COMDAT __real@41900000
CONST	SEGMENT
__real@41900000 DD 041900000r			; 18
CONST	ENDS
;	COMDAT __real@3e3851ec
CONST	SEGMENT
__real@3e3851ec DD 03e3851ecr			; 0.18
CONST	ENDS
;	COMDAT __real@40266666
CONST	SEGMENT
__real@40266666 DD 040266666r			; 2.6
CONST	ENDS
;	COMDAT __real@c0d66666
CONST	SEGMENT
__real@c0d66666 DD 0c0d66666r			; -6.7
CONST	ENDS
;	COMDAT __real@c0c00000
CONST	SEGMENT
__real@c0c00000 DD 0c0c00000r			; -6
CONST	ENDS
;	COMDAT __real@42000000
CONST	SEGMENT
__real@42000000 DD 042000000r			; 32
CONST	ENDS
;	COMDAT __real@3fd9999a
CONST	SEGMENT
__real@3fd9999a DD 03fd9999ar			; 1.7
CONST	ENDS
;	COMDAT __real@3f000000
CONST	SEGMENT
__real@3f000000 DD 03f000000r			; 0.5
CONST	ENDS
;	COMDAT __real@c0833333
CONST	SEGMENT
__real@c0833333 DD 0c0833333r			; -4.1
CONST	ENDS
;	COMDAT __real@3f333333
CONST	SEGMENT
__real@3f333333 DD 03f333333r			; 0.7
CONST	ENDS
;	COMDAT __real@41e80000
CONST	SEGMENT
__real@41e80000 DD 041e80000r			; 29
CONST	ENDS
;	COMDAT __real@bf333333
CONST	SEGMENT
__real@bf333333 DD 0bf333333r			; -0.7
CONST	ENDS
;	COMDAT __real@c09ccccd
CONST	SEGMENT
__real@c09ccccd DD 0c09ccccdr			; -4.9
CONST	ENDS
;	COMDAT __real@41d80000
CONST	SEGMENT
__real@41d80000 DD 041d80000r			; 27
CONST	ENDS
;	COMDAT __real@3e2e147b
CONST	SEGMENT
__real@3e2e147b DD 03e2e147br			; 0.17
CONST	ENDS
;	COMDAT __real@3d8f5c29
CONST	SEGMENT
__real@3d8f5c29 DD 03d8f5c29r			; 0.07
CONST	ENDS
;	COMDAT __real@3dcccccd
CONST	SEGMENT
__real@3dcccccd DD 03dcccccdr			; 0.1
CONST	ENDS
;	COMDAT __real@3f4ccccd
CONST	SEGMENT
__real@3f4ccccd DD 03f4ccccdr			; 0.8
CONST	ENDS
;	COMDAT __real@4059999a
CONST	SEGMENT
__real@4059999a DD 04059999ar			; 3.4
CONST	ENDS
;	COMDAT __real@c059999a
CONST	SEGMENT
__real@c059999a DD 0c059999ar			; -3.4
CONST	ENDS
;	COMDAT __real@41b80000
CONST	SEGMENT
__real@41b80000 DD 041b80000r			; 23
CONST	ENDS
;	COMDAT __real@40200000
CONST	SEGMENT
__real@40200000 DD 040200000r			; 2.5
CONST	ENDS
;	COMDAT __real@3da3d70a
CONST	SEGMENT
__real@3da3d70a DD 03da3d70ar			; 0.08
CONST	ENDS
;	COMDAT __real@3ff33333
CONST	SEGMENT
__real@3ff33333 DD 03ff33333r			; 1.9
CONST	ENDS
;	COMDAT __real@40133333
CONST	SEGMENT
__real@40133333 DD 040133333r			; 2.3
CONST	ENDS
;	COMDAT __real@40d00000
CONST	SEGMENT
__real@40d00000 DD 040d00000r			; 6.5
CONST	ENDS
;	COMDAT __real@41b00000
CONST	SEGMENT
__real@41b00000 DD 041b00000r			; 22
CONST	ENDS
;	COMDAT __real@3eb33333
CONST	SEGMENT
__real@3eb33333 DD 03eb33333r			; 0.35
CONST	ENDS
;	COMDAT __real@3f59999a
CONST	SEGMENT
__real@3f59999a DD 03f59999ar			; 0.85
CONST	ENDS
;	COMDAT __real@3f400000
CONST	SEGMENT
__real@3f400000 DD 03f400000r			; 0.75
CONST	ENDS
;	COMDAT __real@408ccccd
CONST	SEGMENT
__real@408ccccd DD 0408ccccdr			; 4.4
CONST	ENDS
;	COMDAT __real@3f19999a
CONST	SEGMENT
__real@3f19999a DD 03f19999ar			; 0.6
CONST	ENDS
;	COMDAT __real@3ecccccd
CONST	SEGMENT
__real@3ecccccd DD 03ecccccdr			; 0.4
CONST	ENDS
;	COMDAT __real@3fe66666
CONST	SEGMENT
__real@3fe66666 DD 03fe66666r			; 1.8
; Function compile flags: /Odtp /RTCsu
CONST	ENDS
_TEXT	SEGMENT
maxx$ = 128
maxy$ = 132
pc$ = 136
x$ = 140
y$ = 144
index$5261 = 148
tv87 = 152
tv140 = 160
tv161 = 168
tv182 = 176
tv203 = 184
tv224 = 192
tv245 = 200
tv266 = 208
tv287 = 216
tv308 = 224
tv329 = 232
tv350 = 240
tv371 = 248
tv392 = 256
tv413 = 264
tv434 = 272
tv455 = 280
tv503 = 288
?Scene_InitScene@@YAXXZ PROC				; Scene_InitScene
; Line 218
$LN9:
	push	rdi
	sub	rsp, 304				; 00000130H
	mov	rdi, rsp
	mov	ecx, 76					; 0000004cH
	mov	eax, -858993460				; ccccccccH
	rep stosd
; Line 219
	call	?Scene_Create@@YAPEAUScene@@XZ		; Scene_Create
	mov	QWORD PTR ?m_Scene@@3PEAUScene@@EA, rax	; m_Scene
; Line 222
	mov	DWORD PTR maxy$[rsp], 0
	mov	eax, DWORD PTR maxy$[rsp]
	mov	DWORD PTR maxx$[rsp], eax
; Line 225
	mov	ecx, 4800				; 000012c0H
	call	malloc
	mov	rcx, QWORD PTR ?m_Scene@@3PEAUScene@@EA	; m_Scene
	mov	QWORD PTR [rcx+8], rax
; Line 226
	mov	DWORD PTR pc$[rsp], 0
; Line 228
	movsxd	rax, DWORD PTR pc$[rsp]
	imul	rax, 96					; 00000060H
	mov	rcx, QWORD PTR ?m_Scene@@3PEAUScene@@EA	; m_Scene
	add	rax, QWORD PTR [rcx+8]
	mov	QWORD PTR tv87[rsp], rax
	mov	eax, DWORD PTR pc$[rsp]
	inc	eax
	mov	DWORD PTR pc$[rsp], eax
	mov	BYTE PTR [rsp+112], 0
	movss	xmm0, DWORD PTR __real@3fe66666
	movss	DWORD PTR [rsp+104], xmm0
	movss	xmm0, DWORD PTR __real@3ecccccd
	movss	DWORD PTR [rsp+96], xmm0
	xorps	xmm0, xmm0
	movss	DWORD PTR [rsp+88], xmm0
	xorps	xmm0, xmm0
	movss	DWORD PTR [rsp+80], xmm0
	xorps	xmm0, xmm0
	movss	DWORD PTR [rsp+72], xmm0
	movss	xmm0, DWORD PTR __real@3f19999a
	movss	DWORD PTR [rsp+64], xmm0
	movss	xmm0, DWORD PTR __real@3f19999a
	movss	DWORD PTR [rsp+56], xmm0
	movss	xmm0, DWORD PTR __real@3f19999a
	movss	DWORD PTR [rsp+48], xmm0
	movss	xmm0, DWORD PTR __real@408ccccd
	movss	DWORD PTR [rsp+40], xmm0
	xorps	xmm0, xmm0
	movss	DWORD PTR [rsp+32], xmm0
	movss	xmm3, DWORD PTR __real@3f400000
	xorps	xmm2, xmm2
	mov	edx, 2
	mov	rcx, QWORD PTR tv87[rsp]
	call	?Primitive_Create@@YAXPEAUPrimitive@@W4PRIMTYPE@@MMMMMMMMMMMM_N@Z ; Primitive_Create
; Line 230
	movsxd	rax, DWORD PTR pc$[rsp]
	imul	rax, 96					; 00000060H
	mov	rcx, QWORD PTR ?m_Scene@@3PEAUScene@@EA	; m_Scene
	add	rax, QWORD PTR [rcx+8]
	mov	QWORD PTR tv140[rsp], rax
	mov	eax, DWORD PTR pc$[rsp]
	inc	eax
	mov	DWORD PTR pc$[rsp], eax
	mov	BYTE PTR [rsp+112], 1
	movss	xmm0, DWORD PTR __real@3f800000
	movss	DWORD PTR [rsp+104], xmm0
	movss	xmm0, DWORD PTR __real@3f800000
	movss	DWORD PTR [rsp+96], xmm0
	xorps	xmm0, xmm0
	movss	DWORD PTR [rsp+88], xmm0
	xorps	xmm0, xmm0
	movss	DWORD PTR [rsp+80], xmm0
	xorps	xmm0, xmm0
	movss	DWORD PTR [rsp+72], xmm0
	movss	xmm0, DWORD PTR __real@3f59999a
	movss	DWORD PTR [rsp+64], xmm0
	movss	xmm0, DWORD PTR __real@3f59999a
	movss	DWORD PTR [rsp+56], xmm0
	movss	xmm0, DWORD PTR __real@3f59999a
	movss	DWORD PTR [rsp+48], xmm0
	movss	xmm0, DWORD PTR __real@3eb33333
	movss	DWORD PTR [rsp+40], xmm0
	movss	xmm0, DWORD PTR __real@41b00000
	movss	DWORD PTR [rsp+32], xmm0
	movss	xmm3, DWORD PTR __real@40d00000
	xorps	xmm2, xmm2
	mov	edx, 1
	mov	rcx, QWORD PTR tv140[rsp]
	call	?Primitive_Create@@YAXPEAUPrimitive@@W4PRIMTYPE@@MMMMMMMMMMMM_N@Z ; Primitive_Create
; Line 232
	movsxd	rax, DWORD PTR pc$[rsp]
	imul	rax, 96					; 00000060H
	mov	rcx, QWORD PTR ?m_Scene@@3PEAUScene@@EA	; m_Scene
	add	rax, QWORD PTR [rcx+8]
	mov	QWORD PTR tv161[rsp], rax
	mov	eax, DWORD PTR pc$[rsp]
	inc	eax
	mov	DWORD PTR pc$[rsp], eax
	mov	BYTE PTR [rsp+112], 0
	xorps	xmm0, xmm0
	movss	DWORD PTR [rsp+104], xmm0
	xorps	xmm0, xmm0
	movss	DWORD PTR [rsp+96], xmm0
	movss	xmm0, DWORD PTR __real@40133333
	movss	DWORD PTR [rsp+88], xmm0
	movss	xmm0, DWORD PTR __real@3f800000
	movss	DWORD PTR [rsp+80], xmm0
	movss	xmm0, DWORD PTR __real@3ff33333
	movss	DWORD PTR [rsp+72], xmm0
	movss	xmm0, DWORD PTR __real@3da3d70a
	movss	DWORD PTR [rsp+64], xmm0
	movss	xmm0, DWORD PTR __real@3da3d70a
	movss	DWORD PTR [rsp+56], xmm0
	movss	xmm0, DWORD PTR __real@3da3d70a
	movss	DWORD PTR [rsp+48], xmm0
	movss	xmm0, DWORD PTR __real@40200000
	movss	DWORD PTR [rsp+40], xmm0
	movss	xmm0, DWORD PTR __real@41b80000
	movss	DWORD PTR [rsp+32], xmm0
	movss	xmm3, DWORD PTR __real@c059999a
	movss	xmm2, DWORD PTR __real@4059999a
	mov	edx, 1
	mov	rcx, QWORD PTR tv161[rsp]
	call	?Primitive_Create@@YAXPEAUPrimitive@@W4PRIMTYPE@@MMMMMMMMMMMM_N@Z ; Primitive_Create
; Line 235
	movsxd	rax, DWORD PTR pc$[rsp]
	imul	rax, 96					; 00000060H
	mov	rcx, QWORD PTR ?m_Scene@@3PEAUScene@@EA	; m_Scene
	add	rax, QWORD PTR [rcx+8]
	mov	QWORD PTR tv182[rsp], rax
	mov	eax, DWORD PTR pc$[rsp]
	inc	eax
	mov	DWORD PTR pc$[rsp], eax
	mov	BYTE PTR [rsp+112], 0
	movss	xmm0, DWORD PTR __real@3f4ccccd
	movss	DWORD PTR [rsp+104], xmm0
	movss	xmm0, DWORD PTR __real@3e4ccccd
	movss	DWORD PTR [rsp+96], xmm0
	movss	xmm0, DWORD PTR __real@40133333
	movss	DWORD PTR [rsp+88], xmm0
	movss	xmm0, DWORD PTR __real@3fc00000
	movss	DWORD PTR [rsp+80], xmm0
	movss	xmm0, DWORD PTR __real@3dcccccd
	movss	DWORD PTR [rsp+72], xmm0
	movss	xmm0, DWORD PTR __real@3d8f5c29
	movss	DWORD PTR [rsp+64], xmm0
	movss	xmm0, DWORD PTR __real@3e2e147b
	movss	DWORD PTR [rsp+56], xmm0
	movss	xmm0, DWORD PTR __real@3d8f5c29
	movss	DWORD PTR [rsp+48], xmm0
	movss	xmm0, DWORD PTR __real@3f800000
	movss	DWORD PTR [rsp+40], xmm0
	movss	xmm0, DWORD PTR __real@41d80000
	movss	DWORD PTR [rsp+32], xmm0
	movss	xmm3, DWORD PTR __real@c09ccccd
	movss	xmm2, DWORD PTR __real@bf333333
	mov	edx, 1
	mov	rcx, QWORD PTR tv182[rsp]
	call	?Primitive_Create@@YAXPEAUPrimitive@@W4PRIMTYPE@@MMMMMMMMMMMM_N@Z ; Primitive_Create
; Line 237
	movsxd	rax, DWORD PTR pc$[rsp]
	imul	rax, 96					; 00000060H
	mov	rcx, QWORD PTR ?m_Scene@@3PEAUScene@@EA	; m_Scene
	add	rax, QWORD PTR [rcx+8]
	mov	QWORD PTR tv203[rsp], rax
	mov	eax, DWORD PTR pc$[rsp]
	inc	eax
	mov	DWORD PTR pc$[rsp], eax
	mov	BYTE PTR [rsp+112], 0
	xorps	xmm0, xmm0
	movss	DWORD PTR [rsp+104], xmm0
	xorps	xmm0, xmm0
	movss	DWORD PTR [rsp+96], xmm0
	xorps	xmm0, xmm0
	movss	DWORD PTR [rsp+88], xmm0
	xorps	xmm0, xmm0
	movss	DWORD PTR [rsp+80], xmm0
	movss	xmm0, DWORD PTR __real@3f4ccccd
	movss	DWORD PTR [rsp+72], xmm0
	movss	xmm0, DWORD PTR __real@3f800000
	movss	DWORD PTR [rsp+64], xmm0
	movss	xmm0, DWORD PTR __real@3f800000
	movss	DWORD PTR [rsp+56], xmm0
	movss	xmm0, DWORD PTR __real@3f800000
	movss	DWORD PTR [rsp+48], xmm0
	movss	xmm0, DWORD PTR __real@40200000
	movss	DWORD PTR [rsp+40], xmm0
	movss	xmm0, DWORD PTR __real@41e80000
	movss	DWORD PTR [rsp+32], xmm0
	movss	xmm3, DWORD PTR __real@c059999a
	movss	xmm2, DWORD PTR __real@c059999a
	mov	edx, 1
	mov	rcx, QWORD PTR tv203[rsp]
	call	?Primitive_Create@@YAXPEAUPrimitive@@W4PRIMTYPE@@MMMMMMMMMMMM_N@Z ; Primitive_Create
; Line 239
	movsxd	rax, DWORD PTR pc$[rsp]
	imul	rax, 96					; 00000060H
	mov	rcx, QWORD PTR ?m_Scene@@3PEAUScene@@EA	; m_Scene
	add	rax, QWORD PTR [rcx+8]
	mov	QWORD PTR tv224[rsp], rax
	mov	eax, DWORD PTR pc$[rsp]
	inc	eax
	mov	DWORD PTR pc$[rsp], eax
	mov	BYTE PTR [rsp+112], 0
	movss	xmm0, DWORD PTR __real@3e4ccccd
	movss	DWORD PTR [rsp+104], xmm0
	movss	xmm0, DWORD PTR __real@3e4ccccd
	movss	DWORD PTR [rsp+96], xmm0
	xorps	xmm0, xmm0
	movss	DWORD PTR [rsp+88], xmm0
	xorps	xmm0, xmm0
	movss	DWORD PTR [rsp+80], xmm0
	movss	xmm0, DWORD PTR __real@3dcccccd
	movss	DWORD PTR [rsp+72], xmm0
	movss	xmm0, DWORD PTR __real@3f333333
	movss	DWORD PTR [rsp+64], xmm0
	movss	xmm0, DWORD PTR __real@3f333333
	movss	DWORD PTR [rsp+56], xmm0
	movss	xmm0, DWORD PTR __real@3fc00000
	movss	DWORD PTR [rsp+48], xmm0
	movss	xmm0, DWORD PTR __real@3fc00000
	movss	DWORD PTR [rsp+40], xmm0
	movss	xmm0, DWORD PTR __real@41e80000
	movss	DWORD PTR [rsp+32], xmm0
	movss	xmm3, DWORD PTR __real@c0833333
	movss	xmm2, DWORD PTR __real@3f000000
	mov	edx, 1
	mov	rcx, QWORD PTR tv224[rsp]
	call	?Primitive_Create@@YAXPEAUPrimitive@@W4PRIMTYPE@@MMMMMMMMMMMM_N@Z ; Primitive_Create
; Line 241
	movsxd	rax, DWORD PTR pc$[rsp]
	imul	rax, 96					; 00000060H
	mov	rcx, QWORD PTR ?m_Scene@@3PEAUScene@@EA	; m_Scene
	add	rax, QWORD PTR [rcx+8]
	mov	QWORD PTR tv245[rsp], rax
	mov	eax, DWORD PTR pc$[rsp]
	inc	eax
	mov	DWORD PTR pc$[rsp], eax
	mov	BYTE PTR [rsp+112], 0
	movss	xmm0, DWORD PTR __real@3e4ccccd
	movss	DWORD PTR [rsp+104], xmm0
	movss	xmm0, DWORD PTR __real@3e4ccccd
	movss	DWORD PTR [rsp+96], xmm0
	xorps	xmm0, xmm0
	movss	DWORD PTR [rsp+88], xmm0
	xorps	xmm0, xmm0
	movss	DWORD PTR [rsp+80], xmm0
	movss	xmm0, DWORD PTR __real@3e4ccccd
	movss	DWORD PTR [rsp+72], xmm0
	movss	xmm0, DWORD PTR __real@3fd9999a
	movss	DWORD PTR [rsp+64], xmm0
	movss	xmm0, DWORD PTR __real@3f333333
	movss	DWORD PTR [rsp+56], xmm0
	movss	xmm0, DWORD PTR __real@3f333333
	movss	DWORD PTR [rsp+48], xmm0
	movss	xmm0, DWORD PTR __real@3fc00000
	movss	DWORD PTR [rsp+40], xmm0
	movss	xmm0, DWORD PTR __real@42000000
	movss	DWORD PTR [rsp+32], xmm0
	movss	xmm3, DWORD PTR __real@c0833333
	movss	xmm2, DWORD PTR __real@c0c00000
	mov	edx, 1
	mov	rcx, QWORD PTR tv245[rsp]
	call	?Primitive_Create@@YAXPEAUPrimitive@@W4PRIMTYPE@@MMMMMMMMMMMM_N@Z ; Primitive_Create
; Line 243
	movsxd	rax, DWORD PTR pc$[rsp]
	imul	rax, 96					; 00000060H
	mov	rcx, QWORD PTR ?m_Scene@@3PEAUScene@@EA	; m_Scene
	add	rax, QWORD PTR [rcx+8]
	mov	QWORD PTR tv266[rsp], rax
	mov	eax, DWORD PTR pc$[rsp]
	inc	eax
	mov	DWORD PTR pc$[rsp], eax
	mov	BYTE PTR [rsp+112], 0
	movss	xmm0, DWORD PTR __real@3f4ccccd
	movss	DWORD PTR [rsp+104], xmm0
	movss	xmm0, DWORD PTR __real@3e4ccccd
	movss	DWORD PTR [rsp+96], xmm0
	movss	xmm0, DWORD PTR __real@40133333
	movss	DWORD PTR [rsp+88], xmm0
	movss	xmm0, DWORD PTR __real@3fc00000
	movss	DWORD PTR [rsp+80], xmm0
	movss	xmm0, DWORD PTR __real@3dcccccd
	movss	DWORD PTR [rsp+72], xmm0
	movss	xmm0, DWORD PTR __real@3d8f5c29
	movss	DWORD PTR [rsp+64], xmm0
	movss	xmm0, DWORD PTR __real@3e2e147b
	movss	DWORD PTR [rsp+56], xmm0
	movss	xmm0, DWORD PTR __real@3d8f5c29
	movss	DWORD PTR [rsp+48], xmm0
	movss	xmm0, DWORD PTR __real@3f800000
	movss	DWORD PTR [rsp+40], xmm0
	movss	xmm0, DWORD PTR __real@41e80000
	movss	DWORD PTR [rsp+32], xmm0
	movss	xmm3, DWORD PTR __real@c09ccccd
	movss	xmm2, DWORD PTR __real@c0d66666
	mov	edx, 1
	mov	rcx, QWORD PTR tv266[rsp]
	call	?Primitive_Create@@YAXPEAUPrimitive@@W4PRIMTYPE@@MMMMMMMMMMMM_N@Z ; Primitive_Create
; Line 245
	movsxd	rax, DWORD PTR pc$[rsp]
	imul	rax, 96					; 00000060H
	mov	rcx, QWORD PTR ?m_Scene@@3PEAUScene@@EA	; m_Scene
	add	rax, QWORD PTR [rcx+8]
	mov	QWORD PTR tv287[rsp], rax
	mov	eax, DWORD PTR pc$[rsp]
	inc	eax
	mov	DWORD PTR pc$[rsp], eax
	mov	BYTE PTR [rsp+112], 0
	xorps	xmm0, xmm0
	movss	DWORD PTR [rsp+104], xmm0
	movss	xmm0, DWORD PTR __real@3fe66666
	movss	DWORD PTR [rsp+96], xmm0
	movss	xmm0, DWORD PTR __real@40266666
	movss	DWORD PTR [rsp+88], xmm0
	movss	xmm0, DWORD PTR __real@3f800000
	movss	DWORD PTR [rsp+80], xmm0
	movss	xmm0, DWORD PTR __real@3fd9999a
	movss	DWORD PTR [rsp+72], xmm0
	movss	xmm0, DWORD PTR __real@3e3851ec
	movss	DWORD PTR [rsp+64], xmm0
	movss	xmm0, DWORD PTR __real@3e3851ec
	movss	DWORD PTR [rsp+56], xmm0
	movss	xmm0, DWORD PTR __real@3e3851ec
	movss	DWORD PTR [rsp+48], xmm0
	movss	xmm0, DWORD PTR __real@3f800000
	movss	DWORD PTR [rsp+40], xmm0
	movss	xmm0, DWORD PTR __real@41900000
	movss	DWORD PTR [rsp+32], xmm0
	movss	xmm3, DWORD PTR __real@c09ccccd
	movss	xmm2, DWORD PTR __real@40cccccd
	mov	edx, 1
	mov	rcx, QWORD PTR tv287[rsp]
	call	?Primitive_Create@@YAXPEAUPrimitive@@W4PRIMTYPE@@MMMMMMMMMMMM_N@Z ; Primitive_Create
; Line 247
	movsxd	rax, DWORD PTR pc$[rsp]
	imul	rax, 96					; 00000060H
	mov	rcx, QWORD PTR ?m_Scene@@3PEAUScene@@EA	; m_Scene
	add	rax, QWORD PTR [rcx+8]
	mov	QWORD PTR tv308[rsp], rax
	mov	eax, DWORD PTR pc$[rsp]
	inc	eax
	mov	DWORD PTR pc$[rsp], eax
	mov	BYTE PTR [rsp+112], 0
	movss	xmm0, DWORD PTR __real@3fc00000
	movss	DWORD PTR [rsp+104], xmm0
	movss	xmm0, DWORD PTR __real@3f4ccccd
	movss	DWORD PTR [rsp+96], xmm0
	xorps	xmm0, xmm0
	movss	DWORD PTR [rsp+88], xmm0
	xorps	xmm0, xmm0
	movss	DWORD PTR [rsp+80], xmm0
	xorps	xmm0, xmm0
	movss	DWORD PTR [rsp+72], xmm0
	movss	xmm0, DWORD PTR __real@3f19999a
	movss	DWORD PTR [rsp+64], xmm0
	movss	xmm0, DWORD PTR __real@3f19999a
	movss	DWORD PTR [rsp+56], xmm0
	movss	xmm0, DWORD PTR __real@3f800000
	movss	DWORD PTR [rsp+48], xmm0
	movss	xmm0, DWORD PTR __real@40accccd
	movss	DWORD PTR [rsp+40], xmm0
	xorps	xmm0, xmm0
	movss	DWORD PTR [rsp+32], xmm0
	xorps	xmm3, xmm3
	movss	xmm2, DWORD PTR __real@3f333333
	mov	edx, 2
	mov	rcx, QWORD PTR tv308[rsp]
	call	?Primitive_Create@@YAXPEAUPrimitive@@W4PRIMTYPE@@MMMMMMMMMMMM_N@Z ; Primitive_Create
; Line 249
	movsxd	rax, DWORD PTR pc$[rsp]
	imul	rax, 96					; 00000060H
	mov	rcx, QWORD PTR ?m_Scene@@3PEAUScene@@EA	; m_Scene
	add	rax, QWORD PTR [rcx+8]
	mov	QWORD PTR tv329[rsp], rax
	mov	eax, DWORD PTR pc$[rsp]
	inc	eax
	mov	DWORD PTR pc$[rsp], eax
	mov	BYTE PTR [rsp+112], 0
	movss	xmm0, DWORD PTR __real@3f4ccccd
	movss	DWORD PTR [rsp+104], xmm0
	movss	xmm0, DWORD PTR __real@3f4ccccd
	movss	DWORD PTR [rsp+96], xmm0
	xorps	xmm0, xmm0
	movss	DWORD PTR [rsp+88], xmm0
	xorps	xmm0, xmm0
	movss	DWORD PTR [rsp+80], xmm0
	xorps	xmm0, xmm0
	movss	DWORD PTR [rsp+72], xmm0
	movss	xmm0, DWORD PTR __real@3f800000
	movss	DWORD PTR [rsp+64], xmm0
	movss	xmm0, DWORD PTR __real@3f19999a
	movss	DWORD PTR [rsp+56], xmm0
	movss	xmm0, DWORD PTR __real@3f333333
	movss	DWORD PTR [rsp+48], xmm0
	movss	xmm0, DWORD PTR __real@40accccd
	movss	DWORD PTR [rsp+40], xmm0
	xorps	xmm0, xmm0
	movss	DWORD PTR [rsp+32], xmm0
	xorps	xmm3, xmm3
	movss	xmm2, DWORD PTR __real@bf333333
	mov	edx, 2
	mov	rcx, QWORD PTR tv329[rsp]
	call	?Primitive_Create@@YAXPEAUPrimitive@@W4PRIMTYPE@@MMMMMMMMMMMM_N@Z ; Primitive_Create
; Line 251
	movsxd	rax, DWORD PTR pc$[rsp]
	imul	rax, 96					; 00000060H
	mov	rcx, QWORD PTR ?m_Scene@@3PEAUScene@@EA	; m_Scene
	add	rax, QWORD PTR [rcx+8]
	mov	QWORD PTR tv350[rsp], rax
	mov	eax, DWORD PTR pc$[rsp]
	inc	eax
	mov	DWORD PTR pc$[rsp], eax
	mov	BYTE PTR [rsp+112], 0
	movss	xmm0, DWORD PTR __real@3f4ccccd
	movss	DWORD PTR [rsp+104], xmm0
	movss	xmm0, DWORD PTR __real@3f99999a
	movss	DWORD PTR [rsp+96], xmm0
	xorps	xmm0, xmm0
	movss	DWORD PTR [rsp+88], xmm0
	xorps	xmm0, xmm0
	movss	DWORD PTR [rsp+80], xmm0
	xorps	xmm0, xmm0
	movss	DWORD PTR [rsp+72], xmm0
	movss	xmm0, DWORD PTR __real@3f800000
	movss	DWORD PTR [rsp+64], xmm0
	movss	xmm0, DWORD PTR __real@3f800000
	movss	DWORD PTR [rsp+56], xmm0
	movss	xmm0, DWORD PTR __real@3f800000
	movss	DWORD PTR [rsp+48], xmm0
	movss	xmm0, DWORD PTR __real@40accccd
	movss	DWORD PTR [rsp+40], xmm0
	xorps	xmm0, xmm0
	movss	DWORD PTR [rsp+32], xmm0
	movss	xmm3, DWORD PTR __real@bf4ccccd
	xorps	xmm2, xmm2
	mov	edx, 2
	mov	rcx, QWORD PTR tv350[rsp]
	call	?Primitive_Create@@YAXPEAUPrimitive@@W4PRIMTYPE@@MMMMMMMMMMMM_N@Z ; Primitive_Create
; Line 253
	movsxd	rax, DWORD PTR pc$[rsp]
	imul	rax, 96					; 00000060H
	mov	rcx, QWORD PTR ?m_Scene@@3PEAUScene@@EA	; m_Scene
	add	rax, QWORD PTR [rcx+8]
	mov	QWORD PTR tv371[rsp], rax
	mov	eax, DWORD PTR pc$[rsp]
	inc	eax
	mov	DWORD PTR pc$[rsp], eax
	mov	BYTE PTR [rsp+112], 0
	movss	xmm0, DWORD PTR __real@3f4ccccd
	movss	DWORD PTR [rsp+104], xmm0
	movss	xmm0, DWORD PTR __real@3f99999a
	movss	DWORD PTR [rsp+96], xmm0
	xorps	xmm0, xmm0
	movss	DWORD PTR [rsp+88], xmm0
	xorps	xmm0, xmm0
	movss	DWORD PTR [rsp+80], xmm0
	xorps	xmm0, xmm0
	movss	DWORD PTR [rsp+72], xmm0
	movss	xmm0, DWORD PTR __real@40200000
	movss	DWORD PTR [rsp+64], xmm0
	movss	xmm0, DWORD PTR __real@40200000
	movss	DWORD PTR [rsp+56], xmm0
	movss	xmm0, DWORD PTR __real@40200000
	movss	DWORD PTR [rsp+48], xmm0
	movss	xmm0, DWORD PTR __real@40accccd
	movss	DWORD PTR [rsp+40], xmm0
	movss	xmm0, DWORD PTR __real@be0f5c29
	movss	DWORD PTR [rsp+32], xmm0
	xorps	xmm3, xmm3
	xorps	xmm2, xmm2
	mov	edx, 2
	mov	rcx, QWORD PTR tv371[rsp]
	call	?Primitive_Create@@YAXPEAUPrimitive@@W4PRIMTYPE@@MMMMMMMMMMMM_N@Z ; Primitive_Create
; Line 255
	movsxd	rax, DWORD PTR pc$[rsp]
	imul	rax, 96					; 00000060H
	mov	rcx, QWORD PTR ?m_Scene@@3PEAUScene@@EA	; m_Scene
	add	rax, QWORD PTR [rcx+8]
	mov	QWORD PTR tv392[rsp], rax
	mov	eax, DWORD PTR pc$[rsp]
	inc	eax
	mov	DWORD PTR pc$[rsp], eax
	mov	BYTE PTR [rsp+112], 0
	movss	xmm0, DWORD PTR __real@3f800000
	movss	DWORD PTR [rsp+104], xmm0
	movss	xmm0, DWORD PTR __real@3f800000
	movss	DWORD PTR [rsp+96], xmm0
	xorps	xmm0, xmm0
	movss	DWORD PTR [rsp+88], xmm0
	xorps	xmm0, xmm0
	movss	DWORD PTR [rsp+80], xmm0
	xorps	xmm0, xmm0
	movss	DWORD PTR [rsp+72], xmm0
	movss	xmm0, DWORD PTR __real@3dcccccd
	movss	DWORD PTR [rsp+64], xmm0
	movss	xmm0, DWORD PTR __real@3dcccccd
	movss	DWORD PTR [rsp+56], xmm0
	movss	xmm0, DWORD PTR __real@3dcccccd
	movss	DWORD PTR [rsp+48], xmm0
	movss	xmm0, DWORD PTR __real@40accccd
	movss	DWORD PTR [rsp+40], xmm0
	movss	xmm0, DWORD PTR __real@3f3851ec
	movss	DWORD PTR [rsp+32], xmm0
	xorps	xmm3, xmm3
	xorps	xmm2, xmm2
	mov	edx, 2
	mov	rcx, QWORD PTR tv392[rsp]
	call	?Primitive_Create@@YAXPEAUPrimitive@@W4PRIMTYPE@@MMMMMMMMMMMM_N@Z ; Primitive_Create
; Line 257
	movsxd	rax, DWORD PTR pc$[rsp]
	imul	rax, 96					; 00000060H
	mov	rcx, QWORD PTR ?m_Scene@@3PEAUScene@@EA	; m_Scene
	add	rax, QWORD PTR [rcx+8]
	mov	QWORD PTR tv413[rsp], rax
	mov	eax, DWORD PTR pc$[rsp]
	inc	eax
	mov	DWORD PTR pc$[rsp], eax
	mov	BYTE PTR [rsp+112], 1
	movss	xmm0, DWORD PTR __real@3fe66666
	movss	DWORD PTR [rsp+104], xmm0
	xorps	xmm0, xmm0
	movss	DWORD PTR [rsp+96], xmm0
	xorps	xmm0, xmm0
	movss	DWORD PTR [rsp+88], xmm0
	xorps	xmm0, xmm0
	movss	DWORD PTR [rsp+80], xmm0
	xorps	xmm0, xmm0
	movss	DWORD PTR [rsp+72], xmm0
	movss	xmm0, DWORD PTR __real@3f59999a
	movss	DWORD PTR [rsp+64], xmm0
	movss	xmm0, DWORD PTR __real@3f59999a
	movss	DWORD PTR [rsp+56], xmm0
	movss	xmm0, DWORD PTR __real@3f59999a
	movss	DWORD PTR [rsp+48], xmm0
	movss	xmm0, DWORD PTR __real@3eb33333
	movss	DWORD PTR [rsp+40], xmm0
	movss	xmm0, DWORD PTR __real@41b00000
	movss	DWORD PTR [rsp+32], xmm0
	movss	xmm3, DWORD PTR __real@40d00000
	movss	xmm2, DWORD PTR __real@c0400000
	mov	edx, 1
	mov	rcx, QWORD PTR tv413[rsp]
	call	?Primitive_Create@@YAXPEAUPrimitive@@W4PRIMTYPE@@MMMMMMMMMMMM_N@Z ; Primitive_Create
; Line 259
	movsxd	rax, DWORD PTR pc$[rsp]
	imul	rax, 96					; 00000060H
	mov	rcx, QWORD PTR ?m_Scene@@3PEAUScene@@EA	; m_Scene
	add	rax, QWORD PTR [rcx+8]
	mov	QWORD PTR tv434[rsp], rax
	mov	eax, DWORD PTR pc$[rsp]
	inc	eax
	mov	DWORD PTR pc$[rsp], eax
	mov	BYTE PTR [rsp+112], 1
	movss	xmm0, DWORD PTR __real@3fe66666
	movss	DWORD PTR [rsp+104], xmm0
	xorps	xmm0, xmm0
	movss	DWORD PTR [rsp+96], xmm0
	xorps	xmm0, xmm0
	movss	DWORD PTR [rsp+88], xmm0
	xorps	xmm0, xmm0
	movss	DWORD PTR [rsp+80], xmm0
	xorps	xmm0, xmm0
	movss	DWORD PTR [rsp+72], xmm0
	movss	xmm0, DWORD PTR __real@3f59999a
	movss	DWORD PTR [rsp+64], xmm0
	movss	xmm0, DWORD PTR __real@3f59999a
	movss	DWORD PTR [rsp+56], xmm0
	movss	xmm0, DWORD PTR __real@3f59999a
	movss	DWORD PTR [rsp+48], xmm0
	movss	xmm0, DWORD PTR __real@3eb33333
	movss	DWORD PTR [rsp+40], xmm0
	movss	xmm0, DWORD PTR __real@41b00000
	movss	DWORD PTR [rsp+32], xmm0
	movss	xmm3, DWORD PTR __real@40d00000
	movss	xmm2, DWORD PTR __real@40400000
	mov	edx, 1
	mov	rcx, QWORD PTR tv434[rsp]
	call	?Primitive_Create@@YAXPEAUPrimitive@@W4PRIMTYPE@@MMMMMMMMMMMM_N@Z ; Primitive_Create
; Line 261
	movsxd	rax, DWORD PTR pc$[rsp]
	imul	rax, 96					; 00000060H
	mov	rcx, QWORD PTR ?m_Scene@@3PEAUScene@@EA	; m_Scene
	add	rax, QWORD PTR [rcx+8]
	mov	QWORD PTR tv455[rsp], rax
	mov	eax, DWORD PTR pc$[rsp]
	inc	eax
	mov	DWORD PTR pc$[rsp], eax
	mov	BYTE PTR [rsp+112], 1
	movss	xmm0, DWORD PTR __real@3fe66666
	movss	DWORD PTR [rsp+104], xmm0
	xorps	xmm0, xmm0
	movss	DWORD PTR [rsp+96], xmm0
	movss	xmm0, DWORD PTR __real@40133333
	movss	DWORD PTR [rsp+88], xmm0
	movss	xmm0, DWORD PTR __real@3f800000
	movss	DWORD PTR [rsp+80], xmm0
	movss	xmm0, DWORD PTR __real@3f800000
	movss	DWORD PTR [rsp+72], xmm0
	movss	xmm0, DWORD PTR __real@3eb33333
	movss	DWORD PTR [rsp+64], xmm0
	movss	xmm0, DWORD PTR __real@3eb33333
	movss	DWORD PTR [rsp+56], xmm0
	movss	xmm0, DWORD PTR __real@3f933333
	movss	DWORD PTR [rsp+48], xmm0
	movss	xmm0, DWORD PTR __real@3eb33333
	movss	DWORD PTR [rsp+40], xmm0
	movss	xmm0, DWORD PTR __real@41f80000
	movss	DWORD PTR [rsp+32], xmm0
	movss	xmm3, DWORD PTR __real@c0b1999a
	movss	xmm2, DWORD PTR __real@c0b9999a
	mov	edx, 1
	mov	rcx, QWORD PTR tv455[rsp]
	call	?Primitive_Create@@YAXPEAUPrimitive@@W4PRIMTYPE@@MMMMMMMMMMMM_N@Z ; Primitive_Create
; Line 263
	mov	DWORD PTR x$[rsp], 0
	mov	DWORD PTR y$[rsp], 0
; Line 264
	mov	DWORD PTR y$[rsp], 0
	jmp	SHORT $LN6@Scene_Init
$LN5@Scene_Init:
	mov	eax, DWORD PTR y$[rsp]
	inc	eax
	mov	DWORD PTR y$[rsp], eax
$LN6@Scene_Init:
	mov	eax, DWORD PTR maxy$[rsp]
	cmp	DWORD PTR y$[rsp], eax
	jge	$LN4@Scene_Init
; Line 265
	mov	DWORD PTR x$[rsp], 0
	jmp	SHORT $LN3@Scene_Init
$LN2@Scene_Init:
	mov	eax, DWORD PTR x$[rsp]
	inc	eax
	mov	DWORD PTR x$[rsp], eax
$LN3@Scene_Init:
	mov	eax, DWORD PTR maxx$[rsp]
	cmp	DWORD PTR x$[rsp], eax
	jge	$LN1@Scene_Init
; Line 266
	mov	eax, DWORD PTR y$[rsp]
	imul	eax, DWORD PTR maxx$[rsp]
	mov	ecx, DWORD PTR x$[rsp]
	lea	eax, DWORD PTR [rcx+rax+5]
	mov	DWORD PTR index$5261[rsp], eax
; Line 268
	movsxd	rax, DWORD PTR pc$[rsp]
	imul	rax, 96					; 00000060H
	mov	rcx, QWORD PTR ?m_Scene@@3PEAUScene@@EA	; m_Scene
	add	rax, QWORD PTR [rcx+8]
	mov	QWORD PTR tv503[rsp], rax
	mov	eax, DWORD PTR pc$[rsp]
	inc	eax
	mov	DWORD PTR pc$[rsp], eax
	movd	xmm0, DWORD PTR y$[rsp]
	cvtdq2ps xmm0, xmm0
	movss	xmm1, DWORD PTR __real@3c23d70a
	mulss	xmm1, xmm0
	movaps	xmm0, xmm1
	movss	xmm1, DWORD PTR __real@3f000000
	addss	xmm1, xmm0
	movaps	xmm0, xmm1
	movd	xmm1, DWORD PTR y$[rsp]
	cvtdq2ps xmm1, xmm1
	movss	xmm2, DWORD PTR __real@3d4ccccd
	mulss	xmm2, xmm1
	movaps	xmm1, xmm2
	movd	xmm2, DWORD PTR x$[rsp]
	cvtdq2ps xmm2, xmm2
	movss	xmm3, DWORD PTR __real@3ca3d70a
	mulss	xmm3, xmm2
	movaps	xmm2, xmm3
	movss	xmm3, DWORD PTR __real@40266666
	subss	xmm3, xmm2
	movaps	xmm2, xmm3
	addss	xmm2, xmm1
	movaps	xmm1, xmm2
	movd	xmm2, DWORD PTR x$[rsp]
	cvtdq2ps xmm2, xmm2
	movss	xmm3, DWORD PTR __real@3e99999a
	mulss	xmm3, xmm2
	movaps	xmm2, xmm3
	movss	xmm3, DWORD PTR __real@3f4ccccd
	addss	xmm3, xmm2
	movaps	xmm2, xmm3
	movd	xmm3, DWORD PTR y$[rsp]
	cvtdq2ps xmm3, xmm3
	mulss	xmm3, DWORD PTR __real@3f800000
	movss	xmm4, DWORD PTR __real@41200000
	subss	xmm4, xmm3
	movaps	xmm3, xmm4
	movd	xmm4, DWORD PTR x$[rsp]
	cvtdq2ps xmm4, xmm4
	mulss	xmm4, DWORD PTR __real@3f800000
	movss	xmm5, DWORD PTR __real@c1700000
	addss	xmm5, xmm4
	movaps	xmm4, xmm5
	mov	BYTE PTR [rsp+112], 0
	movss	xmm5, DWORD PTR __real@3dcccccd
	movss	DWORD PTR [rsp+104], xmm5
	movss	xmm5, DWORD PTR __real@3dcccccd
	movss	DWORD PTR [rsp+96], xmm5
	movss	xmm5, DWORD PTR __real@3fc00000
	movss	DWORD PTR [rsp+88], xmm5
	xorps	xmm5, xmm5
	movss	DWORD PTR [rsp+80], xmm5
	xorps	xmm5, xmm5
	movss	DWORD PTR [rsp+72], xmm5
	movss	DWORD PTR [rsp+64], xmm0
	movss	DWORD PTR [rsp+56], xmm1
	movss	DWORD PTR [rsp+48], xmm2
	movss	xmm0, DWORD PTR __real@3f000000
	movss	DWORD PTR [rsp+40], xmm0
	movss	xmm0, DWORD PTR __real@41b80000
	movss	DWORD PTR [rsp+32], xmm0
	movaps	xmm2, xmm4
	mov	edx, 1
	mov	rcx, QWORD PTR tv503[rsp]
	call	?Primitive_Create@@YAXPEAUPrimitive@@W4PRIMTYPE@@MMMMMMMMMMMM_N@Z ; Primitive_Create
; Line 269
	jmp	$LN2@Scene_Init
$LN1@Scene_Init:
; Line 270
	jmp	$LN5@Scene_Init
$LN4@Scene_Init:
; Line 271
	mov	eax, DWORD PTR maxx$[rsp]
	imul	eax, DWORD PTR maxy$[rsp]
	mov	ecx, DWORD PTR pc$[rsp]
	add	ecx, eax
	mov	eax, ecx
	mov	rcx, QWORD PTR ?m_Scene@@3PEAUScene@@EA	; m_Scene
	mov	DWORD PTR [rcx], eax
; Line 272
	add	rsp, 304				; 00000130H
	pop	rdi
	ret	0
?Scene_InitScene@@YAXXZ ENDP				; Scene_InitScene
_TEXT	ENDS
END
