; Listing generated by Microsoft (R) Optimizing Compiler Version 16.00.30319.01 

include listing.inc

INCLUDELIB MSVCRTD
INCLUDELIB OLDNAMES

PUBLIC	?workGroupSize@@3HA				; workGroupSize
CONST	SEGMENT
$SG8507	DB	'Rendering time %.3f sec (pass %d)  Sample/sec  %.1fK', 0aH
	DB	00H
	ORG $+2
$SG8531	DB	'SmallPT CPU V1.6 (Written by David Bucciarelli)', 00H
CONST	ENDS
_DATA	SEGMENT
CornellSpheres DD 0461c4000r			; 10000
	DD	0461c4400r			; 10001
	DD	042233333r			; 40.8
	DD	042a33333r			; 81.6
	DD	000000000r			; 0
	DD	000000000r			; 0
	DD	000000000r			; 0
	DD	03f400000r			; 0.75
	DD	03e800000r			; 0.25
	DD	03e800000r			; 0.25
	DD	00H
	DD	0461c4000r			; 10000
	DD	0c61ab400r			; -9901
	DD	042233333r			; 40.8
	DD	042a33333r			; 81.6
	DD	000000000r			; 0
	DD	000000000r			; 0
	DD	000000000r			; 0
	DD	03e800000r			; 0.25
	DD	03e800000r			; 0.25
	DD	03f400000r			; 0.75
	DD	00H
	DD	0461c4000r			; 10000
	DD	042480000r			; 50
	DD	042233333r			; 40.8
	DD	0461c4000r			; 10000
	DD	000000000r			; 0
	DD	000000000r			; 0
	DD	000000000r			; 0
	DD	03f400000r			; 0.75
	DD	03f400000r			; 0.75
	DD	03f400000r			; 0.75
	DD	00H
	DD	0461c4000r			; 10000
	DD	042480000r			; 50
	DD	042233333r			; 40.8
	DD	0c6180800r			; -9730
	DD	000000000r			; 0
	DD	000000000r			; 0
	DD	000000000r			; 0
	DD	000000000r			; 0
	DD	000000000r			; 0
	DD	000000000r			; 0
	DD	00H
	DD	0461c4000r			; 10000
	DD	042480000r			; 50
	DD	0461c4000r			; 10000
	DD	042a33333r			; 81.6
	DD	000000000r			; 0
	DD	000000000r			; 0
	DD	000000000r			; 0
	DD	03f400000r			; 0.75
	DD	03f400000r			; 0.75
	DD	03f400000r			; 0.75
	DD	00H
	DD	0461c4000r			; 10000
	DD	042480000r			; 50
	DD	0c61af99ar			; -9918.4
	DD	042a33333r			; 81.6
	DD	000000000r			; 0
	DD	000000000r			; 0
	DD	000000000r			; 0
	DD	03f400000r			; 0.75
	DD	03f400000r			; 0.75
	DD	03f400000r			; 0.75
	DD	00H
	DD	041840000r			; 16.5
	DD	041d80000r			; 27
	DD	041840000r			; 16.5
	DD	0423c0000r			; 47
	DD	000000000r			; 0
	DD	000000000r			; 0
	DD	000000000r			; 0
	DD	03f666666r			; 0.9
	DD	03f666666r			; 0.9
	DD	03f666666r			; 0.9
	DD	01H
	DD	041840000r			; 16.5
	DD	042920000r			; 73
	DD	041840000r			; 16.5
	DD	0429c0000r			; 78
	DD	000000000r			; 0
	DD	000000000r			; 0
	DD	000000000r			; 0
	DD	03f666666r			; 0.9
	DD	03f666666r			; 0.9
	DD	03f666666r			; 0.9
	DD	02H
	DD	040e00000r			; 7
	DD	042480000r			; 50
	DD	042853333r			; 66.6
	DD	042a33333r			; 81.6
	DD	041400000r			; 12
	DD	041400000r			; 12
	DD	041400000r			; 12
	DD	000000000r			; 0
	DD	000000000r			; 0
	DD	000000000r			; 0
	DD	00H
?workGroupSize@@3HA DD 01H				; workGroupSize
_DATA	ENDS
PUBLIC	?FreeBuffers@@YAXXZ				; FreeBuffers
EXTRN	?pixels@@3PEAIEA:QWORD				; pixels
EXTRN	__imp_free:PROC
EXTRN	_RTC_Shutdown:PROC
EXTRN	_RTC_InitBase:PROC
_BSS	SEGMENT
colors	DQ	01H DUP (?)
seeds	DQ	01H DUP (?)
_BSS	ENDS
pdata	SEGMENT
$pdata$?FreeBuffers@@YAXXZ DD imagerel $LN3
	DD	imagerel $LN3+66
	DD	imagerel $unwind$?FreeBuffers@@YAXXZ
pdata	ENDS
xdata	SEGMENT
$unwind$?FreeBuffers@@YAXXZ DD 021501H
	DD	070023206H
xdata	ENDS
;	COMDAT rtc$TMZ
; File c:\users\mark\documents\smallptgpu-v1.6\smallptcpu.cpp
rtc$TMZ	SEGMENT
_RTC_Shutdown.rtc$TMZ DQ FLAT:_RTC_Shutdown
rtc$TMZ	ENDS
;	COMDAT rtc$IMZ
rtc$IMZ	SEGMENT
_RTC_InitBase.rtc$IMZ DQ FLAT:_RTC_InitBase
; Function compile flags: /Odtp /RTCsu
rtc$IMZ	ENDS
_TEXT	SEGMENT
?FreeBuffers@@YAXXZ PROC				; FreeBuffers
; Line 53
$LN3:
	push	rdi
	sub	rsp, 32					; 00000020H
	mov	rdi, rsp
	mov	ecx, 8
	mov	eax, -858993460				; ccccccccH
	rep stosd
; Line 54
	mov	rcx, QWORD PTR seeds
	call	QWORD PTR __imp_free
; Line 55
	mov	rcx, QWORD PTR colors
	call	QWORD PTR __imp_free
; Line 56
	mov	rcx, QWORD PTR ?pixels@@3PEAIEA		; pixels
	call	QWORD PTR __imp_free
; Line 57
	add	rsp, 32					; 00000020H
	pop	rdi
	ret	0
?FreeBuffers@@YAXXZ ENDP				; FreeBuffers
_TEXT	ENDS
PUBLIC	?AllocateBuffers@@YAXXZ				; AllocateBuffers
EXTRN	__imp_rand:PROC
EXTRN	__imp_malloc:PROC
EXTRN	?width@@3HA:DWORD				; width
EXTRN	?height@@3HA:DWORD				; height
pdata	SEGMENT
$pdata$?AllocateBuffers@@YAXXZ DD imagerel $LN7
	DD	imagerel $LN7+212
	DD	imagerel $unwind$?AllocateBuffers@@YAXXZ
pdata	ENDS
xdata	SEGMENT
$unwind$?AllocateBuffers@@YAXXZ DD 021501H
	DD	070025206H
; Function compile flags: /Odtp /RTCsu
xdata	ENDS
_TEXT	SEGMENT
pixelCount$ = 32
i$ = 36
?AllocateBuffers@@YAXXZ PROC				; AllocateBuffers
; Line 59
$LN7:
	push	rdi
	sub	rsp, 48					; 00000030H
	mov	rdi, rsp
	mov	ecx, 12
	mov	eax, -858993460				; ccccccccH
	rep stosd
; Line 60
	mov	eax, DWORD PTR ?height@@3HA		; height
	imul	eax, DWORD PTR ?width@@3HA		; width
	mov	DWORD PTR pixelCount$[rsp], eax
; Line 63
	movsxd	rax, DWORD PTR pixelCount$[rsp]
	imul	rax, 12
	mov	rcx, rax
	call	QWORD PTR __imp_malloc
	mov	QWORD PTR colors, rax
; Line 65
	movsxd	rax, DWORD PTR pixelCount$[rsp]
	shl	rax, 2
	shl	rax, 1
	mov	rcx, rax
	call	QWORD PTR __imp_malloc
	mov	QWORD PTR seeds, rax
; Line 67
	mov	DWORD PTR i$[rsp], 0
	jmp	SHORT $LN4@AllocateBu
$LN3@AllocateBu:
	mov	eax, DWORD PTR i$[rsp]
	inc	eax
	mov	DWORD PTR i$[rsp], eax
$LN4@AllocateBu:
	cmp	DWORD PTR i$[rsp], 614400		; 00096000H
	jge	SHORT $LN2@AllocateBu
; Line 68
	call	QWORD PTR __imp_rand
	movsxd	rcx, DWORD PTR i$[rsp]
	mov	rdx, QWORD PTR seeds
	mov	DWORD PTR [rdx+rcx*4], eax
; Line 69
	movsxd	rax, DWORD PTR i$[rsp]
	mov	rcx, QWORD PTR seeds
	cmp	DWORD PTR [rcx+rax*4], 2
	jae	SHORT $LN1@AllocateBu
; Line 70
	movsxd	rax, DWORD PTR i$[rsp]
	mov	rcx, QWORD PTR seeds
	mov	DWORD PTR [rcx+rax*4], 2
$LN1@AllocateBu:
; Line 71
	jmp	SHORT $LN3@AllocateBu
$LN2@AllocateBu:
; Line 74
	movsxd	rax, DWORD PTR pixelCount$[rsp]
	shl	rax, 2
	mov	rcx, rax
	call	QWORD PTR __imp_malloc
	mov	QWORD PTR ?pixels@@3PEAIEA, rax		; pixels
; Line 75
	add	rsp, 48					; 00000030H
	pop	rdi
	ret	0
?AllocateBuffers@@YAXXZ ENDP				; AllocateBuffers
_TEXT	ENDS
PUBLIC	__real@447a0000
PUBLIC	__real@437f0000
PUBLIC	?pow@@YAMMM@Z					; pow
PUBLIC	__real@3ee8ba2e
PUBLIC	?sqrt@@YAMM@Z					; sqrt
PUBLIC	__real@3dcccccd
PUBLIC	__real@3f000000
PUBLIC	__real@3f800000
PUBLIC	__$ArrayPad$
PUBLIC	?UpdateRenderingCPU@@YAXXZ			; UpdateRenderingCPU
EXTRN	__GSHandlerCheck:PROC
EXTRN	__imp_sprintf:PROC
EXTRN	?captionBuffer@@3PADA:BYTE			; captionBuffer
EXTRN	?currentSample@@3HA:DWORD			; currentSample
EXTRN	?spheres@@3PEAUSphere@@EA:QWORD			; spheres
EXTRN	?sphereCount@@3IA:DWORD				; sphereCount
EXTRN	?camera@@3UCamera@@A:BYTE			; camera
EXTRN	?WallClockTime@@YANXZ:PROC			; WallClockTime
EXTRN	__security_cookie:QWORD
EXTRN	_fltused:DWORD
EXTRN	__security_check_cookie:PROC
EXTRN	_RTC_CheckStackVars:PROC
pdata	SEGMENT
$pdata$?UpdateRenderingCPU@@YAXXZ DD imagerel $LN23
	DD	imagerel $LN23+2161
	DD	imagerel $unwind$?UpdateRenderingCPU@@YAXXZ
pdata	ENDS
xdata	SEGMENT
$unwind$?UpdateRenderingCPU@@YAXXZ DD 042b19H
	DD	02d010aH
	DD	060027003H
	DD	imagerel __GSHandlerCheck
	DD	0150H
xdata	ENDS
;	COMDAT __real@447a0000
CONST	SEGMENT
__real@447a0000 DD 0447a0000r			; 1000
CONST	ENDS
;	COMDAT __real@437f0000
CONST	SEGMENT
__real@437f0000 DD 0437f0000r			; 255
CONST	ENDS
;	COMDAT __real@3ee8ba2e
CONST	SEGMENT
__real@3ee8ba2e DD 03ee8ba2er			; 0.454545
CONST	ENDS
;	COMDAT __real@3dcccccd
CONST	SEGMENT
__real@3dcccccd DD 03dcccccdr			; 0.1
CONST	ENDS
;	COMDAT __real@3f000000
CONST	SEGMENT
__real@3f000000 DD 03f000000r			; 0.5
CONST	ENDS
;	COMDAT __real@3f800000
CONST	SEGMENT
__real@3f800000 DD 03f800000r			; 1
CONST	ENDS
CONST	SEGMENT
?UpdateRenderingCPU@@YAXXZ$rtcName$0 DB 072H		; UpdateRenderingCPU
	DB	064H
	DB	069H
	DB	072H
	DB	00H
	ORG $+3
?UpdateRenderingCPU@@YAXXZ$rtcName$1 DB 072H		; UpdateRenderingCPU
	DB	06fH
	DB	072H
	DB	069H
	DB	067H
	DB	00H
	ORG $+2
?UpdateRenderingCPU@@YAXXZ$rtcName$2 DB 072H		; UpdateRenderingCPU
	DB	061H
	DB	079H
	DB	00H
?UpdateRenderingCPU@@YAXXZ$rtcName$3 DB 072H		; UpdateRenderingCPU
	DB	00H
	ORG $+2
?UpdateRenderingCPU@@YAXXZ$rtcVarDesc DD 0f8H		; UpdateRenderingCPU
	DD	0cH
	DQ	FLAT:?UpdateRenderingCPU@@YAXXZ$rtcName$3
	DD	0c8H
	DD	018H
	DQ	FLAT:?UpdateRenderingCPU@@YAXXZ$rtcName$2
	DD	098H
	DD	0cH
	DQ	FLAT:?UpdateRenderingCPU@@YAXXZ$rtcName$1
	DD	068H
	DD	0cH
	DQ	FLAT:?UpdateRenderingCPU@@YAXXZ$rtcName$0
	ORG $+192
?UpdateRenderingCPU@@YAXXZ$rtcFrameData DD 04H		; UpdateRenderingCPU
	DD	00H
	DQ	FLAT:?UpdateRenderingCPU@@YAXXZ$rtcVarDesc
; Function compile flags: /Odtp /RTCsu
CONST	ENDS
_TEXT	SEGMENT
startTime$ = 48
invWidth$ = 56
invHeight$ = 60
x$ = 64
y$ = 68
i$8485 = 72
i2$8486 = 76
r1$8487 = 80
r2$8488 = 84
kcx$8489 = 88
kcy$8490 = 92
rdir$8491 = 104
rorig$8492 = 152
k$8493 = 180
l$8494 = 184
k$8495 = 188
ray$8496 = 200
r$8497 = 248
k1$8500 = 276
k2$8501 = 280
elapsedTime$ = 284
sampleSec$ = 288
tv281 = 304
tv280 = 308
tv307 = 312
tv306 = 316
tv335 = 320
tv334 = 324
tv286 = 328
tv314 = 332
__$ArrayPad$ = 336
?UpdateRenderingCPU@@YAXXZ PROC				; UpdateRenderingCPU
; Line 77
$LN23:
	push	rsi
	push	rdi
	sub	rsp, 360				; 00000168H
	mov	rdi, rsp
	mov	ecx, 90					; 0000005aH
	mov	eax, -858993460				; ccccccccH
	rep stosd
	mov	rax, QWORD PTR __security_cookie
	xor	rax, rsp
	mov	QWORD PTR __$ArrayPad$[rsp], rax
; Line 78
	call	?WallClockTime@@YANXZ			; WallClockTime
	movsdx	QWORD PTR startTime$[rsp], xmm0
; Line 80
	movd	xmm0, DWORD PTR ?width@@3HA		; width
	cvtdq2ps xmm0, xmm0
	movss	xmm1, DWORD PTR __real@3f800000
	divss	xmm1, xmm0
	movaps	xmm0, xmm1
	movss	DWORD PTR invWidth$[rsp], xmm0
; Line 81
	movd	xmm0, DWORD PTR ?height@@3HA		; height
	cvtdq2ps xmm0, xmm0
	movss	xmm1, DWORD PTR __real@3f800000
	divss	xmm1, xmm0
	movaps	xmm0, xmm1
	movss	DWORD PTR invHeight$[rsp], xmm0
; Line 84
	mov	DWORD PTR y$[rsp], 0
	jmp	SHORT $LN8@UpdateRend
$LN7@UpdateRend:
	mov	eax, DWORD PTR y$[rsp]
	inc	eax
	mov	DWORD PTR y$[rsp], eax
$LN8@UpdateRend:
	mov	eax, DWORD PTR ?height@@3HA		; height
	cmp	DWORD PTR y$[rsp], eax
	jge	$LN6@UpdateRend
; Line 85
	mov	DWORD PTR x$[rsp], 0
	jmp	SHORT $LN5@UpdateRend
$LN4@UpdateRend:
	mov	eax, DWORD PTR x$[rsp]
	inc	eax
	mov	DWORD PTR x$[rsp], eax
$LN5@UpdateRend:
	mov	eax, DWORD PTR ?width@@3HA		; width
	cmp	DWORD PTR x$[rsp], eax
	jge	$LN3@UpdateRend
; Line 86
	mov	eax, DWORD PTR y$[rsp]
	mov	ecx, DWORD PTR ?height@@3HA		; height
	sub	ecx, eax
	mov	eax, ecx
	dec	eax
	imul	eax, DWORD PTR ?width@@3HA		; width
	add	eax, DWORD PTR x$[rsp]
	mov	DWORD PTR i$8485[rsp], eax
; Line 87
	mov	eax, DWORD PTR i$8485[rsp]
	shl	eax, 1
	mov	DWORD PTR i2$8486[rsp], eax
; Line 89
	mov	eax, DWORD PTR i2$8486[rsp]
	inc	eax
	cdqe
	mov	rcx, QWORD PTR seeds
	lea	rax, QWORD PTR [rcx+rax*4]
	movsxd	rcx, DWORD PTR i2$8486[rsp]
	mov	rdx, QWORD PTR seeds
	lea	rcx, QWORD PTR [rdx+rcx*4]
	mov	rdx, rax
	call	?GetRandom@@YAMPEAI0@Z			; GetRandom
	subss	xmm0, DWORD PTR __real@3f000000
	movss	DWORD PTR r1$8487[rsp], xmm0
; Line 90
	mov	eax, DWORD PTR i2$8486[rsp]
	inc	eax
	cdqe
	mov	rcx, QWORD PTR seeds
	lea	rax, QWORD PTR [rcx+rax*4]
	movsxd	rcx, DWORD PTR i2$8486[rsp]
	mov	rdx, QWORD PTR seeds
	lea	rcx, QWORD PTR [rdx+rcx*4]
	mov	rdx, rax
	call	?GetRandom@@YAMPEAI0@Z			; GetRandom
	subss	xmm0, DWORD PTR __real@3f000000
	movss	DWORD PTR r2$8488[rsp], xmm0
; Line 91
	movd	xmm0, DWORD PTR x$[rsp]
	cvtdq2ps xmm0, xmm0
	addss	xmm0, DWORD PTR r1$8487[rsp]
	mulss	xmm0, DWORD PTR invWidth$[rsp]
	subss	xmm0, DWORD PTR __real@3f000000
	movss	DWORD PTR kcx$8489[rsp], xmm0
; Line 92
	movd	xmm0, DWORD PTR y$[rsp]
	cvtdq2ps xmm0, xmm0
	addss	xmm0, DWORD PTR r2$8488[rsp]
	mulss	xmm0, DWORD PTR invHeight$[rsp]
	subss	xmm0, DWORD PTR __real@3f000000
	movss	DWORD PTR kcy$8490[rsp], xmm0
; Line 98
	movss	xmm0, DWORD PTR ?camera@@3UCamera@@A+36
	mulss	xmm0, DWORD PTR kcx$8489[rsp]
	movss	xmm1, DWORD PTR ?camera@@3UCamera@@A+48
	mulss	xmm1, DWORD PTR kcy$8490[rsp]
	addss	xmm0, xmm1
	addss	xmm0, DWORD PTR ?camera@@3UCamera@@A+24
	movss	DWORD PTR rdir$8491[rsp], xmm0
	movss	xmm0, DWORD PTR ?camera@@3UCamera@@A+40
	mulss	xmm0, DWORD PTR kcx$8489[rsp]
	movss	xmm1, DWORD PTR ?camera@@3UCamera@@A+52
	mulss	xmm1, DWORD PTR kcy$8490[rsp]
	addss	xmm0, xmm1
	addss	xmm0, DWORD PTR ?camera@@3UCamera@@A+28
	movss	DWORD PTR rdir$8491[rsp+4], xmm0
	movss	xmm0, DWORD PTR ?camera@@3UCamera@@A+44
	mulss	xmm0, DWORD PTR kcx$8489[rsp]
	movss	xmm1, DWORD PTR ?camera@@3UCamera@@A+56
	mulss	xmm1, DWORD PTR kcy$8490[rsp]
	addss	xmm0, xmm1
	addss	xmm0, DWORD PTR ?camera@@3UCamera@@A+32
	movss	DWORD PTR rdir$8491[rsp+8], xmm0
; Line 101
	movss	xmm0, DWORD PTR __real@3dcccccd
	movss	DWORD PTR k$8493[rsp], xmm0
	movss	xmm0, DWORD PTR k$8493[rsp]
	mulss	xmm0, DWORD PTR rdir$8491[rsp]
	movss	DWORD PTR rorig$8492[rsp], xmm0
	movss	xmm0, DWORD PTR k$8493[rsp]
	mulss	xmm0, DWORD PTR rdir$8491[rsp+4]
	movss	DWORD PTR rorig$8492[rsp+4], xmm0
	movss	xmm0, DWORD PTR k$8493[rsp]
	mulss	xmm0, DWORD PTR rdir$8491[rsp+8]
	movss	DWORD PTR rorig$8492[rsp+8], xmm0
; Line 102
	movss	xmm0, DWORD PTR rorig$8492[rsp]
	addss	xmm0, DWORD PTR ?camera@@3UCamera@@A
	movss	DWORD PTR rorig$8492[rsp], xmm0
	movss	xmm0, DWORD PTR rorig$8492[rsp+4]
	addss	xmm0, DWORD PTR ?camera@@3UCamera@@A+4
	movss	DWORD PTR rorig$8492[rsp+4], xmm0
	movss	xmm0, DWORD PTR rorig$8492[rsp+8]
	addss	xmm0, DWORD PTR ?camera@@3UCamera@@A+8
	movss	DWORD PTR rorig$8492[rsp+8], xmm0
; Line 104
	movss	xmm0, DWORD PTR rdir$8491[rsp]
	mulss	xmm0, DWORD PTR rdir$8491[rsp]
	movss	xmm1, DWORD PTR rdir$8491[rsp+4]
	mulss	xmm1, DWORD PTR rdir$8491[rsp+4]
	addss	xmm0, xmm1
	movss	xmm1, DWORD PTR rdir$8491[rsp+8]
	mulss	xmm1, DWORD PTR rdir$8491[rsp+8]
	addss	xmm0, xmm1
	call	?sqrt@@YAMM@Z				; sqrt
	movss	xmm1, DWORD PTR __real@3f800000
	divss	xmm1, xmm0
	movaps	xmm0, xmm1
	movss	DWORD PTR l$8494[rsp], xmm0
	movss	xmm0, DWORD PTR l$8494[rsp]
	movss	DWORD PTR k$8495[rsp], xmm0
	movss	xmm0, DWORD PTR k$8495[rsp]
	mulss	xmm0, DWORD PTR rdir$8491[rsp]
	movss	DWORD PTR rdir$8491[rsp], xmm0
	movss	xmm0, DWORD PTR k$8495[rsp]
	mulss	xmm0, DWORD PTR rdir$8491[rsp+4]
	movss	DWORD PTR rdir$8491[rsp+4], xmm0
	movss	xmm0, DWORD PTR k$8495[rsp]
	mulss	xmm0, DWORD PTR rdir$8491[rsp+8]
	movss	DWORD PTR rdir$8491[rsp+8], xmm0
; Line 105
	lea	rax, QWORD PTR ray$8496[rsp]
	lea	rcx, QWORD PTR rorig$8492[rsp]
	mov	rdi, rax
	mov	rsi, rcx
	mov	ecx, 12
	rep movsb
	lea	rax, QWORD PTR ray$8496[rsp+12]
	lea	rcx, QWORD PTR rdir$8491[rsp]
	mov	rdi, rax
	mov	rsi, rcx
	mov	ecx, 12
	rep movsb
; Line 108
	mov	eax, DWORD PTR i2$8486[rsp]
	inc	eax
	cdqe
	mov	rcx, QWORD PTR seeds
	lea	rax, QWORD PTR [rcx+rax*4]
	movsxd	rcx, DWORD PTR i2$8486[rsp]
	mov	rdx, QWORD PTR seeds
	lea	rcx, QWORD PTR [rdx+rcx*4]
	lea	rdx, QWORD PTR r$8497[rsp]
	mov	QWORD PTR [rsp+40], rdx
	mov	QWORD PTR [rsp+32], rax
	mov	r9, rcx
	lea	r8, QWORD PTR ray$8496[rsp]
	mov	edx, DWORD PTR ?sphereCount@@3IA	; sphereCount
	mov	rcx, QWORD PTR ?spheres@@3PEAUSphere@@EA ; spheres
	call	?RadiancePathTracing@@YAXPEBUSphere@@IPEBURay@@PEAI2PEAUVec@@@Z ; RadiancePathTracing
; Line 110
	cmp	DWORD PTR ?currentSample@@3HA, 0	; currentSample
	jne	SHORT $LN2@UpdateRend
; Line 111
	movsxd	rax, DWORD PTR i$8485[rsp]
	imul	rax, 12
	mov	rcx, QWORD PTR colors
	lea	rdx, QWORD PTR r$8497[rsp]
	lea	rdi, QWORD PTR [rcx+rax]
	mov	rsi, rdx
	mov	ecx, 12
	rep movsb
; Line 112
	jmp	$LN1@UpdateRend
$LN2@UpdateRend:
; Line 113
	movd	xmm0, DWORD PTR ?currentSample@@3HA	; currentSample
	cvtdq2ps xmm0, xmm0
	movss	DWORD PTR k1$8500[rsp], xmm0
; Line 114
	movss	xmm0, DWORD PTR k1$8500[rsp]
	addss	xmm0, DWORD PTR __real@3f800000
	movss	xmm1, DWORD PTR __real@3f800000
	divss	xmm1, xmm0
	movaps	xmm0, xmm1
	movss	DWORD PTR k2$8501[rsp], xmm0
; Line 115
	movsxd	rax, DWORD PTR i$8485[rsp]
	imul	rax, 12
	mov	rcx, QWORD PTR colors
	movss	xmm0, DWORD PTR [rcx+rax]
	mulss	xmm0, DWORD PTR k1$8500[rsp]
	addss	xmm0, DWORD PTR r$8497[rsp]
	mulss	xmm0, DWORD PTR k2$8501[rsp]
	movsxd	rax, DWORD PTR i$8485[rsp]
	imul	rax, 12
	mov	rcx, QWORD PTR colors
	movss	DWORD PTR [rcx+rax], xmm0
; Line 116
	movsxd	rax, DWORD PTR i$8485[rsp]
	imul	rax, 12
	mov	rcx, QWORD PTR colors
	movss	xmm0, DWORD PTR [rcx+rax+4]
	mulss	xmm0, DWORD PTR k1$8500[rsp]
	addss	xmm0, DWORD PTR r$8497[rsp+4]
	mulss	xmm0, DWORD PTR k2$8501[rsp]
	movsxd	rax, DWORD PTR i$8485[rsp]
	imul	rax, 12
	mov	rcx, QWORD PTR colors
	movss	DWORD PTR [rcx+rax+4], xmm0
; Line 117
	movsxd	rax, DWORD PTR i$8485[rsp]
	imul	rax, 12
	mov	rcx, QWORD PTR colors
	movss	xmm0, DWORD PTR [rcx+rax+8]
	mulss	xmm0, DWORD PTR k1$8500[rsp]
	addss	xmm0, DWORD PTR r$8497[rsp+8]
	mulss	xmm0, DWORD PTR k2$8501[rsp]
	movsxd	rax, DWORD PTR i$8485[rsp]
	imul	rax, 12
	mov	rcx, QWORD PTR colors
	movss	DWORD PTR [rcx+rax+8], xmm0
$LN1@UpdateRend:
; Line 122
	movsxd	rax, DWORD PTR i$8485[rsp]
	imul	rax, 12
	mov	rcx, QWORD PTR colors
	movss	xmm0, DWORD PTR [rcx+rax]
	xorps	xmm1, xmm1
	comiss	xmm1, xmm0
	jbe	SHORT $LN13@UpdateRend
	xorps	xmm0, xmm0
	movss	DWORD PTR tv281[rsp], xmm0
	jmp	SHORT $LN14@UpdateRend
$LN13@UpdateRend:
	movsxd	rax, DWORD PTR i$8485[rsp]
	imul	rax, 12
	mov	rcx, QWORD PTR colors
	movss	xmm0, DWORD PTR [rcx+rax]
	comiss	xmm0, DWORD PTR __real@3f800000
	jbe	SHORT $LN11@UpdateRend
	movss	xmm0, DWORD PTR __real@3f800000
	movss	DWORD PTR tv280[rsp], xmm0
	jmp	SHORT $LN12@UpdateRend
$LN11@UpdateRend:
	movsxd	rax, DWORD PTR i$8485[rsp]
	imul	rax, 12
	mov	rcx, QWORD PTR colors
	movss	xmm0, DWORD PTR [rcx+rax]
	movss	DWORD PTR tv280[rsp], xmm0
$LN12@UpdateRend:
	movss	xmm0, DWORD PTR tv280[rsp]
	movss	DWORD PTR tv281[rsp], xmm0
$LN14@UpdateRend:
	movsxd	rax, DWORD PTR i$8485[rsp]
	imul	rax, 12
	mov	rcx, QWORD PTR colors
	movss	xmm0, DWORD PTR [rcx+rax+4]
	xorps	xmm1, xmm1
	comiss	xmm1, xmm0
	jbe	SHORT $LN17@UpdateRend
	xorps	xmm0, xmm0
	movss	DWORD PTR tv307[rsp], xmm0
	jmp	SHORT $LN18@UpdateRend
$LN17@UpdateRend:
	movsxd	rax, DWORD PTR i$8485[rsp]
	imul	rax, 12
	mov	rcx, QWORD PTR colors
	movss	xmm0, DWORD PTR [rcx+rax+4]
	comiss	xmm0, DWORD PTR __real@3f800000
	jbe	SHORT $LN15@UpdateRend
	movss	xmm0, DWORD PTR __real@3f800000
	movss	DWORD PTR tv306[rsp], xmm0
	jmp	SHORT $LN16@UpdateRend
$LN15@UpdateRend:
	movsxd	rax, DWORD PTR i$8485[rsp]
	imul	rax, 12
	mov	rcx, QWORD PTR colors
	movss	xmm0, DWORD PTR [rcx+rax+4]
	movss	DWORD PTR tv306[rsp], xmm0
$LN16@UpdateRend:
	movss	xmm0, DWORD PTR tv306[rsp]
	movss	DWORD PTR tv307[rsp], xmm0
$LN18@UpdateRend:
	movsxd	rax, DWORD PTR i$8485[rsp]
	imul	rax, 12
	mov	rcx, QWORD PTR colors
	movss	xmm0, DWORD PTR [rcx+rax+8]
	xorps	xmm1, xmm1
	comiss	xmm1, xmm0
	jbe	SHORT $LN21@UpdateRend
	xorps	xmm0, xmm0
	movss	DWORD PTR tv335[rsp], xmm0
	jmp	SHORT $LN22@UpdateRend
$LN21@UpdateRend:
	movsxd	rax, DWORD PTR i$8485[rsp]
	imul	rax, 12
	mov	rcx, QWORD PTR colors
	movss	xmm0, DWORD PTR [rcx+rax+8]
	comiss	xmm0, DWORD PTR __real@3f800000
	jbe	SHORT $LN19@UpdateRend
	movss	xmm0, DWORD PTR __real@3f800000
	movss	DWORD PTR tv334[rsp], xmm0
	jmp	SHORT $LN20@UpdateRend
$LN19@UpdateRend:
	movsxd	rax, DWORD PTR i$8485[rsp]
	imul	rax, 12
	mov	rcx, QWORD PTR colors
	movss	xmm0, DWORD PTR [rcx+rax+8]
	movss	DWORD PTR tv334[rsp], xmm0
$LN20@UpdateRend:
	movss	xmm0, DWORD PTR tv334[rsp]
	movss	DWORD PTR tv335[rsp], xmm0
$LN22@UpdateRend:
	movss	xmm1, DWORD PTR __real@3ee8ba2e
	movss	xmm0, DWORD PTR tv281[rsp]
	call	?pow@@YAMMM@Z				; pow
	mulss	xmm0, DWORD PTR __real@437f0000
	addss	xmm0, DWORD PTR __real@3f000000
	cvttss2si eax, xmm0
	mov	DWORD PTR tv286[rsp], eax
	movss	xmm1, DWORD PTR __real@3ee8ba2e
	movss	xmm0, DWORD PTR tv307[rsp]
	call	?pow@@YAMMM@Z				; pow
	mulss	xmm0, DWORD PTR __real@437f0000
	addss	xmm0, DWORD PTR __real@3f000000
	cvttss2si eax, xmm0
	shl	eax, 8
	mov	ecx, DWORD PTR tv286[rsp]
	or	ecx, eax
	mov	eax, ecx
	mov	DWORD PTR tv314[rsp], eax
	movss	xmm1, DWORD PTR __real@3ee8ba2e
	movss	xmm0, DWORD PTR tv335[rsp]
	call	?pow@@YAMMM@Z				; pow
	mulss	xmm0, DWORD PTR __real@437f0000
	addss	xmm0, DWORD PTR __real@3f000000
	cvttss2si eax, xmm0
	shl	eax, 16
	mov	ecx, DWORD PTR tv314[rsp]
	or	ecx, eax
	mov	eax, ecx
	mov	ecx, DWORD PTR y$[rsp]
	imul	ecx, DWORD PTR ?width@@3HA		; width
	add	ecx, DWORD PTR x$[rsp]
	movsxd	rcx, ecx
	mov	rdx, QWORD PTR ?pixels@@3PEAIEA		; pixels
	mov	DWORD PTR [rdx+rcx*4], eax
; Line 123
	jmp	$LN4@UpdateRend
$LN3@UpdateRend:
; Line 124
	jmp	$LN7@UpdateRend
$LN6@UpdateRend:
; Line 126
	call	?WallClockTime@@YANXZ			; WallClockTime
	subsd	xmm0, QWORD PTR startTime$[rsp]
	cvtsd2ss xmm0, xmm0
	movss	DWORD PTR elapsedTime$[rsp], xmm0
; Line 127
	mov	eax, DWORD PTR ?height@@3HA		; height
	imul	eax, DWORD PTR ?width@@3HA		; width
	movd	xmm0, eax
	cvtdq2ps xmm0, xmm0
	divss	xmm0, DWORD PTR elapsedTime$[rsp]
	movss	DWORD PTR sampleSec$[rsp], xmm0
; Line 129
	movss	xmm0, DWORD PTR sampleSec$[rsp]
	divss	xmm0, DWORD PTR __real@447a0000
	unpcklps xmm0, xmm0
	cvtps2pd xmm0, xmm0
	movd	xmm1, DWORD PTR elapsedTime$[rsp]
	cvtps2pd xmm1, xmm1
	movsdx	QWORD PTR [rsp+32], xmm0
	mov	r9d, DWORD PTR ?currentSample@@3HA	; currentSample
	movapd	xmm2, xmm1
	movd	r8, xmm2
	lea	rdx, OFFSET FLAT:$SG8507
	lea	rcx, OFFSET FLAT:?captionBuffer@@3PADA	; captionBuffer
	call	QWORD PTR __imp_sprintf
; Line 131
	mov	eax, DWORD PTR ?currentSample@@3HA	; currentSample
	inc	eax
	mov	DWORD PTR ?currentSample@@3HA, eax	; currentSample
; Line 132
	mov	rcx, rsp
	lea	rdx, OFFSET FLAT:?UpdateRenderingCPU@@YAXXZ$rtcFrameData
	call	_RTC_CheckStackVars
	mov	rcx, QWORD PTR __$ArrayPad$[rsp]
	xor	rcx, rsp
	call	__security_check_cookie
	add	rsp, 360				; 00000168H
	pop	rdi
	pop	rsi
	ret	0
?UpdateRenderingCPU@@YAXXZ ENDP				; UpdateRenderingCPU
_TEXT	ENDS
EXTRN	__imp_powf:PROC
;	COMDAT pdata
; File c:\program files (x86)\microsoft visual studio 10.0\vc\include\math.h
pdata	SEGMENT
$pdata$?pow@@YAMMM@Z DD imagerel $LN3
	DD	imagerel $LN3+56
	DD	imagerel $unwind$?pow@@YAMMM@Z
pdata	ENDS
;	COMDAT xdata
xdata	SEGMENT
$unwind$?pow@@YAMMM@Z DD 022001H
	DD	0700d5211H
; Function compile flags: /Odtp /RTCsu
xdata	ENDS
;	COMDAT ?pow@@YAMMM@Z
_TEXT	SEGMENT
_X$ = 64
_Y$ = 72
?pow@@YAMMM@Z PROC					; pow, COMDAT
; Line 534
$LN3:
	movss	DWORD PTR [rsp+16], xmm1
	movss	DWORD PTR [rsp+8], xmm0
	push	rdi
	sub	rsp, 48					; 00000030H
	mov	rdi, rsp
	mov	ecx, 12
	mov	eax, -858993460				; ccccccccH
	rep stosd
	movss	xmm1, DWORD PTR _Y$[rsp]
	movss	xmm0, DWORD PTR _X$[rsp]
	call	QWORD PTR __imp_powf
	add	rsp, 48					; 00000030H
	pop	rdi
	ret	0
?pow@@YAMMM@Z ENDP					; pow
_TEXT	ENDS
EXTRN	__imp_sqrtf:PROC
;	COMDAT pdata
pdata	SEGMENT
$pdata$?sqrt@@YAMM@Z DD imagerel $LN3
	DD	imagerel $LN3+44
	DD	imagerel $unwind$?sqrt@@YAMM@Z
pdata	ENDS
;	COMDAT xdata
xdata	SEGMENT
$unwind$?sqrt@@YAMM@Z DD 021a01H
	DD	07007520bH
; Function compile flags: /Odtp /RTCsu
xdata	ENDS
;	COMDAT ?sqrt@@YAMM@Z
_TEXT	SEGMENT
_X$ = 64
?sqrt@@YAMM@Z PROC					; sqrt, COMDAT
; Line 542
$LN3:
	movss	DWORD PTR [rsp+8], xmm0
	push	rdi
	sub	rsp, 48					; 00000030H
	mov	rdi, rsp
	mov	ecx, 12
	mov	eax, -858993460				; ccccccccH
	rep stosd
	movss	xmm0, DWORD PTR _X$[rsp]
	call	QWORD PTR __imp_sqrtf
	add	rsp, 48					; 00000030H
	pop	rdi
	ret	0
?sqrt@@YAMM@Z ENDP					; sqrt
_TEXT	ENDS
PUBLIC	__real@40000000
pdata	SEGMENT
$pdata$?GetRandom@@YAMPEAI0@Z DD imagerel ?GetRandom@@YAMPEAI0@Z
	DD	imagerel ?GetRandom@@YAMPEAI0@Z+202
	DD	imagerel $unwind$?GetRandom@@YAMPEAI0@Z
pdata	ENDS
xdata	SEGMENT
$unwind$?GetRandom@@YAMPEAI0@Z DD 022301H
	DD	0700bb20fH
xdata	ENDS
;	COMDAT __real@40000000
; File c:\users\mark\documents\smallptgpu-v1.6\simplernd.h
CONST	SEGMENT
__real@40000000 DD 040000000r			; 2
CONST	ENDS
CONST	SEGMENT
?GetRandom@@YAMPEAI0@Z$rtcName$0 DB 072H		; GetRandom
	DB	065H
	DB	073H
	DB	00H
	ORG $+12
?GetRandom@@YAMPEAI0@Z$rtcVarDesc DD 044H		; GetRandom
	DD	04H
	DQ	FLAT:?GetRandom@@YAMPEAI0@Z$rtcName$0
	ORG $+48
?GetRandom@@YAMPEAI0@Z$rtcFrameData DD 01H		; GetRandom
	DD	00H
	DQ	FLAT:?GetRandom@@YAMPEAI0@Z$rtcVarDesc
; Function compile flags: /Odtp /RTCsu
CONST	ENDS
_TEXT	SEGMENT
ires$ = 48
res$ = 68
seed0$ = 112
seed1$ = 120
?GetRandom@@YAMPEAI0@Z PROC				; GetRandom
; Line 34
	mov	QWORD PTR [rsp+16], rdx
	mov	QWORD PTR [rsp+8], rcx
	push	rdi
	sub	rsp, 96					; 00000060H
	mov	rdi, rsp
	mov	ecx, 24
	mov	eax, -858993460				; ccccccccH
	rep stosd
	mov	rcx, QWORD PTR [rsp+112]
; Line 35
	mov	rax, QWORD PTR seed0$[rsp]
	mov	eax, DWORD PTR [rax]
	and	eax, 65535				; 0000ffffH
	imul	eax, 36969				; 00009069H
	mov	rcx, QWORD PTR seed0$[rsp]
	mov	ecx, DWORD PTR [rcx]
	shr	ecx, 16
	add	eax, ecx
	mov	rcx, QWORD PTR seed0$[rsp]
	mov	DWORD PTR [rcx], eax
; Line 36
	mov	rax, QWORD PTR seed1$[rsp]
	mov	eax, DWORD PTR [rax]
	and	eax, 65535				; 0000ffffH
	imul	eax, 18000				; 00004650H
	mov	rcx, QWORD PTR seed1$[rsp]
	mov	ecx, DWORD PTR [rcx]
	shr	ecx, 16
	add	eax, ecx
	mov	rcx, QWORD PTR seed1$[rsp]
	mov	DWORD PTR [rcx], eax
; Line 38
	mov	rax, QWORD PTR seed0$[rsp]
	mov	eax, DWORD PTR [rax]
	shl	eax, 16
	mov	rcx, QWORD PTR seed1$[rsp]
	add	eax, DWORD PTR [rcx]
	mov	DWORD PTR ires$[rsp], eax
; Line 45
	mov	eax, DWORD PTR ires$[rsp]
	and	eax, 8388607				; 007fffffH
	bts	eax, 30
	mov	DWORD PTR res$[rsp], eax
; Line 47
	movss	xmm0, DWORD PTR res$[rsp]
	subss	xmm0, DWORD PTR __real@40000000
	divss	xmm0, DWORD PTR __real@40000000
; Line 48
	movdqu	XMMWORD PTR [rsp+32], xmm0
	mov	rcx, rsp
	lea	rdx, OFFSET FLAT:?GetRandom@@YAMPEAI0@Z$rtcFrameData
	call	_RTC_CheckStackVars
	movdqu	xmm0, XMMWORD PTR [rsp+32]
	add	rsp, 96					; 00000060H
	pop	rdi
	ret	0
?GetRandom@@YAMPEAI0@Z ENDP				; GetRandom
_TEXT	ENDS
PUBLIC	__real@3e800000
PUBLIC	__mask@@NegFloat@
PUBLIC	__real@3fc00000
PUBLIC	?sin@@YAMM@Z					; sin
PUBLIC	?cos@@YAMM@Z					; cos
PUBLIC	__real@40c90fdb
PUBLIC	?fabs@@YAMM@Z					; fabs
PUBLIC	__real@bf800000
PUBLIC	__real@00000000
PUBLIC	__$ArrayPad$
pdata	SEGMENT
$pdata$?RadiancePathTracing@@YAXPEBUSphere@@IPEBURay@@PEAI2PEAUVec@@@Z DD imagerel ?RadiancePathTracing@@YAXPEBUSphere@@IPEBURay@@PEAI2PEAUVec@@@Z
	DD	imagerel ?RadiancePathTracing@@YAXPEBUSphere@@IPEBURay@@PEAI2PEAUVec@@@Z+6320
	DD	imagerel $unwind$?RadiancePathTracing@@YAXPEBUSphere@@IPEBURay@@PEAI2PEAUVec@@@Z
pdata	ENDS
xdata	SEGMENT
$unwind$?RadiancePathTracing@@YAXPEBUSphere@@IPEBURay@@PEAI2PEAUVec@@@Z DD 044519H
	DD	08b011cH
	DD	060147015H
	DD	imagerel __GSHandlerCheck
	DD	0448H
xdata	ENDS
;	COMDAT __real@3e800000
; File c:\users\mark\documents\smallptgpu-v1.6\geomfunc.h
CONST	SEGMENT
__real@3e800000 DD 03e800000r			; 0.25
CONST	ENDS
;	COMDAT __mask@@NegFloat@
CONST	SEGMENT
__mask@@NegFloat@ DB 00H, 00H, 00H, 080H, 00H, 00H, 00H, 080H, 00H, 00H, 00H
	DB	080H, 00H, 00H, 00H, 080H
CONST	ENDS
;	COMDAT __real@3fc00000
CONST	SEGMENT
__real@3fc00000 DD 03fc00000r			; 1.5
CONST	ENDS
;	COMDAT __real@40c90fdb
CONST	SEGMENT
__real@40c90fdb DD 040c90fdbr			; 6.28319
CONST	ENDS
;	COMDAT __real@bf800000
CONST	SEGMENT
__real@bf800000 DD 0bf800000r			; -1
CONST	ENDS
;	COMDAT __real@00000000
CONST	SEGMENT
__real@00000000 DD 000000000r			; 0
CONST	ENDS
CONST	SEGMENT
?RadiancePathTracing@@YAXPEBUSphere@@IPEBURay@@PEAI2PEAUVec@@@Z$rtcName$0 DB 063H ; RadiancePathTracing
	DB	075H
	DB	072H
	DB	072H
	DB	065H
	DB	06eH
	DB	074H
	DB	052H
	DB	061H
	DB	079H
	DB	00H
	ORG $+1
?RadiancePathTracing@@YAXPEBUSphere@@IPEBURay@@PEAI2PEAUVec@@@Z$rtcName$1 DB 072H ; RadiancePathTracing
	DB	061H
	DB	064H
	DB	00H
?RadiancePathTracing@@YAXPEBUSphere@@IPEBURay@@PEAI2PEAUVec@@@Z$rtcName$2 DB 074H ; RadiancePathTracing
	DB	068H
	DB	072H
	DB	06fH
	DB	075H
	DB	067H
	DB	068H
	DB	070H
	DB	075H
	DB	074H
	DB	00H
	ORG $+1
?RadiancePathTracing@@YAXPEBUSphere@@IPEBURay@@PEAI2PEAUVec@@@Z$rtcName$3 DB 074H ; RadiancePathTracing
	DB	00H
	ORG $+2
?RadiancePathTracing@@YAXPEBUSphere@@IPEBURay@@PEAI2PEAUVec@@@Z$rtcName$4 DB 069H ; RadiancePathTracing
	DB	064H
	DB	00H
	ORG $+1
?RadiancePathTracing@@YAXPEBUSphere@@IPEBURay@@PEAI2PEAUVec@@@Z$rtcName$7 DB 06eH ; RadiancePathTracing
	DB	06cH
	DB	00H
	ORG $+1
?RadiancePathTracing@@YAXPEBUSphere@@IPEBURay@@PEAI2PEAUVec@@@Z$rtcName$5 DB 068H ; RadiancePathTracing
	DB	069H
	DB	074H
	DB	050H
	DB	06fH
	DB	069H
	DB	06eH
	DB	074H
	DB	00H
	ORG $+3
?RadiancePathTracing@@YAXPEBUSphere@@IPEBURay@@PEAI2PEAUVec@@@Z$rtcName$6 DB 06eH ; RadiancePathTracing
	DB	06fH
	DB	072H
	DB	06dH
	DB	061H
	DB	06cH
	DB	00H
	ORG $+1
?RadiancePathTracing@@YAXPEBUSphere@@IPEBURay@@PEAI2PEAUVec@@@Z$rtcName$8 DB 065H ; RadiancePathTracing
	DB	043H
	DB	06fH
	DB	06cH
	DB	00H
	ORG $+3
?RadiancePathTracing@@YAXPEBUSphere@@IPEBURay@@PEAI2PEAUVec@@@Z$rtcName$9 DB 04cH ; RadiancePathTracing
	DB	064H
	DB	00H
	ORG $+1
?RadiancePathTracing@@YAXPEBUSphere@@IPEBURay@@PEAI2PEAUVec@@@Z$rtcName$10 DB 077H ; RadiancePathTracing
	DB	00H
	ORG $+2
?RadiancePathTracing@@YAXPEBUSphere@@IPEBURay@@PEAI2PEAUVec@@@Z$rtcName$11 DB 075H ; RadiancePathTracing
	DB	00H
	ORG $+2
?RadiancePathTracing@@YAXPEBUSphere@@IPEBURay@@PEAI2PEAUVec@@@Z$rtcName$12 DB 061H ; RadiancePathTracing
	DB	00H
	ORG $+2
?RadiancePathTracing@@YAXPEBUSphere@@IPEBURay@@PEAI2PEAUVec@@@Z$rtcName$13 DB 076H ; RadiancePathTracing
	DB	00H
	ORG $+2
?RadiancePathTracing@@YAXPEBUSphere@@IPEBURay@@PEAI2PEAUVec@@@Z$rtcName$14 DB 06eH ; RadiancePathTracing
	DB	065H
	DB	077H
	DB	044H
	DB	069H
	DB	072H
	DB	00H
	ORG $+1
?RadiancePathTracing@@YAXPEBUSphere@@IPEBURay@@PEAI2PEAUVec@@@Z$rtcName$15 DB 06eH ; RadiancePathTracing
	DB	065H
	DB	077H
	DB	044H
	DB	069H
	DB	072H
	DB	00H
	ORG $+1
?RadiancePathTracing@@YAXPEBUSphere@@IPEBURay@@PEAI2PEAUVec@@@Z$rtcName$16 DB 06eH ; RadiancePathTracing
	DB	065H
	DB	077H
	DB	044H
	DB	069H
	DB	072H
	DB	00H
	ORG $+1
?RadiancePathTracing@@YAXPEBUSphere@@IPEBURay@@PEAI2PEAUVec@@@Z$rtcName$17 DB 072H ; RadiancePathTracing
	DB	065H
	DB	066H
	DB	06cH
	DB	052H
	DB	061H
	DB	079H
	DB	00H
?RadiancePathTracing@@YAXPEBUSphere@@IPEBURay@@PEAI2PEAUVec@@@Z$rtcName$18 DB 06eH ; RadiancePathTracing
	DB	06bH
	DB	06bH
	DB	00H
	ORG $+4
?RadiancePathTracing@@YAXPEBUSphere@@IPEBURay@@PEAI2PEAUVec@@@Z$rtcName$19 DB 074H ; RadiancePathTracing
	DB	072H
	DB	061H
	DB	06eH
	DB	073H
	DB	044H
	DB	069H
	DB	072H
	DB	00H
	ORG $+7
?RadiancePathTracing@@YAXPEBUSphere@@IPEBURay@@PEAI2PEAUVec@@@Z$rtcVarDesc DD 03c8H ; RadiancePathTracing
	DD	0cH
	DQ	FLAT:?RadiancePathTracing@@YAXPEBUSphere@@IPEBURay@@PEAI2PEAUVec@@@Z$rtcName$19
	DD	0398H
	DD	0cH
	DQ	FLAT:?RadiancePathTracing@@YAXPEBUSphere@@IPEBURay@@PEAI2PEAUVec@@@Z$rtcName$18
	DD	0358H
	DD	018H
	DQ	FLAT:?RadiancePathTracing@@YAXPEBUSphere@@IPEBURay@@PEAI2PEAUVec@@@Z$rtcName$17
	DD	0328H
	DD	0cH
	DQ	FLAT:?RadiancePathTracing@@YAXPEBUSphere@@IPEBURay@@PEAI2PEAUVec@@@Z$rtcName$16
	DD	02f8H
	DD	0cH
	DQ	FLAT:?RadiancePathTracing@@YAXPEBUSphere@@IPEBURay@@PEAI2PEAUVec@@@Z$rtcName$15
	DD	02c8H
	DD	0cH
	DQ	FLAT:?RadiancePathTracing@@YAXPEBUSphere@@IPEBURay@@PEAI2PEAUVec@@@Z$rtcName$14
	DD	0298H
	DD	0cH
	DQ	FLAT:?RadiancePathTracing@@YAXPEBUSphere@@IPEBURay@@PEAI2PEAUVec@@@Z$rtcName$13
	DD	0268H
	DD	0cH
	DQ	FLAT:?RadiancePathTracing@@YAXPEBUSphere@@IPEBURay@@PEAI2PEAUVec@@@Z$rtcName$12
	DD	0238H
	DD	0cH
	DQ	FLAT:?RadiancePathTracing@@YAXPEBUSphere@@IPEBURay@@PEAI2PEAUVec@@@Z$rtcName$11
	DD	0208H
	DD	0cH
	DQ	FLAT:?RadiancePathTracing@@YAXPEBUSphere@@IPEBURay@@PEAI2PEAUVec@@@Z$rtcName$10
	DD	01d8H
	DD	0cH
	DQ	FLAT:?RadiancePathTracing@@YAXPEBUSphere@@IPEBURay@@PEAI2PEAUVec@@@Z$rtcName$9
	DD	01a8H
	DD	0cH
	DQ	FLAT:?RadiancePathTracing@@YAXPEBUSphere@@IPEBURay@@PEAI2PEAUVec@@@Z$rtcName$8
	DD	0178H
	DD	0cH
	DQ	FLAT:?RadiancePathTracing@@YAXPEBUSphere@@IPEBURay@@PEAI2PEAUVec@@@Z$rtcName$7
	DD	0148H
	DD	0cH
	DQ	FLAT:?RadiancePathTracing@@YAXPEBUSphere@@IPEBURay@@PEAI2PEAUVec@@@Z$rtcName$6
	DD	0118H
	DD	0cH
	DQ	FLAT:?RadiancePathTracing@@YAXPEBUSphere@@IPEBURay@@PEAI2PEAUVec@@@Z$rtcName$5
	DD	0f4H
	DD	04H
	DQ	FLAT:?RadiancePathTracing@@YAXPEBUSphere@@IPEBURay@@PEAI2PEAUVec@@@Z$rtcName$4
	DD	0d4H
	DD	04H
	DQ	FLAT:?RadiancePathTracing@@YAXPEBUSphere@@IPEBURay@@PEAI2PEAUVec@@@Z$rtcName$3
	DD	0a8H
	DD	0cH
	DQ	FLAT:?RadiancePathTracing@@YAXPEBUSphere@@IPEBURay@@PEAI2PEAUVec@@@Z$rtcName$2
	DD	078H
	DD	0cH
	DQ	FLAT:?RadiancePathTracing@@YAXPEBUSphere@@IPEBURay@@PEAI2PEAUVec@@@Z$rtcName$1
	DD	048H
	DD	018H
	DQ	FLAT:?RadiancePathTracing@@YAXPEBUSphere@@IPEBURay@@PEAI2PEAUVec@@@Z$rtcName$0
	ORG $+960
?RadiancePathTracing@@YAXPEBUSphere@@IPEBURay@@PEAI2PEAUVec@@@Z$rtcFrameData DD 014H ; RadiancePathTracing
	DD	00H
	DQ	FLAT:?RadiancePathTracing@@YAXPEBUSphere@@IPEBURay@@PEAI2PEAUVec@@@Z$rtcVarDesc
; Function compile flags: /Odtp /RTCsu
CONST	ENDS
_TEXT	SEGMENT
currentRay$ = 72
rad$ = 120
throughput$ = 168
depth$ = 196
specularBounce$ = 200
t$6450 = 212
id$6451 = 244
obj$6453 = 264
hitPoint$6454 = 280
k$6455 = 308
normal$6456 = 328
l$6457 = 356
k$6458 = 360
dp$6459 = 364
nl$6460 = 376
invSignDP$6461 = 404
k$6462 = 408
eCol$6463 = 424
k$6467 = 452
Ld$6469 = 472
r1$6470 = 500
r2$6471 = 504
r2s$6472 = 508
w$6473 = 520
u$6474 = 568
a$6475 = 616
l$6478 = 644
k$6479 = 648
v$6480 = 664
newDir$6481 = 712
k$6482 = 740
k$6483 = 744
k$6484 = 748
newDir$6487 = 760
k$6488 = 788
newDir$6490 = 808
k$6491 = 836
reflRay$6492 = 856
into$6493 = 884
nc$6494 = 888
nt$6495 = 892
nnt$6496 = 896
ddn$6497 = 900
cos2t$6498 = 904
kk$6500 = 908
nkk$6501 = 920
k$6502 = 948
transDir$6503 = 968
k$6504 = 996
l$6505 = 1000
k$6506 = 1004
a$6507 = 1008
b$6508 = 1012
R0$6509 = 1016
c$6510 = 1020
Re$6511 = 1024
Tr$6512 = 1028
P$6513 = 1032
RP$6514 = 1036
TP$6515 = 1040
k$6517 = 1044
k$6519 = 1048
tv182 = 1064
tv413 = 1068
tv449 = 1072
tv473 = 1076
tv474 = 1080
tv475 = 1084
tv548 = 1088
__$ArrayPad$ = 1096
spheres$ = 1136
sphereCount$ = 1144
startRay$ = 1152
seed0$ = 1160
seed1$ = 1168
result$ = 1176
?RadiancePathTracing@@YAXPEBUSphere@@IPEBURay@@PEAI2PEAUVec@@@Z PROC ; RadiancePathTracing
; Line 175
	mov	QWORD PTR [rsp+32], r9
	mov	QWORD PTR [rsp+24], r8
	mov	DWORD PTR [rsp+16], edx
	mov	QWORD PTR [rsp+8], rcx
	push	rsi
	push	rdi
	sub	rsp, 1112				; 00000458H
	mov	rdi, rsp
	mov	ecx, 278				; 00000116H
	mov	eax, -858993460				; ccccccccH
	rep stosd
	mov	rcx, QWORD PTR [rsp+1136]
	mov	rax, QWORD PTR __security_cookie
	xor	rax, rsp
	mov	QWORD PTR __$ArrayPad$[rsp], rax
; Line 176
	mov	rax, QWORD PTR startRay$[rsp]
	movss	xmm0, DWORD PTR [rax]
	movss	DWORD PTR currentRay$[rsp], xmm0
	mov	rax, QWORD PTR startRay$[rsp]
	movss	xmm0, DWORD PTR [rax+4]
	movss	DWORD PTR currentRay$[rsp+4], xmm0
	mov	rax, QWORD PTR startRay$[rsp]
	movss	xmm0, DWORD PTR [rax+8]
	movss	DWORD PTR currentRay$[rsp+8], xmm0
	mov	rax, QWORD PTR startRay$[rsp]
	movss	xmm0, DWORD PTR [rax+12]
	movss	DWORD PTR currentRay$[rsp+12], xmm0
	mov	rax, QWORD PTR startRay$[rsp]
	movss	xmm0, DWORD PTR [rax+16]
	movss	DWORD PTR currentRay$[rsp+16], xmm0
	mov	rax, QWORD PTR startRay$[rsp]
	movss	xmm0, DWORD PTR [rax+20]
	movss	DWORD PTR currentRay$[rsp+20], xmm0
; Line 177
	xorps	xmm0, xmm0
	movss	DWORD PTR rad$[rsp], xmm0
	xorps	xmm0, xmm0
	movss	DWORD PTR rad$[rsp+4], xmm0
	xorps	xmm0, xmm0
	movss	DWORD PTR rad$[rsp+8], xmm0
; Line 178
	movss	xmm0, DWORD PTR __real@3f800000
	movss	DWORD PTR throughput$[rsp], xmm0
	movss	xmm0, DWORD PTR __real@3f800000
	movss	DWORD PTR throughput$[rsp+4], xmm0
	movss	xmm0, DWORD PTR __real@3f800000
	movss	DWORD PTR throughput$[rsp+8], xmm0
; Line 180
	mov	DWORD PTR depth$[rsp], 0
; Line 181
	mov	DWORD PTR specularBounce$[rsp], 1
	jmp	SHORT $LN17@RadiancePa
$LN16@RadiancePa:
; Line 182
	mov	eax, DWORD PTR depth$[rsp]
	inc	eax
	mov	DWORD PTR depth$[rsp], eax
$LN17@RadiancePa:
; Line 184
	cmp	DWORD PTR depth$[rsp], 6
	jbe	SHORT $LN14@RadiancePa
; Line 185
	lea	rax, QWORD PTR rad$[rsp]
	mov	rdi, QWORD PTR result$[rsp]
	mov	rsi, rax
	mov	ecx, 12
	rep movsb
; Line 186
	jmp	$LN18@RadiancePa
$LN14@RadiancePa:
; Line 190
	mov	DWORD PTR id$6451[rsp], 0
; Line 191
	lea	rax, QWORD PTR id$6451[rsp]
	mov	QWORD PTR [rsp+32], rax
	lea	r9, QWORD PTR t$6450[rsp]
	lea	r8, QWORD PTR currentRay$[rsp]
	mov	edx, DWORD PTR sphereCount$[rsp]
	mov	rcx, QWORD PTR spheres$[rsp]
	call	?Intersect@@YAHPEBUSphere@@IPEBURay@@PEAMPEAI@Z ; Intersect
	test	eax, eax
	jne	SHORT $LN13@RadiancePa
; Line 192
	lea	rax, QWORD PTR rad$[rsp]
	mov	rdi, QWORD PTR result$[rsp]
	mov	rsi, rax
	mov	ecx, 12
	rep movsb
; Line 193
	jmp	$LN18@RadiancePa
$LN13@RadiancePa:
; Line 199
	mov	eax, DWORD PTR id$6451[rsp]
	imul	rax, 44					; 0000002cH
	mov	rcx, QWORD PTR spheres$[rsp]
	add	rcx, rax
	mov	rax, rcx
	mov	QWORD PTR obj$6453[rsp], rax
; Line 202
	movss	xmm0, DWORD PTR t$6450[rsp]
	movss	DWORD PTR k$6455[rsp], xmm0
	movss	xmm0, DWORD PTR k$6455[rsp]
	mulss	xmm0, DWORD PTR currentRay$[rsp+12]
	movss	DWORD PTR hitPoint$6454[rsp], xmm0
	movss	xmm0, DWORD PTR k$6455[rsp]
	mulss	xmm0, DWORD PTR currentRay$[rsp+16]
	movss	DWORD PTR hitPoint$6454[rsp+4], xmm0
	movss	xmm0, DWORD PTR k$6455[rsp]
	mulss	xmm0, DWORD PTR currentRay$[rsp+20]
	movss	DWORD PTR hitPoint$6454[rsp+8], xmm0
; Line 203
	movss	xmm0, DWORD PTR currentRay$[rsp]
	addss	xmm0, DWORD PTR hitPoint$6454[rsp]
	movss	DWORD PTR hitPoint$6454[rsp], xmm0
	movss	xmm0, DWORD PTR currentRay$[rsp+4]
	addss	xmm0, DWORD PTR hitPoint$6454[rsp+4]
	movss	DWORD PTR hitPoint$6454[rsp+4], xmm0
	movss	xmm0, DWORD PTR currentRay$[rsp+8]
	addss	xmm0, DWORD PTR hitPoint$6454[rsp+8]
	movss	DWORD PTR hitPoint$6454[rsp+8], xmm0
; Line 206
	mov	rax, QWORD PTR obj$6453[rsp]
	movss	xmm0, DWORD PTR hitPoint$6454[rsp]
	subss	xmm0, DWORD PTR [rax+4]
	movss	DWORD PTR normal$6456[rsp], xmm0
	mov	rax, QWORD PTR obj$6453[rsp]
	movss	xmm0, DWORD PTR hitPoint$6454[rsp+4]
	subss	xmm0, DWORD PTR [rax+8]
	movss	DWORD PTR normal$6456[rsp+4], xmm0
	mov	rax, QWORD PTR obj$6453[rsp]
	movss	xmm0, DWORD PTR hitPoint$6454[rsp+8]
	subss	xmm0, DWORD PTR [rax+12]
	movss	DWORD PTR normal$6456[rsp+8], xmm0
; Line 207
	movss	xmm0, DWORD PTR normal$6456[rsp]
	mulss	xmm0, DWORD PTR normal$6456[rsp]
	movss	xmm1, DWORD PTR normal$6456[rsp+4]
	mulss	xmm1, DWORD PTR normal$6456[rsp+4]
	addss	xmm0, xmm1
	movss	xmm1, DWORD PTR normal$6456[rsp+8]
	mulss	xmm1, DWORD PTR normal$6456[rsp+8]
	addss	xmm0, xmm1
	call	?sqrt@@YAMM@Z				; sqrt
	movss	xmm1, DWORD PTR __real@3f800000
	divss	xmm1, xmm0
	movaps	xmm0, xmm1
	movss	DWORD PTR l$6457[rsp], xmm0
	movss	xmm0, DWORD PTR l$6457[rsp]
	movss	DWORD PTR k$6458[rsp], xmm0
	movss	xmm0, DWORD PTR k$6458[rsp]
	mulss	xmm0, DWORD PTR normal$6456[rsp]
	movss	DWORD PTR normal$6456[rsp], xmm0
	movss	xmm0, DWORD PTR k$6458[rsp]
	mulss	xmm0, DWORD PTR normal$6456[rsp+4]
	movss	DWORD PTR normal$6456[rsp+4], xmm0
	movss	xmm0, DWORD PTR k$6458[rsp]
	mulss	xmm0, DWORD PTR normal$6456[rsp+8]
	movss	DWORD PTR normal$6456[rsp+8], xmm0
; Line 209
	movss	xmm0, DWORD PTR normal$6456[rsp]
	mulss	xmm0, DWORD PTR currentRay$[rsp+12]
	movss	xmm1, DWORD PTR normal$6456[rsp+4]
	mulss	xmm1, DWORD PTR currentRay$[rsp+16]
	addss	xmm0, xmm1
	movss	xmm1, DWORD PTR normal$6456[rsp+8]
	mulss	xmm1, DWORD PTR currentRay$[rsp+20]
	addss	xmm0, xmm1
	movss	DWORD PTR dp$6459[rsp], xmm0
; Line 213
	movss	xmm0, DWORD PTR dp$6459[rsp]
	comiss	xmm0, DWORD PTR __real@00000000
	jbe	SHORT $LN20@RadiancePa
	mov	DWORD PTR tv182[rsp], 1
	jmp	SHORT $LN21@RadiancePa
$LN20@RadiancePa:
	mov	DWORD PTR tv182[rsp], -1
$LN21@RadiancePa:
	movd	xmm0, DWORD PTR tv182[rsp]
	cvtdq2ps xmm0, xmm0
	movss	xmm1, DWORD PTR __real@bf800000
	mulss	xmm1, xmm0
	movaps	xmm0, xmm1
	movss	DWORD PTR invSignDP$6461[rsp], xmm0
; Line 214
	movss	xmm0, DWORD PTR invSignDP$6461[rsp]
	movss	DWORD PTR k$6462[rsp], xmm0
	movss	xmm0, DWORD PTR k$6462[rsp]
	mulss	xmm0, DWORD PTR normal$6456[rsp]
	movss	DWORD PTR nl$6460[rsp], xmm0
	movss	xmm0, DWORD PTR k$6462[rsp]
	mulss	xmm0, DWORD PTR normal$6456[rsp+4]
	movss	DWORD PTR nl$6460[rsp+4], xmm0
	movss	xmm0, DWORD PTR k$6462[rsp]
	mulss	xmm0, DWORD PTR normal$6456[rsp+8]
	movss	DWORD PTR nl$6460[rsp+8], xmm0
; Line 217
	mov	rax, QWORD PTR obj$6453[rsp]
	movss	xmm0, DWORD PTR [rax+16]
	movss	DWORD PTR eCol$6463[rsp], xmm0
	mov	rax, QWORD PTR obj$6453[rsp]
	movss	xmm0, DWORD PTR [rax+20]
	movss	DWORD PTR eCol$6463[rsp+4], xmm0
	mov	rax, QWORD PTR obj$6453[rsp]
	movss	xmm0, DWORD PTR [rax+24]
	movss	DWORD PTR eCol$6463[rsp+8], xmm0
; Line 218
	movss	xmm0, DWORD PTR eCol$6463[rsp]
	ucomiss	xmm0, DWORD PTR __real@00000000
	jp	SHORT $LN11@RadiancePa
	jne	SHORT $LN11@RadiancePa
	movss	xmm0, DWORD PTR eCol$6463[rsp]
	ucomiss	xmm0, DWORD PTR __real@00000000
	jp	SHORT $LN11@RadiancePa
	jne	SHORT $LN11@RadiancePa
	movss	xmm0, DWORD PTR eCol$6463[rsp+8]
	ucomiss	xmm0, DWORD PTR __real@00000000
	jp	SHORT $LN30@RadiancePa
	je	$LN12@RadiancePa
$LN30@RadiancePa:
$LN11@RadiancePa:
; Line 219
	cmp	DWORD PTR specularBounce$[rsp], 0
	je	$LN10@RadiancePa
; Line 220
	movss	xmm0, DWORD PTR dp$6459[rsp]
	call	?fabs@@YAMM@Z				; fabs
	movss	DWORD PTR k$6467[rsp], xmm0
	movss	xmm0, DWORD PTR k$6467[rsp]
	mulss	xmm0, DWORD PTR eCol$6463[rsp]
	movss	DWORD PTR eCol$6463[rsp], xmm0
	movss	xmm0, DWORD PTR k$6467[rsp]
	mulss	xmm0, DWORD PTR eCol$6463[rsp+4]
	movss	DWORD PTR eCol$6463[rsp+4], xmm0
	movss	xmm0, DWORD PTR k$6467[rsp]
	mulss	xmm0, DWORD PTR eCol$6463[rsp+8]
	movss	DWORD PTR eCol$6463[rsp+8], xmm0
; Line 221
	movss	xmm0, DWORD PTR throughput$[rsp]
	mulss	xmm0, DWORD PTR eCol$6463[rsp]
	movss	DWORD PTR eCol$6463[rsp], xmm0
	movss	xmm0, DWORD PTR throughput$[rsp+4]
	mulss	xmm0, DWORD PTR eCol$6463[rsp+4]
	movss	DWORD PTR eCol$6463[rsp+4], xmm0
	movss	xmm0, DWORD PTR throughput$[rsp+8]
	mulss	xmm0, DWORD PTR eCol$6463[rsp+8]
	movss	DWORD PTR eCol$6463[rsp+8], xmm0
; Line 222
	movss	xmm0, DWORD PTR rad$[rsp]
	addss	xmm0, DWORD PTR eCol$6463[rsp]
	movss	DWORD PTR rad$[rsp], xmm0
	movss	xmm0, DWORD PTR rad$[rsp+4]
	addss	xmm0, DWORD PTR eCol$6463[rsp+4]
	movss	DWORD PTR rad$[rsp+4], xmm0
	movss	xmm0, DWORD PTR rad$[rsp+8]
	addss	xmm0, DWORD PTR eCol$6463[rsp+8]
	movss	DWORD PTR rad$[rsp+8], xmm0
$LN10@RadiancePa:
; Line 225
	lea	rax, QWORD PTR rad$[rsp]
	mov	rdi, QWORD PTR result$[rsp]
	mov	rsi, rax
	mov	ecx, 12
	rep movsb
; Line 226
	jmp	$LN18@RadiancePa
$LN12@RadiancePa:
; Line 229
	mov	rax, QWORD PTR obj$6453[rsp]
	cmp	DWORD PTR [rax+40], 0
	jne	$LN9@RadiancePa
; Line 230
	mov	DWORD PTR specularBounce$[rsp], 0
; Line 231
	mov	rax, QWORD PTR obj$6453[rsp]
	movss	xmm0, DWORD PTR throughput$[rsp]
	mulss	xmm0, DWORD PTR [rax+28]
	movss	DWORD PTR throughput$[rsp], xmm0
	mov	rax, QWORD PTR obj$6453[rsp]
	movss	xmm0, DWORD PTR throughput$[rsp+4]
	mulss	xmm0, DWORD PTR [rax+32]
	movss	DWORD PTR throughput$[rsp+4], xmm0
	mov	rax, QWORD PTR obj$6453[rsp]
	movss	xmm0, DWORD PTR throughput$[rsp+8]
	mulss	xmm0, DWORD PTR [rax+36]
	movss	DWORD PTR throughput$[rsp+8], xmm0
; Line 236
	lea	rax, QWORD PTR Ld$6469[rsp]
	mov	QWORD PTR [rsp+48], rax
	lea	rax, QWORD PTR nl$6460[rsp]
	mov	QWORD PTR [rsp+40], rax
	lea	rax, QWORD PTR hitPoint$6454[rsp]
	mov	QWORD PTR [rsp+32], rax
	mov	r9, QWORD PTR seed1$[rsp]
	mov	r8, QWORD PTR seed0$[rsp]
	mov	edx, DWORD PTR sphereCount$[rsp]
	mov	rcx, QWORD PTR spheres$[rsp]
	call	?SampleLights@@YAXPEBUSphere@@IPEAI1PEBUVec@@2PEAU2@@Z ; SampleLights
; Line 237
	movss	xmm0, DWORD PTR throughput$[rsp]
	mulss	xmm0, DWORD PTR Ld$6469[rsp]
	movss	DWORD PTR Ld$6469[rsp], xmm0
	movss	xmm0, DWORD PTR throughput$[rsp+4]
	mulss	xmm0, DWORD PTR Ld$6469[rsp+4]
	movss	DWORD PTR Ld$6469[rsp+4], xmm0
	movss	xmm0, DWORD PTR throughput$[rsp+8]
	mulss	xmm0, DWORD PTR Ld$6469[rsp+8]
	movss	DWORD PTR Ld$6469[rsp+8], xmm0
; Line 238
	movss	xmm0, DWORD PTR rad$[rsp]
	addss	xmm0, DWORD PTR Ld$6469[rsp]
	movss	DWORD PTR rad$[rsp], xmm0
	movss	xmm0, DWORD PTR rad$[rsp+4]
	addss	xmm0, DWORD PTR Ld$6469[rsp+4]
	movss	DWORD PTR rad$[rsp+4], xmm0
	movss	xmm0, DWORD PTR rad$[rsp+8]
	addss	xmm0, DWORD PTR Ld$6469[rsp+8]
	movss	DWORD PTR rad$[rsp+8], xmm0
; Line 242
	mov	rdx, QWORD PTR seed1$[rsp]
	mov	rcx, QWORD PTR seed0$[rsp]
	call	?GetRandom@@YAMPEAI0@Z			; GetRandom
	movss	xmm1, DWORD PTR __real@40c90fdb
	mulss	xmm1, xmm0
	movaps	xmm0, xmm1
	movss	DWORD PTR r1$6470[rsp], xmm0
; Line 243
	mov	rdx, QWORD PTR seed1$[rsp]
	mov	rcx, QWORD PTR seed0$[rsp]
	call	?GetRandom@@YAMPEAI0@Z			; GetRandom
	movss	DWORD PTR r2$6471[rsp], xmm0
; Line 244
	movss	xmm0, DWORD PTR r2$6471[rsp]
	call	?sqrt@@YAMM@Z				; sqrt
	movss	DWORD PTR r2s$6472[rsp], xmm0
; Line 246
	movss	xmm0, DWORD PTR nl$6460[rsp]
	movss	DWORD PTR w$6473[rsp], xmm0
	movss	xmm0, DWORD PTR nl$6460[rsp+4]
	movss	DWORD PTR w$6473[rsp+4], xmm0
	movss	xmm0, DWORD PTR nl$6460[rsp+8]
	movss	DWORD PTR w$6473[rsp+8], xmm0
; Line 249
	movss	xmm0, DWORD PTR w$6473[rsp]
	call	?fabs@@YAMM@Z				; fabs
	comiss	xmm0, DWORD PTR __real@3dcccccd
	jbe	SHORT $LN8@RadiancePa
; Line 250
	xorps	xmm0, xmm0
	movss	DWORD PTR a$6475[rsp], xmm0
	movss	xmm0, DWORD PTR __real@3f800000
	movss	DWORD PTR a$6475[rsp+4], xmm0
	xorps	xmm0, xmm0
	movss	DWORD PTR a$6475[rsp+8], xmm0
; Line 251
	jmp	SHORT $LN7@RadiancePa
$LN8@RadiancePa:
; Line 252
	movss	xmm0, DWORD PTR __real@3f800000
	movss	DWORD PTR a$6475[rsp], xmm0
	xorps	xmm0, xmm0
	movss	DWORD PTR a$6475[rsp+4], xmm0
	xorps	xmm0, xmm0
	movss	DWORD PTR a$6475[rsp+8], xmm0
$LN7@RadiancePa:
; Line 254
	movss	xmm0, DWORD PTR a$6475[rsp+4]
	mulss	xmm0, DWORD PTR w$6473[rsp+8]
	movss	xmm1, DWORD PTR a$6475[rsp+8]
	mulss	xmm1, DWORD PTR w$6473[rsp+4]
	subss	xmm0, xmm1
	movss	DWORD PTR u$6474[rsp], xmm0
	movss	xmm0, DWORD PTR a$6475[rsp+8]
	mulss	xmm0, DWORD PTR w$6473[rsp]
	movss	xmm1, DWORD PTR a$6475[rsp]
	mulss	xmm1, DWORD PTR w$6473[rsp+8]
	subss	xmm0, xmm1
	movss	DWORD PTR u$6474[rsp+4], xmm0
	movss	xmm0, DWORD PTR a$6475[rsp]
	mulss	xmm0, DWORD PTR w$6473[rsp+4]
	movss	xmm1, DWORD PTR a$6475[rsp+4]
	mulss	xmm1, DWORD PTR w$6473[rsp]
	subss	xmm0, xmm1
	movss	DWORD PTR u$6474[rsp+8], xmm0
; Line 255
	movss	xmm0, DWORD PTR u$6474[rsp]
	mulss	xmm0, DWORD PTR u$6474[rsp]
	movss	xmm1, DWORD PTR u$6474[rsp+4]
	mulss	xmm1, DWORD PTR u$6474[rsp+4]
	addss	xmm0, xmm1
	movss	xmm1, DWORD PTR u$6474[rsp+8]
	mulss	xmm1, DWORD PTR u$6474[rsp+8]
	addss	xmm0, xmm1
	call	?sqrt@@YAMM@Z				; sqrt
	movss	xmm1, DWORD PTR __real@3f800000
	divss	xmm1, xmm0
	movaps	xmm0, xmm1
	movss	DWORD PTR l$6478[rsp], xmm0
	movss	xmm0, DWORD PTR l$6478[rsp]
	movss	DWORD PTR k$6479[rsp], xmm0
	movss	xmm0, DWORD PTR k$6479[rsp]
	mulss	xmm0, DWORD PTR u$6474[rsp]
	movss	DWORD PTR u$6474[rsp], xmm0
	movss	xmm0, DWORD PTR k$6479[rsp]
	mulss	xmm0, DWORD PTR u$6474[rsp+4]
	movss	DWORD PTR u$6474[rsp+4], xmm0
	movss	xmm0, DWORD PTR k$6479[rsp]
	mulss	xmm0, DWORD PTR u$6474[rsp+8]
	movss	DWORD PTR u$6474[rsp+8], xmm0
; Line 258
	movss	xmm0, DWORD PTR w$6473[rsp+4]
	mulss	xmm0, DWORD PTR u$6474[rsp+8]
	movss	xmm1, DWORD PTR w$6473[rsp+8]
	mulss	xmm1, DWORD PTR u$6474[rsp+4]
	subss	xmm0, xmm1
	movss	DWORD PTR v$6480[rsp], xmm0
	movss	xmm0, DWORD PTR w$6473[rsp+8]
	mulss	xmm0, DWORD PTR u$6474[rsp]
	movss	xmm1, DWORD PTR w$6473[rsp]
	mulss	xmm1, DWORD PTR u$6474[rsp+8]
	subss	xmm0, xmm1
	movss	DWORD PTR v$6480[rsp+4], xmm0
	movss	xmm0, DWORD PTR w$6473[rsp]
	mulss	xmm0, DWORD PTR u$6474[rsp+4]
	movss	xmm1, DWORD PTR w$6473[rsp+4]
	mulss	xmm1, DWORD PTR u$6474[rsp]
	subss	xmm0, xmm1
	movss	DWORD PTR v$6480[rsp+8], xmm0
; Line 261
	movss	xmm0, DWORD PTR r1$6470[rsp]
	call	?cos@@YAMM@Z				; cos
	mulss	xmm0, DWORD PTR r2s$6472[rsp]
	movss	DWORD PTR k$6482[rsp], xmm0
	movss	xmm0, DWORD PTR k$6482[rsp]
	mulss	xmm0, DWORD PTR u$6474[rsp]
	movss	DWORD PTR u$6474[rsp], xmm0
	movss	xmm0, DWORD PTR k$6482[rsp]
	mulss	xmm0, DWORD PTR u$6474[rsp+4]
	movss	DWORD PTR u$6474[rsp+4], xmm0
	movss	xmm0, DWORD PTR k$6482[rsp]
	mulss	xmm0, DWORD PTR u$6474[rsp+8]
	movss	DWORD PTR u$6474[rsp+8], xmm0
; Line 262
	movss	xmm0, DWORD PTR r1$6470[rsp]
	call	?sin@@YAMM@Z				; sin
	mulss	xmm0, DWORD PTR r2s$6472[rsp]
	movss	DWORD PTR k$6483[rsp], xmm0
	movss	xmm0, DWORD PTR k$6483[rsp]
	mulss	xmm0, DWORD PTR v$6480[rsp]
	movss	DWORD PTR v$6480[rsp], xmm0
	movss	xmm0, DWORD PTR k$6483[rsp]
	mulss	xmm0, DWORD PTR v$6480[rsp+4]
	movss	DWORD PTR v$6480[rsp+4], xmm0
	movss	xmm0, DWORD PTR k$6483[rsp]
	mulss	xmm0, DWORD PTR v$6480[rsp+8]
	movss	DWORD PTR v$6480[rsp+8], xmm0
; Line 263
	movss	xmm0, DWORD PTR u$6474[rsp]
	addss	xmm0, DWORD PTR v$6480[rsp]
	movss	DWORD PTR newDir$6481[rsp], xmm0
	movss	xmm0, DWORD PTR u$6474[rsp+4]
	addss	xmm0, DWORD PTR v$6480[rsp+4]
	movss	DWORD PTR newDir$6481[rsp+4], xmm0
	movss	xmm0, DWORD PTR u$6474[rsp+8]
	addss	xmm0, DWORD PTR v$6480[rsp+8]
	movss	DWORD PTR newDir$6481[rsp+8], xmm0
; Line 264
	movss	xmm0, DWORD PTR __real@3f800000
	subss	xmm0, DWORD PTR r2$6471[rsp]
	call	?sqrt@@YAMM@Z				; sqrt
	movss	DWORD PTR k$6484[rsp], xmm0
	movss	xmm0, DWORD PTR k$6484[rsp]
	mulss	xmm0, DWORD PTR w$6473[rsp]
	movss	DWORD PTR w$6473[rsp], xmm0
	movss	xmm0, DWORD PTR k$6484[rsp]
	mulss	xmm0, DWORD PTR w$6473[rsp+4]
	movss	DWORD PTR w$6473[rsp+4], xmm0
	movss	xmm0, DWORD PTR k$6484[rsp]
	mulss	xmm0, DWORD PTR w$6473[rsp+8]
	movss	DWORD PTR w$6473[rsp+8], xmm0
; Line 265
	movss	xmm0, DWORD PTR newDir$6481[rsp]
	addss	xmm0, DWORD PTR w$6473[rsp]
	movss	DWORD PTR newDir$6481[rsp], xmm0
	movss	xmm0, DWORD PTR newDir$6481[rsp+4]
	addss	xmm0, DWORD PTR w$6473[rsp+4]
	movss	DWORD PTR newDir$6481[rsp+4], xmm0
	movss	xmm0, DWORD PTR newDir$6481[rsp+8]
	addss	xmm0, DWORD PTR w$6473[rsp+8]
	movss	DWORD PTR newDir$6481[rsp+8], xmm0
; Line 267
	lea	rax, QWORD PTR currentRay$[rsp]
	lea	rcx, QWORD PTR hitPoint$6454[rsp]
	mov	rdi, rax
	mov	rsi, rcx
	mov	ecx, 12
	rep movsb
; Line 268
	lea	rax, QWORD PTR currentRay$[rsp+12]
	lea	rcx, QWORD PTR newDir$6481[rsp]
	mov	rdi, rax
	mov	rsi, rcx
	mov	ecx, 12
	rep movsb
; Line 269
	jmp	$LN16@RadiancePa
	jmp	$LN6@RadiancePa
$LN9@RadiancePa:
; Line 270
	mov	rax, QWORD PTR obj$6453[rsp]
	cmp	DWORD PTR [rax+40], 1
	jne	$LN5@RadiancePa
; Line 271
	mov	DWORD PTR specularBounce$[rsp], 1
; Line 274
	movss	xmm0, DWORD PTR normal$6456[rsp]
	mulss	xmm0, DWORD PTR currentRay$[rsp+12]
	movss	xmm1, DWORD PTR normal$6456[rsp+4]
	mulss	xmm1, DWORD PTR currentRay$[rsp+16]
	addss	xmm0, xmm1
	movss	xmm1, DWORD PTR normal$6456[rsp+8]
	mulss	xmm1, DWORD PTR currentRay$[rsp+20]
	addss	xmm0, xmm1
	movss	xmm1, DWORD PTR __real@40000000
	mulss	xmm1, xmm0
	movaps	xmm0, xmm1
	movss	DWORD PTR k$6488[rsp], xmm0
	movss	xmm0, DWORD PTR k$6488[rsp]
	mulss	xmm0, DWORD PTR normal$6456[rsp]
	movss	DWORD PTR newDir$6487[rsp], xmm0
	movss	xmm0, DWORD PTR k$6488[rsp]
	mulss	xmm0, DWORD PTR normal$6456[rsp+4]
	movss	DWORD PTR newDir$6487[rsp+4], xmm0
	movss	xmm0, DWORD PTR k$6488[rsp]
	mulss	xmm0, DWORD PTR normal$6456[rsp+8]
	movss	DWORD PTR newDir$6487[rsp+8], xmm0
; Line 275
	movss	xmm0, DWORD PTR currentRay$[rsp+12]
	subss	xmm0, DWORD PTR newDir$6487[rsp]
	movss	DWORD PTR newDir$6487[rsp], xmm0
	movss	xmm0, DWORD PTR currentRay$[rsp+16]
	subss	xmm0, DWORD PTR newDir$6487[rsp+4]
	movss	DWORD PTR newDir$6487[rsp+4], xmm0
	movss	xmm0, DWORD PTR currentRay$[rsp+20]
	subss	xmm0, DWORD PTR newDir$6487[rsp+8]
	movss	DWORD PTR newDir$6487[rsp+8], xmm0
; Line 277
	mov	rax, QWORD PTR obj$6453[rsp]
	movss	xmm0, DWORD PTR throughput$[rsp]
	mulss	xmm0, DWORD PTR [rax+28]
	movss	DWORD PTR throughput$[rsp], xmm0
	mov	rax, QWORD PTR obj$6453[rsp]
	movss	xmm0, DWORD PTR throughput$[rsp+4]
	mulss	xmm0, DWORD PTR [rax+32]
	movss	DWORD PTR throughput$[rsp+4], xmm0
	mov	rax, QWORD PTR obj$6453[rsp]
	movss	xmm0, DWORD PTR throughput$[rsp+8]
	mulss	xmm0, DWORD PTR [rax+36]
	movss	DWORD PTR throughput$[rsp+8], xmm0
; Line 279
	movss	xmm0, DWORD PTR hitPoint$6454[rsp]
	movss	DWORD PTR currentRay$[rsp], xmm0
	movss	xmm0, DWORD PTR hitPoint$6454[rsp+4]
	movss	DWORD PTR currentRay$[rsp+4], xmm0
	movss	xmm0, DWORD PTR hitPoint$6454[rsp+8]
	movss	DWORD PTR currentRay$[rsp+8], xmm0
	movss	xmm0, DWORD PTR newDir$6487[rsp]
	movss	DWORD PTR currentRay$[rsp+12], xmm0
	movss	xmm0, DWORD PTR newDir$6487[rsp+4]
	movss	DWORD PTR currentRay$[rsp+16], xmm0
	movss	xmm0, DWORD PTR newDir$6487[rsp+8]
	movss	DWORD PTR currentRay$[rsp+20], xmm0
; Line 280
	jmp	$LN16@RadiancePa
; Line 281
	jmp	$LN4@RadiancePa
$LN5@RadiancePa:
; Line 282
	mov	DWORD PTR specularBounce$[rsp], 1
; Line 285
	movss	xmm0, DWORD PTR normal$6456[rsp]
	mulss	xmm0, DWORD PTR currentRay$[rsp+12]
	movss	xmm1, DWORD PTR normal$6456[rsp+4]
	mulss	xmm1, DWORD PTR currentRay$[rsp+16]
	addss	xmm0, xmm1
	movss	xmm1, DWORD PTR normal$6456[rsp+8]
	mulss	xmm1, DWORD PTR currentRay$[rsp+20]
	addss	xmm0, xmm1
	movss	xmm1, DWORD PTR __real@40000000
	mulss	xmm1, xmm0
	movaps	xmm0, xmm1
	movss	DWORD PTR k$6491[rsp], xmm0
	movss	xmm0, DWORD PTR k$6491[rsp]
	mulss	xmm0, DWORD PTR normal$6456[rsp]
	movss	DWORD PTR newDir$6490[rsp], xmm0
	movss	xmm0, DWORD PTR k$6491[rsp]
	mulss	xmm0, DWORD PTR normal$6456[rsp+4]
	movss	DWORD PTR newDir$6490[rsp+4], xmm0
	movss	xmm0, DWORD PTR k$6491[rsp]
	mulss	xmm0, DWORD PTR normal$6456[rsp+8]
	movss	DWORD PTR newDir$6490[rsp+8], xmm0
; Line 286
	movss	xmm0, DWORD PTR currentRay$[rsp+12]
	subss	xmm0, DWORD PTR newDir$6490[rsp]
	movss	DWORD PTR newDir$6490[rsp], xmm0
	movss	xmm0, DWORD PTR currentRay$[rsp+16]
	subss	xmm0, DWORD PTR newDir$6490[rsp+4]
	movss	DWORD PTR newDir$6490[rsp+4], xmm0
	movss	xmm0, DWORD PTR currentRay$[rsp+20]
	subss	xmm0, DWORD PTR newDir$6490[rsp+8]
	movss	DWORD PTR newDir$6490[rsp+8], xmm0
; Line 288
	movss	xmm0, DWORD PTR hitPoint$6454[rsp]
	movss	DWORD PTR reflRay$6492[rsp], xmm0
	movss	xmm0, DWORD PTR hitPoint$6454[rsp+4]
	movss	DWORD PTR reflRay$6492[rsp+4], xmm0
	movss	xmm0, DWORD PTR hitPoint$6454[rsp+8]
	movss	DWORD PTR reflRay$6492[rsp+8], xmm0
	movss	xmm0, DWORD PTR newDir$6490[rsp]
	movss	DWORD PTR reflRay$6492[rsp+12], xmm0
	movss	xmm0, DWORD PTR newDir$6490[rsp+4]
	movss	DWORD PTR reflRay$6492[rsp+16], xmm0
	movss	xmm0, DWORD PTR newDir$6490[rsp+8]
	movss	DWORD PTR reflRay$6492[rsp+20], xmm0
; Line 289
	movss	xmm0, DWORD PTR normal$6456[rsp]
	mulss	xmm0, DWORD PTR nl$6460[rsp]
	movss	xmm1, DWORD PTR normal$6456[rsp+4]
	mulss	xmm1, DWORD PTR nl$6460[rsp+4]
	addss	xmm0, xmm1
	movss	xmm1, DWORD PTR normal$6456[rsp+8]
	mulss	xmm1, DWORD PTR nl$6460[rsp+8]
	addss	xmm0, xmm1
	comiss	xmm0, DWORD PTR __real@00000000
	jbe	SHORT $LN22@RadiancePa
	mov	DWORD PTR tv413[rsp], 1
	jmp	SHORT $LN23@RadiancePa
$LN22@RadiancePa:
	mov	DWORD PTR tv413[rsp], 0
$LN23@RadiancePa:
	mov	eax, DWORD PTR tv413[rsp]
	mov	DWORD PTR into$6493[rsp], eax
; Line 291
	movss	xmm0, DWORD PTR __real@3f800000
	movss	DWORD PTR nc$6494[rsp], xmm0
; Line 292
	movss	xmm0, DWORD PTR __real@3fc00000
	movss	DWORD PTR nt$6495[rsp], xmm0
; Line 293
	cmp	DWORD PTR into$6493[rsp], 0
	je	SHORT $LN24@RadiancePa
	movss	xmm0, DWORD PTR nc$6494[rsp]
	divss	xmm0, DWORD PTR nt$6495[rsp]
	movss	DWORD PTR tv449[rsp], xmm0
	jmp	SHORT $LN25@RadiancePa
$LN24@RadiancePa:
	movss	xmm0, DWORD PTR nt$6495[rsp]
	divss	xmm0, DWORD PTR nc$6494[rsp]
	movss	DWORD PTR tv449[rsp], xmm0
$LN25@RadiancePa:
	movss	xmm0, DWORD PTR tv449[rsp]
	movss	DWORD PTR nnt$6496[rsp], xmm0
; Line 294
	movss	xmm0, DWORD PTR currentRay$[rsp+12]
	mulss	xmm0, DWORD PTR nl$6460[rsp]
	movss	xmm1, DWORD PTR currentRay$[rsp+16]
	mulss	xmm1, DWORD PTR nl$6460[rsp+4]
	addss	xmm0, xmm1
	movss	xmm1, DWORD PTR currentRay$[rsp+20]
	mulss	xmm1, DWORD PTR nl$6460[rsp+8]
	addss	xmm0, xmm1
	movss	DWORD PTR ddn$6497[rsp], xmm0
; Line 295
	movss	xmm0, DWORD PTR nnt$6496[rsp]
	mulss	xmm0, DWORD PTR nnt$6496[rsp]
	movss	xmm1, DWORD PTR ddn$6497[rsp]
	mulss	xmm1, DWORD PTR ddn$6497[rsp]
	movss	xmm2, DWORD PTR __real@3f800000
	subss	xmm2, xmm1
	movaps	xmm1, xmm2
	mulss	xmm0, xmm1
	movss	xmm1, DWORD PTR __real@3f800000
	subss	xmm1, xmm0
	movaps	xmm0, xmm1
	movss	DWORD PTR cos2t$6498[rsp], xmm0
; Line 297
	xorps	xmm0, xmm0
	comiss	xmm0, DWORD PTR cos2t$6498[rsp]
	jbe	$LN3@RadiancePa
; Line 298
	mov	rax, QWORD PTR obj$6453[rsp]
	movss	xmm0, DWORD PTR throughput$[rsp]
	mulss	xmm0, DWORD PTR [rax+28]
	movss	DWORD PTR throughput$[rsp], xmm0
	mov	rax, QWORD PTR obj$6453[rsp]
	movss	xmm0, DWORD PTR throughput$[rsp+4]
	mulss	xmm0, DWORD PTR [rax+32]
	movss	DWORD PTR throughput$[rsp+4], xmm0
	mov	rax, QWORD PTR obj$6453[rsp]
	movss	xmm0, DWORD PTR throughput$[rsp+8]
	mulss	xmm0, DWORD PTR [rax+36]
	movss	DWORD PTR throughput$[rsp+8], xmm0
; Line 300
	movss	xmm0, DWORD PTR reflRay$6492[rsp]
	movss	DWORD PTR currentRay$[rsp], xmm0
	movss	xmm0, DWORD PTR reflRay$6492[rsp+4]
	movss	DWORD PTR currentRay$[rsp+4], xmm0
	movss	xmm0, DWORD PTR reflRay$6492[rsp+8]
	movss	DWORD PTR currentRay$[rsp+8], xmm0
	movss	xmm0, DWORD PTR reflRay$6492[rsp+12]
	movss	DWORD PTR currentRay$[rsp+12], xmm0
	movss	xmm0, DWORD PTR reflRay$6492[rsp+16]
	movss	DWORD PTR currentRay$[rsp+16], xmm0
	movss	xmm0, DWORD PTR reflRay$6492[rsp+20]
	movss	DWORD PTR currentRay$[rsp+20], xmm0
; Line 301
	jmp	$LN16@RadiancePa
$LN3@RadiancePa:
; Line 304
	cmp	DWORD PTR into$6493[rsp], 0
	je	SHORT $LN26@RadiancePa
	mov	DWORD PTR tv473[rsp], 1
	jmp	SHORT $LN27@RadiancePa
$LN26@RadiancePa:
	mov	DWORD PTR tv473[rsp], -1
$LN27@RadiancePa:
	movd	xmm0, DWORD PTR tv473[rsp]
	cvtdq2ps xmm0, xmm0
	movss	DWORD PTR tv474[rsp], xmm0
	movss	xmm1, DWORD PTR ddn$6497[rsp]
	mulss	xmm1, DWORD PTR nnt$6496[rsp]
	movss	DWORD PTR tv475[rsp], xmm1
	movss	xmm0, DWORD PTR cos2t$6498[rsp]
	call	?sqrt@@YAMM@Z				; sqrt
	movss	xmm1, DWORD PTR tv475[rsp]
	addss	xmm1, xmm0
	movaps	xmm0, xmm1
	movss	xmm1, DWORD PTR tv474[rsp]
	mulss	xmm1, xmm0
	movaps	xmm0, xmm1
	movss	DWORD PTR kk$6500[rsp], xmm0
; Line 306
	movss	xmm0, DWORD PTR kk$6500[rsp]
	movss	DWORD PTR k$6502[rsp], xmm0
	movss	xmm0, DWORD PTR k$6502[rsp]
	mulss	xmm0, DWORD PTR normal$6456[rsp]
	movss	DWORD PTR nkk$6501[rsp], xmm0
	movss	xmm0, DWORD PTR k$6502[rsp]
	mulss	xmm0, DWORD PTR normal$6456[rsp+4]
	movss	DWORD PTR nkk$6501[rsp+4], xmm0
	movss	xmm0, DWORD PTR k$6502[rsp]
	mulss	xmm0, DWORD PTR normal$6456[rsp+8]
	movss	DWORD PTR nkk$6501[rsp+8], xmm0
; Line 308
	movss	xmm0, DWORD PTR nnt$6496[rsp]
	movss	DWORD PTR k$6504[rsp], xmm0
	movss	xmm0, DWORD PTR k$6504[rsp]
	mulss	xmm0, DWORD PTR currentRay$[rsp+12]
	movss	DWORD PTR transDir$6503[rsp], xmm0
	movss	xmm0, DWORD PTR k$6504[rsp]
	mulss	xmm0, DWORD PTR currentRay$[rsp+16]
	movss	DWORD PTR transDir$6503[rsp+4], xmm0
	movss	xmm0, DWORD PTR k$6504[rsp]
	mulss	xmm0, DWORD PTR currentRay$[rsp+20]
	movss	DWORD PTR transDir$6503[rsp+8], xmm0
; Line 309
	movss	xmm0, DWORD PTR transDir$6503[rsp]
	subss	xmm0, DWORD PTR nkk$6501[rsp]
	movss	DWORD PTR transDir$6503[rsp], xmm0
	movss	xmm0, DWORD PTR transDir$6503[rsp+4]
	subss	xmm0, DWORD PTR nkk$6501[rsp+4]
	movss	DWORD PTR transDir$6503[rsp+4], xmm0
	movss	xmm0, DWORD PTR transDir$6503[rsp+8]
	subss	xmm0, DWORD PTR nkk$6501[rsp+8]
	movss	DWORD PTR transDir$6503[rsp+8], xmm0
; Line 310
	movss	xmm0, DWORD PTR transDir$6503[rsp]
	mulss	xmm0, DWORD PTR transDir$6503[rsp]
	movss	xmm1, DWORD PTR transDir$6503[rsp+4]
	mulss	xmm1, DWORD PTR transDir$6503[rsp+4]
	addss	xmm0, xmm1
	movss	xmm1, DWORD PTR transDir$6503[rsp+8]
	mulss	xmm1, DWORD PTR transDir$6503[rsp+8]
	addss	xmm0, xmm1
	call	?sqrt@@YAMM@Z				; sqrt
	movss	xmm1, DWORD PTR __real@3f800000
	divss	xmm1, xmm0
	movaps	xmm0, xmm1
	movss	DWORD PTR l$6505[rsp], xmm0
	movss	xmm0, DWORD PTR l$6505[rsp]
	movss	DWORD PTR k$6506[rsp], xmm0
	movss	xmm0, DWORD PTR k$6506[rsp]
	mulss	xmm0, DWORD PTR transDir$6503[rsp]
	movss	DWORD PTR transDir$6503[rsp], xmm0
	movss	xmm0, DWORD PTR k$6506[rsp]
	mulss	xmm0, DWORD PTR transDir$6503[rsp+4]
	movss	DWORD PTR transDir$6503[rsp+4], xmm0
	movss	xmm0, DWORD PTR k$6506[rsp]
	mulss	xmm0, DWORD PTR transDir$6503[rsp+8]
	movss	DWORD PTR transDir$6503[rsp+8], xmm0
; Line 312
	movss	xmm0, DWORD PTR nt$6495[rsp]
	subss	xmm0, DWORD PTR nc$6494[rsp]
	movss	DWORD PTR a$6507[rsp], xmm0
; Line 313
	movss	xmm0, DWORD PTR nt$6495[rsp]
	addss	xmm0, DWORD PTR nc$6494[rsp]
	movss	DWORD PTR b$6508[rsp], xmm0
; Line 314
	movss	xmm0, DWORD PTR a$6507[rsp]
	mulss	xmm0, DWORD PTR a$6507[rsp]
	movss	xmm1, DWORD PTR b$6508[rsp]
	mulss	xmm1, DWORD PTR b$6508[rsp]
	divss	xmm0, xmm1
	movss	DWORD PTR R0$6509[rsp], xmm0
; Line 315
	cmp	DWORD PTR into$6493[rsp], 0
	je	SHORT $LN28@RadiancePa
	movss	xmm0, DWORD PTR ddn$6497[rsp]
	xorps	xmm0, DWORD PTR __mask@@NegFloat@
	movss	DWORD PTR tv548[rsp], xmm0
	jmp	SHORT $LN29@RadiancePa
$LN28@RadiancePa:
	movss	xmm0, DWORD PTR transDir$6503[rsp]
	mulss	xmm0, DWORD PTR normal$6456[rsp]
	movss	xmm1, DWORD PTR transDir$6503[rsp+4]
	mulss	xmm1, DWORD PTR normal$6456[rsp+4]
	addss	xmm0, xmm1
	movss	xmm1, DWORD PTR transDir$6503[rsp+8]
	mulss	xmm1, DWORD PTR normal$6456[rsp+8]
	addss	xmm0, xmm1
	movss	DWORD PTR tv548[rsp], xmm0
$LN29@RadiancePa:
	movss	xmm0, DWORD PTR __real@3f800000
	subss	xmm0, DWORD PTR tv548[rsp]
	movss	DWORD PTR c$6510[rsp], xmm0
; Line 317
	movss	xmm0, DWORD PTR __real@3f800000
	subss	xmm0, DWORD PTR R0$6509[rsp]
	mulss	xmm0, DWORD PTR c$6510[rsp]
	mulss	xmm0, DWORD PTR c$6510[rsp]
	mulss	xmm0, DWORD PTR c$6510[rsp]
	mulss	xmm0, DWORD PTR c$6510[rsp]
	mulss	xmm0, DWORD PTR c$6510[rsp]
	movss	xmm1, DWORD PTR R0$6509[rsp]
	addss	xmm1, xmm0
	movaps	xmm0, xmm1
	movss	DWORD PTR Re$6511[rsp], xmm0
; Line 318
	movss	xmm0, DWORD PTR __real@3f800000
	subss	xmm0, DWORD PTR Re$6511[rsp]
	movss	DWORD PTR Tr$6512[rsp], xmm0
; Line 319
	movss	xmm0, DWORD PTR __real@3f000000
	mulss	xmm0, DWORD PTR Re$6511[rsp]
	movss	xmm1, DWORD PTR __real@3e800000
	addss	xmm1, xmm0
	movaps	xmm0, xmm1
	movss	DWORD PTR P$6513[rsp], xmm0
; Line 320
	movss	xmm0, DWORD PTR Re$6511[rsp]
	divss	xmm0, DWORD PTR P$6513[rsp]
	movss	DWORD PTR RP$6514[rsp], xmm0
; Line 321
	movss	xmm0, DWORD PTR __real@3f800000
	subss	xmm0, DWORD PTR P$6513[rsp]
	movss	xmm1, DWORD PTR Tr$6512[rsp]
	divss	xmm1, xmm0
	movaps	xmm0, xmm1
	movss	DWORD PTR TP$6515[rsp], xmm0
; Line 323
	mov	rdx, QWORD PTR seed1$[rsp]
	mov	rcx, QWORD PTR seed0$[rsp]
	call	?GetRandom@@YAMPEAI0@Z			; GetRandom
	movss	xmm1, DWORD PTR P$6513[rsp]
	comiss	xmm1, xmm0
	jbe	$LN2@RadiancePa
; Line 324
	movss	xmm0, DWORD PTR RP$6514[rsp]
	movss	DWORD PTR k$6517[rsp], xmm0
	movss	xmm0, DWORD PTR k$6517[rsp]
	mulss	xmm0, DWORD PTR throughput$[rsp]
	movss	DWORD PTR throughput$[rsp], xmm0
	movss	xmm0, DWORD PTR k$6517[rsp]
	mulss	xmm0, DWORD PTR throughput$[rsp+4]
	movss	DWORD PTR throughput$[rsp+4], xmm0
	movss	xmm0, DWORD PTR k$6517[rsp]
	mulss	xmm0, DWORD PTR throughput$[rsp+8]
	movss	DWORD PTR throughput$[rsp+8], xmm0
; Line 325
	mov	rax, QWORD PTR obj$6453[rsp]
	movss	xmm0, DWORD PTR throughput$[rsp]
	mulss	xmm0, DWORD PTR [rax+28]
	movss	DWORD PTR throughput$[rsp], xmm0
	mov	rax, QWORD PTR obj$6453[rsp]
	movss	xmm0, DWORD PTR throughput$[rsp+4]
	mulss	xmm0, DWORD PTR [rax+32]
	movss	DWORD PTR throughput$[rsp+4], xmm0
	mov	rax, QWORD PTR obj$6453[rsp]
	movss	xmm0, DWORD PTR throughput$[rsp+8]
	mulss	xmm0, DWORD PTR [rax+36]
	movss	DWORD PTR throughput$[rsp+8], xmm0
; Line 327
	movss	xmm0, DWORD PTR reflRay$6492[rsp]
	movss	DWORD PTR currentRay$[rsp], xmm0
	movss	xmm0, DWORD PTR reflRay$6492[rsp+4]
	movss	DWORD PTR currentRay$[rsp+4], xmm0
	movss	xmm0, DWORD PTR reflRay$6492[rsp+8]
	movss	DWORD PTR currentRay$[rsp+8], xmm0
	movss	xmm0, DWORD PTR reflRay$6492[rsp+12]
	movss	DWORD PTR currentRay$[rsp+12], xmm0
	movss	xmm0, DWORD PTR reflRay$6492[rsp+16]
	movss	DWORD PTR currentRay$[rsp+16], xmm0
	movss	xmm0, DWORD PTR reflRay$6492[rsp+20]
	movss	DWORD PTR currentRay$[rsp+20], xmm0
; Line 328
	jmp	$LN16@RadiancePa
; Line 329
	jmp	$LN1@RadiancePa
$LN2@RadiancePa:
; Line 330
	movss	xmm0, DWORD PTR TP$6515[rsp]
	movss	DWORD PTR k$6519[rsp], xmm0
	movss	xmm0, DWORD PTR k$6519[rsp]
	mulss	xmm0, DWORD PTR throughput$[rsp]
	movss	DWORD PTR throughput$[rsp], xmm0
	movss	xmm0, DWORD PTR k$6519[rsp]
	mulss	xmm0, DWORD PTR throughput$[rsp+4]
	movss	DWORD PTR throughput$[rsp+4], xmm0
	movss	xmm0, DWORD PTR k$6519[rsp]
	mulss	xmm0, DWORD PTR throughput$[rsp+8]
	movss	DWORD PTR throughput$[rsp+8], xmm0
; Line 331
	mov	rax, QWORD PTR obj$6453[rsp]
	movss	xmm0, DWORD PTR throughput$[rsp]
	mulss	xmm0, DWORD PTR [rax+28]
	movss	DWORD PTR throughput$[rsp], xmm0
	mov	rax, QWORD PTR obj$6453[rsp]
	movss	xmm0, DWORD PTR throughput$[rsp+4]
	mulss	xmm0, DWORD PTR [rax+32]
	movss	DWORD PTR throughput$[rsp+4], xmm0
	mov	rax, QWORD PTR obj$6453[rsp]
	movss	xmm0, DWORD PTR throughput$[rsp+8]
	mulss	xmm0, DWORD PTR [rax+36]
	movss	DWORD PTR throughput$[rsp+8], xmm0
; Line 333
	movss	xmm0, DWORD PTR hitPoint$6454[rsp]
	movss	DWORD PTR currentRay$[rsp], xmm0
	movss	xmm0, DWORD PTR hitPoint$6454[rsp+4]
	movss	DWORD PTR currentRay$[rsp+4], xmm0
	movss	xmm0, DWORD PTR hitPoint$6454[rsp+8]
	movss	DWORD PTR currentRay$[rsp+8], xmm0
	movss	xmm0, DWORD PTR transDir$6503[rsp]
	movss	DWORD PTR currentRay$[rsp+12], xmm0
	movss	xmm0, DWORD PTR transDir$6503[rsp+4]
	movss	DWORD PTR currentRay$[rsp+16], xmm0
	movss	xmm0, DWORD PTR transDir$6503[rsp+8]
	movss	DWORD PTR currentRay$[rsp+20], xmm0
; Line 334
	jmp	$LN16@RadiancePa
$LN1@RadiancePa:
$LN4@RadiancePa:
$LN6@RadiancePa:
; Line 337
	jmp	$LN16@RadiancePa
$LN18@RadiancePa:
; Line 338
	mov	rcx, rsp
	lea	rdx, OFFSET FLAT:?RadiancePathTracing@@YAXPEBUSphere@@IPEBURay@@PEAI2PEAUVec@@@Z$rtcFrameData
	call	_RTC_CheckStackVars
	mov	rcx, QWORD PTR __$ArrayPad$[rsp]
	xor	rcx, rsp
	call	__security_check_cookie
	add	rsp, 1112				; 00000458H
	pop	rdi
	pop	rsi
	ret	0
?RadiancePathTracing@@YAXPEBUSphere@@IPEBURay@@PEAI2PEAUVec@@@Z ENDP ; RadiancePathTracing
_TEXT	ENDS
EXTRN	__imp_cosf:PROC
;	COMDAT pdata
; File c:\program files (x86)\microsoft visual studio 10.0\vc\include\math.h
pdata	SEGMENT
$pdata$?cos@@YAMM@Z DD imagerel $LN3
	DD	imagerel $LN3+44
	DD	imagerel $unwind$?cos@@YAMM@Z
pdata	ENDS
;	COMDAT xdata
xdata	SEGMENT
$unwind$?cos@@YAMM@Z DD 021a01H
	DD	07007520bH
; Function compile flags: /Odtp /RTCsu
xdata	ENDS
;	COMDAT ?cos@@YAMM@Z
_TEXT	SEGMENT
_X$ = 64
?cos@@YAMM@Z PROC					; cos, COMDAT
; Line 512
$LN3:
	movss	DWORD PTR [rsp+8], xmm0
	push	rdi
	sub	rsp, 48					; 00000030H
	mov	rdi, rsp
	mov	ecx, 12
	mov	eax, -858993460				; ccccccccH
	rep stosd
	movss	xmm0, DWORD PTR _X$[rsp]
	call	QWORD PTR __imp_cosf
	add	rsp, 48					; 00000030H
	pop	rdi
	ret	0
?cos@@YAMM@Z ENDP					; cos
_TEXT	ENDS
PUBLIC	fabsf
;	COMDAT pdata
pdata	SEGMENT
$pdata$?fabs@@YAMM@Z DD imagerel $LN3
	DD	imagerel $LN3+43
	DD	imagerel $unwind$?fabs@@YAMM@Z
pdata	ENDS
;	COMDAT xdata
xdata	SEGMENT
$unwind$?fabs@@YAMM@Z DD 021a01H
	DD	07007520bH
; Function compile flags: /Odtp /RTCsu
xdata	ENDS
;	COMDAT ?fabs@@YAMM@Z
_TEXT	SEGMENT
_X$ = 64
?fabs@@YAMM@Z PROC					; fabs, COMDAT
; Line 518
$LN3:
	movss	DWORD PTR [rsp+8], xmm0
	push	rdi
	sub	rsp, 48					; 00000030H
	mov	rdi, rsp
	mov	ecx, 12
	mov	eax, -858993460				; ccccccccH
	rep stosd
	movss	xmm0, DWORD PTR _X$[rsp]
	call	fabsf
	add	rsp, 48					; 00000030H
	pop	rdi
	ret	0
?fabs@@YAMM@Z ENDP					; fabs
_TEXT	ENDS
EXTRN	fabs:PROC
;	COMDAT pdata
pdata	SEGMENT
$pdata$fabsf DD	imagerel $LN3
	DD	imagerel $LN3+50
	DD	imagerel $unwind$fabsf
pdata	ENDS
;	COMDAT xdata
xdata	SEGMENT
$unwind$fabsf DD 021a01H
	DD	07007520bH
; Function compile flags: /Odtp /RTCsu
xdata	ENDS
;	COMDAT fabsf
_TEXT	SEGMENT
_X$ = 64
fabsf	PROC						; COMDAT
; Line 395
$LN3:
	movss	DWORD PTR [rsp+8], xmm0
	push	rdi
	sub	rsp, 48					; 00000030H
	mov	rdi, rsp
	mov	ecx, 12
	mov	eax, -858993460				; ccccccccH
	rep stosd
	movd	xmm0, DWORD PTR _X$[rsp]
	cvtps2pd xmm0, xmm0
	call	fabs
	cvtsd2ss xmm0, xmm0
	add	rsp, 48					; 00000030H
	pop	rdi
	ret	0
fabsf	ENDP
_TEXT	ENDS
EXTRN	__imp_sinf:PROC
;	COMDAT pdata
pdata	SEGMENT
$pdata$?sin@@YAMM@Z DD imagerel $LN3
	DD	imagerel $LN3+44
	DD	imagerel $unwind$?sin@@YAMM@Z
pdata	ENDS
;	COMDAT xdata
xdata	SEGMENT
$unwind$?sin@@YAMM@Z DD 021a01H
	DD	07007520bH
; Function compile flags: /Odtp /RTCsu
xdata	ENDS
;	COMDAT ?sin@@YAMM@Z
_TEXT	SEGMENT
_X$ = 64
?sin@@YAMM@Z PROC					; sin, COMDAT
; Line 538
$LN3:
	movss	DWORD PTR [rsp+8], xmm0
	push	rdi
	sub	rsp, 48					; 00000030H
	mov	rdi, rsp
	mov	ecx, 12
	mov	eax, -858993460				; ccccccccH
	rep stosd
	movss	xmm0, DWORD PTR _X$[rsp]
	call	QWORD PTR __imp_sinf
	add	rsp, 48					; 00000030H
	pop	rdi
	ret	0
?sin@@YAMM@Z ENDP					; sin
_TEXT	ENDS
PUBLIC	__real@60ad78ec
pdata	SEGMENT
$pdata$?Intersect@@YAHPEBUSphere@@IPEBURay@@PEAMPEAI@Z DD imagerel ?Intersect@@YAHPEBUSphere@@IPEBURay@@PEAMPEAI@Z
	DD	imagerel ?Intersect@@YAHPEBUSphere@@IPEBURay@@PEAMPEAI@Z+251
	DD	imagerel $unwind$?Intersect@@YAHPEBUSphere@@IPEBURay@@PEAMPEAI@Z
pdata	ENDS
xdata	SEGMENT
$unwind$?Intersect@@YAHPEBUSphere@@IPEBURay@@PEAMPEAI@Z DD 022c01H
	DD	070147218H
xdata	ENDS
;	COMDAT __real@60ad78ec
; File c:\users\mark\documents\smallptgpu-v1.6\geomfunc.h
CONST	SEGMENT
__real@60ad78ec DD 060ad78ecr			; 1e+020
; Function compile flags: /Odtp /RTCsu
CONST	ENDS
_TEXT	SEGMENT
inf$ = 32
i$ = 36
d$6387 = 40
tv65 = 44
tv77 = 48
spheres$ = 80
sphereCount$ = 88
r$ = 96
t$ = 104
id$ = 112
?Intersect@@YAHPEBUSphere@@IPEBURay@@PEAMPEAI@Z PROC	; Intersect
; Line 79
	mov	QWORD PTR [rsp+32], r9
	mov	QWORD PTR [rsp+24], r8
	mov	DWORD PTR [rsp+16], edx
	mov	QWORD PTR [rsp+8], rcx
	push	rdi
	sub	rsp, 64					; 00000040H
	mov	rdi, rsp
	mov	ecx, 16
	mov	eax, -858993460				; ccccccccH
	rep stosd
	mov	rcx, QWORD PTR [rsp+80]
; Line 80
	mov	rax, QWORD PTR t$[rsp]
	movss	xmm0, DWORD PTR __real@60ad78ec
	movss	DWORD PTR [rax], xmm0
	movss	xmm0, DWORD PTR __real@60ad78ec
	movss	DWORD PTR inf$[rsp], xmm0
; Line 82
	mov	eax, DWORD PTR sphereCount$[rsp]
	mov	DWORD PTR i$[rsp], eax
$LN3@Intersect:
; Line 83
	mov	eax, DWORD PTR i$[rsp]
	mov	DWORD PTR tv65[rsp], eax
	mov	eax, DWORD PTR i$[rsp]
	dec	eax
	mov	DWORD PTR i$[rsp], eax
	cmp	DWORD PTR tv65[rsp], 0
	je	SHORT $LN2@Intersect
; Line 84
	mov	eax, DWORD PTR i$[rsp]
	imul	rax, 44					; 0000002cH
	mov	rcx, QWORD PTR spheres$[rsp]
	add	rcx, rax
	mov	rax, rcx
	mov	rdx, QWORD PTR r$[rsp]
	mov	rcx, rax
	call	?SphereIntersect@@YAMPEBUSphere@@PEBURay@@@Z ; SphereIntersect
	movss	DWORD PTR d$6387[rsp], xmm0
; Line 85
	movss	xmm0, DWORD PTR d$6387[rsp]
	ucomiss	xmm0, DWORD PTR __real@00000000
	jp	SHORT $LN8@Intersect
	je	SHORT $LN1@Intersect
$LN8@Intersect:
	mov	rax, QWORD PTR t$[rsp]
	movss	xmm0, DWORD PTR [rax]
	comiss	xmm0, DWORD PTR d$6387[rsp]
	jbe	SHORT $LN1@Intersect
; Line 86
	mov	rax, QWORD PTR t$[rsp]
	movss	xmm0, DWORD PTR d$6387[rsp]
	movss	DWORD PTR [rax], xmm0
; Line 87
	mov	rax, QWORD PTR id$[rsp]
	mov	ecx, DWORD PTR i$[rsp]
	mov	DWORD PTR [rax], ecx
$LN1@Intersect:
; Line 89
	jmp	SHORT $LN3@Intersect
$LN2@Intersect:
; Line 91
	mov	rax, QWORD PTR t$[rsp]
	movss	xmm0, DWORD PTR inf$[rsp]
	comiss	xmm0, DWORD PTR [rax]
	jbe	SHORT $LN6@Intersect
	mov	DWORD PTR tv77[rsp], 1
	jmp	SHORT $LN7@Intersect
$LN6@Intersect:
	mov	DWORD PTR tv77[rsp], 0
$LN7@Intersect:
	mov	eax, DWORD PTR tv77[rsp]
; Line 92
	add	rsp, 64					; 00000040H
	pop	rdi
	ret	0
?Intersect@@YAHPEBUSphere@@IPEBURay@@PEAMPEAI@Z ENDP	; Intersect
_TEXT	ENDS
PUBLIC	__real@3c23d70a
PUBLIC	__$ArrayPad$
pdata	SEGMENT
$pdata$?SphereIntersect@@YAMPEBUSphere@@PEBURay@@@Z DD imagerel ?SphereIntersect@@YAMPEBUSphere@@PEBURay@@@Z
	DD	imagerel ?SphereIntersect@@YAMPEBUSphere@@PEBURay@@@Z+482
	DD	imagerel $unwind$?SphereIntersect@@YAMPEBUSphere@@PEBURay@@@Z
pdata	ENDS
xdata	SEGMENT
$unwind$?SphereIntersect@@YAMPEBUSphere@@PEBURay@@@Z DD 023519H
	DD	0700bd20fH
	DD	imagerel __GSHandlerCheck
	DD	068H
xdata	ENDS
;	COMDAT __real@3c23d70a
CONST	SEGMENT
__real@3c23d70a DD 03c23d70ar			; 0.01
CONST	ENDS
CONST	SEGMENT
?SphereIntersect@@YAMPEBUSphere@@PEBURay@@@Z$rtcName$0 DB 06fH ; SphereIntersect
	DB	070H
	DB	00H
	ORG $+13
?SphereIntersect@@YAMPEBUSphere@@PEBURay@@@Z$rtcVarDesc DD 038H ; SphereIntersect
	DD	0cH
	DQ	FLAT:?SphereIntersect@@YAMPEBUSphere@@PEBURay@@@Z$rtcName$0
	ORG $+48
?SphereIntersect@@YAMPEBUSphere@@PEBURay@@@Z$rtcFrameData DD 01H ; SphereIntersect
	DD	00H
	DQ	FLAT:?SphereIntersect@@YAMPEBUSphere@@PEBURay@@@Z$rtcVarDesc
; Function compile flags: /Odtp /RTCsu
CONST	ENDS
_TEXT	SEGMENT
op$ = 56
b$ = 84
det$ = 88
t$ = 92
__$ArrayPad$ = 104
s$ = 128
r$ = 136
?SphereIntersect@@YAMPEBUSphere@@PEBURay@@@Z PROC	; SphereIntersect
; Line 37
	mov	QWORD PTR [rsp+16], rdx
	mov	QWORD PTR [rsp+8], rcx
	push	rdi
	sub	rsp, 112				; 00000070H
	mov	rdi, rsp
	mov	ecx, 28
	mov	eax, -858993460				; ccccccccH
	rep stosd
	mov	rcx, QWORD PTR [rsp+128]
	mov	rax, QWORD PTR __security_cookie
	xor	rax, rsp
	mov	QWORD PTR __$ArrayPad$[rsp], rax
; Line 39
	mov	rax, QWORD PTR s$[rsp]
	mov	rcx, QWORD PTR r$[rsp]
	movss	xmm0, DWORD PTR [rax+4]
	subss	xmm0, DWORD PTR [rcx]
	movss	DWORD PTR op$[rsp], xmm0
	mov	rax, QWORD PTR s$[rsp]
	mov	rcx, QWORD PTR r$[rsp]
	movss	xmm0, DWORD PTR [rax+8]
	subss	xmm0, DWORD PTR [rcx+4]
	movss	DWORD PTR op$[rsp+4], xmm0
	mov	rax, QWORD PTR s$[rsp]
	mov	rcx, QWORD PTR r$[rsp]
	movss	xmm0, DWORD PTR [rax+12]
	subss	xmm0, DWORD PTR [rcx+8]
	movss	DWORD PTR op$[rsp+8], xmm0
; Line 41
	mov	rax, QWORD PTR r$[rsp]
	movss	xmm0, DWORD PTR op$[rsp]
	mulss	xmm0, DWORD PTR [rax+12]
	mov	rax, QWORD PTR r$[rsp]
	movss	xmm1, DWORD PTR op$[rsp+4]
	mulss	xmm1, DWORD PTR [rax+16]
	addss	xmm0, xmm1
	mov	rax, QWORD PTR r$[rsp]
	movss	xmm1, DWORD PTR op$[rsp+8]
	mulss	xmm1, DWORD PTR [rax+20]
	addss	xmm0, xmm1
	movss	DWORD PTR b$[rsp], xmm0
; Line 42
	movss	xmm0, DWORD PTR b$[rsp]
	mulss	xmm0, DWORD PTR b$[rsp]
	movss	xmm1, DWORD PTR op$[rsp]
	mulss	xmm1, DWORD PTR op$[rsp]
	movss	xmm2, DWORD PTR op$[rsp+4]
	mulss	xmm2, DWORD PTR op$[rsp+4]
	addss	xmm1, xmm2
	movss	xmm2, DWORD PTR op$[rsp+8]
	mulss	xmm2, DWORD PTR op$[rsp+8]
	addss	xmm1, xmm2
	subss	xmm0, xmm1
	mov	rax, QWORD PTR s$[rsp]
	mov	rcx, QWORD PTR s$[rsp]
	movss	xmm1, DWORD PTR [rax]
	mulss	xmm1, DWORD PTR [rcx]
	addss	xmm0, xmm1
	movss	DWORD PTR det$[rsp], xmm0
; Line 43
	xorps	xmm0, xmm0
	comiss	xmm0, DWORD PTR det$[rsp]
	jbe	SHORT $LN6@SphereInte
; Line 44
	xorps	xmm0, xmm0
	jmp	SHORT $LN7@SphereInte
; Line 45
	jmp	SHORT $LN5@SphereInte
$LN6@SphereInte:
; Line 46
	movss	xmm0, DWORD PTR det$[rsp]
	call	?sqrt@@YAMM@Z				; sqrt
	movss	DWORD PTR det$[rsp], xmm0
$LN5@SphereInte:
; Line 48
	movss	xmm0, DWORD PTR b$[rsp]
	subss	xmm0, DWORD PTR det$[rsp]
	movss	DWORD PTR t$[rsp], xmm0
; Line 49
	movss	xmm0, DWORD PTR t$[rsp]
	comiss	xmm0, DWORD PTR __real@3c23d70a
	jbe	SHORT $LN4@SphereInte
; Line 50
	movss	xmm0, DWORD PTR t$[rsp]
	jmp	SHORT $LN7@SphereInte
; Line 51
	jmp	SHORT $LN3@SphereInte
$LN4@SphereInte:
; Line 52
	movss	xmm0, DWORD PTR b$[rsp]
	addss	xmm0, DWORD PTR det$[rsp]
	movss	DWORD PTR t$[rsp], xmm0
; Line 54
	movss	xmm0, DWORD PTR t$[rsp]
	comiss	xmm0, DWORD PTR __real@3c23d70a
	jbe	SHORT $LN2@SphereInte
; Line 55
	movss	xmm0, DWORD PTR t$[rsp]
	jmp	SHORT $LN7@SphereInte
; Line 56
	jmp	SHORT $LN1@SphereInte
$LN2@SphereInte:
; Line 57
	xorps	xmm0, xmm0
$LN1@SphereInte:
$LN3@SphereInte:
$LN7@SphereInte:
; Line 59
	movdqu	XMMWORD PTR [rsp+32], xmm0
	mov	rcx, rsp
	lea	rdx, OFFSET FLAT:?SphereIntersect@@YAMPEBUSphere@@PEBURay@@@Z$rtcFrameData
	call	_RTC_CheckStackVars
	movdqu	xmm0, XMMWORD PTR [rsp+32]
	mov	rcx, QWORD PTR __$ArrayPad$[rsp]
	xor	rcx, rsp
	call	__security_check_cookie
	add	rsp, 112				; 00000070H
	pop	rdi
	ret	0
?SphereIntersect@@YAMPEBUSphere@@PEBURay@@@Z ENDP	; SphereIntersect
_TEXT	ENDS
PUBLIC	__real@41490fdb
PUBLIC	$T8906
PUBLIC	__$ArrayPad$
pdata	SEGMENT
$pdata$?SampleLights@@YAXPEBUSphere@@IPEAI1PEBUVec@@2PEAU2@@Z DD imagerel ?SampleLights@@YAXPEBUSphere@@IPEAI1PEBUVec@@2PEAU2@@Z
	DD	imagerel ?SampleLights@@YAXPEBUSphere@@IPEAI1PEBUVec@@2PEAU2@@Z+1404
	DD	imagerel $unwind$?SampleLights@@YAXPEBUSphere@@IPEAI1PEBUVec@@2PEAU2@@Z
pdata	ENDS
xdata	SEGMENT
$unwind$?SampleLights@@YAXPEBUSphere@@IPEAI1PEBUVec@@2PEAU2@@Z DD 044519H
	DD	027011cH
	DD	060147015H
	DD	imagerel __GSHandlerCheck
	DD	0120H
xdata	ENDS
;	COMDAT __real@41490fdb
CONST	SEGMENT
__real@41490fdb DD 041490fdbr			; 12.5664
CONST	ENDS
CONST	SEGMENT
?SampleLights@@YAXPEBUSphere@@IPEAI1PEBUVec@@2PEAU2@@Z$rtcName$0 DB 073H ; SampleLights
	DB	068H
	DB	061H
	DB	064H
	DB	06fH
	DB	077H
	DB	052H
	DB	061H
	DB	079H
	DB	00H
	ORG $+6
?SampleLights@@YAXPEBUSphere@@IPEAI1PEBUVec@@2PEAU2@@Z$rtcName$1 DB 075H ; SampleLights
	DB	06eH
	DB	069H
	DB	074H
	DB	053H
	DB	070H
	DB	068H
	DB	065H
	DB	072H
	DB	065H
	DB	050H
	DB	06fH
	DB	069H
	DB	06eH
	DB	074H
	DB	00H
?SampleLights@@YAXPEBUSphere@@IPEAI1PEBUVec@@2PEAU2@@Z$rtcName$2 DB 073H ; SampleLights
	DB	070H
	DB	068H
	DB	065H
	DB	072H
	DB	065H
	DB	050H
	DB	06fH
	DB	069H
	DB	06eH
	DB	074H
	DB	00H
?SampleLights@@YAXPEBUSphere@@IPEAI1PEBUVec@@2PEAU2@@Z$rtcName$3 DB 063H ; SampleLights
	DB	00H
	ORG $+2
?SampleLights@@YAXPEBUSphere@@IPEAI1PEBUVec@@2PEAU2@@Z$rtcVarDesc DD 0d8H ; SampleLights
	DD	0cH
	DQ	FLAT:?SampleLights@@YAXPEBUSphere@@IPEAI1PEBUVec@@2PEAU2@@Z$rtcName$3
	DD	098H
	DD	0cH
	DQ	FLAT:?SampleLights@@YAXPEBUSphere@@IPEAI1PEBUVec@@2PEAU2@@Z$rtcName$2
	DD	068H
	DD	0cH
	DQ	FLAT:?SampleLights@@YAXPEBUSphere@@IPEAI1PEBUVec@@2PEAU2@@Z$rtcName$1
	DD	038H
	DD	018H
	DQ	FLAT:?SampleLights@@YAXPEBUSphere@@IPEAI1PEBUVec@@2PEAU2@@Z$rtcName$0
	ORG $+192
?SampleLights@@YAXPEBUSphere@@IPEAI1PEBUVec@@2PEAU2@@Z$rtcFrameData DD 04H ; SampleLights
	DD	00H
	DQ	FLAT:?SampleLights@@YAXPEBUSphere@@IPEAI1PEBUVec@@2PEAU2@@Z$rtcVarDesc
; Function compile flags: /Odtp /RTCsu
CONST	ENDS
_TEXT	SEGMENT
i$ = 32
light$6416 = 40
shadowRay$6419 = 56
unitSpherePoint$6420 = 104
spherePoint$6421 = 152
k$6422 = 180
len$6423 = 184
k$6424 = 188
wo$6425 = 192
wi$6428 = 196
c$6430 = 216
s$6431 = 244
k$6432 = 248
$T8906 = 264
tv82 = 280
__$ArrayPad$ = 288
spheres$ = 336
sphereCount$ = 344
seed0$ = 352
seed1$ = 360
hitPoint$ = 368
normal$ = 376
result$ = 384
?SampleLights@@YAXPEBUSphere@@IPEAI1PEBUVec@@2PEAU2@@Z PROC ; SampleLights
; Line 121
	mov	QWORD PTR [rsp+32], r9
	mov	QWORD PTR [rsp+24], r8
	mov	DWORD PTR [rsp+16], edx
	mov	QWORD PTR [rsp+8], rcx
	push	rsi
	push	rdi
	sub	rsp, 312				; 00000138H
	mov	rdi, rsp
	mov	ecx, 78					; 0000004eH
	mov	eax, -858993460				; ccccccccH
	rep stosd
	mov	rcx, QWORD PTR [rsp+336]
	mov	rax, QWORD PTR __security_cookie
	xor	rax, rsp
	mov	QWORD PTR __$ArrayPad$[rsp], rax
; Line 122
	mov	rax, QWORD PTR result$[rsp]
	xorps	xmm0, xmm0
	movss	DWORD PTR [rax], xmm0
	mov	rax, QWORD PTR result$[rsp]
	xorps	xmm0, xmm0
	movss	DWORD PTR [rax+4], xmm0
	mov	rax, QWORD PTR result$[rsp]
	xorps	xmm0, xmm0
	movss	DWORD PTR [rax+8], xmm0
; Line 126
	mov	DWORD PTR i$[rsp], 0
	jmp	SHORT $LN8@SampleLigh
$LN7@SampleLigh:
	mov	eax, DWORD PTR i$[rsp]
	inc	eax
	mov	DWORD PTR i$[rsp], eax
$LN8@SampleLigh:
	mov	eax, DWORD PTR sphereCount$[rsp]
	cmp	DWORD PTR i$[rsp], eax
	jae	$LN6@SampleLigh
; Line 130
	mov	eax, DWORD PTR i$[rsp]
	imul	rax, 44					; 0000002cH
	mov	rcx, QWORD PTR spheres$[rsp]
	add	rcx, rax
	mov	rax, rcx
	mov	QWORD PTR light$6416[rsp], rax
; Line 131
	mov	rax, QWORD PTR light$6416[rsp]
	movss	xmm0, DWORD PTR [rax+16]
	ucomiss	xmm0, DWORD PTR __real@00000000
	jp	SHORT $LN4@SampleLigh
	jne	SHORT $LN4@SampleLigh
	mov	rax, QWORD PTR light$6416[rsp]
	movss	xmm0, DWORD PTR [rax+16]
	ucomiss	xmm0, DWORD PTR __real@00000000
	jp	SHORT $LN4@SampleLigh
	jne	SHORT $LN4@SampleLigh
	mov	rax, QWORD PTR light$6416[rsp]
	movss	xmm0, DWORD PTR [rax+24]
	ucomiss	xmm0, DWORD PTR __real@00000000
	jp	SHORT $LN11@SampleLigh
	je	$LN5@SampleLigh
$LN11@SampleLigh:
$LN4@SampleLigh:
; Line 134
	lea	rax, QWORD PTR $T8906[rsp]
	mov	rdi, rax
	mov	rsi, QWORD PTR hitPoint$[rsp]
	mov	ecx, 12
	rep movsb
	lea	rax, QWORD PTR shadowRay$6419[rsp]
	lea	rcx, QWORD PTR $T8906[rsp]
	mov	rdi, rax
	mov	rsi, rcx
	mov	ecx, 12
	rep movsb
; Line 138
	mov	rdx, QWORD PTR seed1$[rsp]
	mov	rcx, QWORD PTR seed0$[rsp]
	call	?GetRandom@@YAMPEAI0@Z			; GetRandom
	movss	DWORD PTR tv82[rsp], xmm0
	mov	rdx, QWORD PTR seed1$[rsp]
	mov	rcx, QWORD PTR seed0$[rsp]
	call	?GetRandom@@YAMPEAI0@Z			; GetRandom
	lea	r8, QWORD PTR unitSpherePoint$6420[rsp]
	movss	xmm1, DWORD PTR tv82[rsp]
	call	?UniformSampleSphere@@YAXMMPEAUVec@@@Z	; UniformSampleSphere
; Line 140
	mov	rax, QWORD PTR light$6416[rsp]
	movss	xmm0, DWORD PTR [rax]
	movss	DWORD PTR k$6422[rsp], xmm0
	movss	xmm0, DWORD PTR k$6422[rsp]
	mulss	xmm0, DWORD PTR unitSpherePoint$6420[rsp]
	movss	DWORD PTR spherePoint$6421[rsp], xmm0
	movss	xmm0, DWORD PTR k$6422[rsp]
	mulss	xmm0, DWORD PTR unitSpherePoint$6420[rsp+4]
	movss	DWORD PTR spherePoint$6421[rsp+4], xmm0
	movss	xmm0, DWORD PTR k$6422[rsp]
	mulss	xmm0, DWORD PTR unitSpherePoint$6420[rsp+8]
	movss	DWORD PTR spherePoint$6421[rsp+8], xmm0
; Line 141
	mov	rax, QWORD PTR light$6416[rsp]
	movss	xmm0, DWORD PTR spherePoint$6421[rsp]
	addss	xmm0, DWORD PTR [rax+4]
	movss	DWORD PTR spherePoint$6421[rsp], xmm0
	mov	rax, QWORD PTR light$6416[rsp]
	movss	xmm0, DWORD PTR spherePoint$6421[rsp+4]
	addss	xmm0, DWORD PTR [rax+8]
	movss	DWORD PTR spherePoint$6421[rsp+4], xmm0
	mov	rax, QWORD PTR light$6416[rsp]
	movss	xmm0, DWORD PTR spherePoint$6421[rsp+8]
	addss	xmm0, DWORD PTR [rax+12]
	movss	DWORD PTR spherePoint$6421[rsp+8], xmm0
; Line 144
	mov	rax, QWORD PTR hitPoint$[rsp]
	movss	xmm0, DWORD PTR spherePoint$6421[rsp]
	subss	xmm0, DWORD PTR [rax]
	movss	DWORD PTR shadowRay$6419[rsp+12], xmm0
	mov	rax, QWORD PTR hitPoint$[rsp]
	movss	xmm0, DWORD PTR spherePoint$6421[rsp+4]
	subss	xmm0, DWORD PTR [rax+4]
	movss	DWORD PTR shadowRay$6419[rsp+16], xmm0
	mov	rax, QWORD PTR hitPoint$[rsp]
	movss	xmm0, DWORD PTR spherePoint$6421[rsp+8]
	subss	xmm0, DWORD PTR [rax+8]
	movss	DWORD PTR shadowRay$6419[rsp+20], xmm0
; Line 145
	movss	xmm0, DWORD PTR shadowRay$6419[rsp+12]
	mulss	xmm0, DWORD PTR shadowRay$6419[rsp+12]
	movss	xmm1, DWORD PTR shadowRay$6419[rsp+16]
	mulss	xmm1, DWORD PTR shadowRay$6419[rsp+16]
	addss	xmm0, xmm1
	movss	xmm1, DWORD PTR shadowRay$6419[rsp+20]
	mulss	xmm1, DWORD PTR shadowRay$6419[rsp+20]
	addss	xmm0, xmm1
	call	?sqrt@@YAMM@Z				; sqrt
	movss	DWORD PTR len$6423[rsp], xmm0
; Line 146
	movss	xmm0, DWORD PTR __real@3f800000
	divss	xmm0, DWORD PTR len$6423[rsp]
	movss	DWORD PTR k$6424[rsp], xmm0
	movss	xmm0, DWORD PTR k$6424[rsp]
	mulss	xmm0, DWORD PTR shadowRay$6419[rsp+12]
	movss	DWORD PTR shadowRay$6419[rsp+12], xmm0
	movss	xmm0, DWORD PTR k$6424[rsp]
	mulss	xmm0, DWORD PTR shadowRay$6419[rsp+16]
	movss	DWORD PTR shadowRay$6419[rsp+16], xmm0
	movss	xmm0, DWORD PTR k$6424[rsp]
	mulss	xmm0, DWORD PTR shadowRay$6419[rsp+20]
	movss	DWORD PTR shadowRay$6419[rsp+20], xmm0
; Line 148
	movss	xmm0, DWORD PTR shadowRay$6419[rsp+12]
	mulss	xmm0, DWORD PTR unitSpherePoint$6420[rsp]
	movss	xmm1, DWORD PTR shadowRay$6419[rsp+16]
	mulss	xmm1, DWORD PTR unitSpherePoint$6420[rsp+4]
	addss	xmm0, xmm1
	movss	xmm1, DWORD PTR shadowRay$6419[rsp+20]
	mulss	xmm1, DWORD PTR unitSpherePoint$6420[rsp+8]
	addss	xmm0, xmm1
	movss	DWORD PTR wo$6425[rsp], xmm0
; Line 149
	movss	xmm0, DWORD PTR wo$6425[rsp]
	comiss	xmm0, DWORD PTR __real@00000000
	jbe	SHORT $LN3@SampleLigh
; Line 151
	jmp	$LN7@SampleLigh
; Line 152
	jmp	SHORT $LN2@SampleLigh
$LN3@SampleLigh:
; Line 153
	movss	xmm0, DWORD PTR wo$6425[rsp]
	xorps	xmm0, DWORD PTR __mask@@NegFloat@
	movss	DWORD PTR wo$6425[rsp], xmm0
$LN2@SampleLigh:
; Line 156
	mov	rax, QWORD PTR normal$[rsp]
	movss	xmm0, DWORD PTR shadowRay$6419[rsp+12]
	mulss	xmm0, DWORD PTR [rax]
	mov	rax, QWORD PTR normal$[rsp]
	movss	xmm1, DWORD PTR shadowRay$6419[rsp+16]
	mulss	xmm1, DWORD PTR [rax+4]
	addss	xmm0, xmm1
	mov	rax, QWORD PTR normal$[rsp]
	movss	xmm1, DWORD PTR shadowRay$6419[rsp+20]
	mulss	xmm1, DWORD PTR [rax+8]
	addss	xmm0, xmm1
	movss	DWORD PTR wi$6428[rsp], xmm0
; Line 157
	movss	xmm0, DWORD PTR wi$6428[rsp]
	comiss	xmm0, DWORD PTR __real@00000000
	jbe	$LN1@SampleLigh
	movss	xmm0, DWORD PTR len$6423[rsp]
	subss	xmm0, DWORD PTR __real@3c23d70a
	movaps	xmm3, xmm0
	lea	r8, QWORD PTR shadowRay$6419[rsp]
	mov	edx, DWORD PTR sphereCount$[rsp]
	mov	rcx, QWORD PTR spheres$[rsp]
	call	?IntersectP@@YAHPEBUSphere@@IPEBURay@@M@Z ; IntersectP
	test	eax, eax
	jne	$LN1@SampleLigh
; Line 158
	mov	rax, QWORD PTR light$6416[rsp]
	movss	xmm0, DWORD PTR [rax+16]
	movss	DWORD PTR c$6430[rsp], xmm0
	mov	rax, QWORD PTR light$6416[rsp]
	movss	xmm0, DWORD PTR [rax+20]
	movss	DWORD PTR c$6430[rsp+4], xmm0
	mov	rax, QWORD PTR light$6416[rsp]
	movss	xmm0, DWORD PTR [rax+24]
	movss	DWORD PTR c$6430[rsp+8], xmm0
; Line 159
	mov	rax, QWORD PTR light$6416[rsp]
	movss	xmm0, DWORD PTR __real@41490fdb
	mulss	xmm0, DWORD PTR [rax]
	mov	rax, QWORD PTR light$6416[rsp]
	mulss	xmm0, DWORD PTR [rax]
	mulss	xmm0, DWORD PTR wi$6428[rsp]
	mulss	xmm0, DWORD PTR wo$6425[rsp]
	movss	xmm1, DWORD PTR len$6423[rsp]
	mulss	xmm1, DWORD PTR len$6423[rsp]
	divss	xmm0, xmm1
	movss	DWORD PTR s$6431[rsp], xmm0
; Line 160
	movss	xmm0, DWORD PTR s$6431[rsp]
	movss	DWORD PTR k$6432[rsp], xmm0
	movss	xmm0, DWORD PTR k$6432[rsp]
	mulss	xmm0, DWORD PTR c$6430[rsp]
	movss	DWORD PTR c$6430[rsp], xmm0
	movss	xmm0, DWORD PTR k$6432[rsp]
	mulss	xmm0, DWORD PTR c$6430[rsp+4]
	movss	DWORD PTR c$6430[rsp+4], xmm0
	movss	xmm0, DWORD PTR k$6432[rsp]
	mulss	xmm0, DWORD PTR c$6430[rsp+8]
	movss	DWORD PTR c$6430[rsp+8], xmm0
; Line 161
	mov	rax, QWORD PTR result$[rsp]
	movss	xmm0, DWORD PTR [rax]
	addss	xmm0, DWORD PTR c$6430[rsp]
	mov	rax, QWORD PTR result$[rsp]
	movss	DWORD PTR [rax], xmm0
	mov	rax, QWORD PTR result$[rsp]
	movss	xmm0, DWORD PTR [rax+4]
	addss	xmm0, DWORD PTR c$6430[rsp+4]
	mov	rax, QWORD PTR result$[rsp]
	movss	DWORD PTR [rax+4], xmm0
	mov	rax, QWORD PTR result$[rsp]
	movss	xmm0, DWORD PTR [rax+8]
	addss	xmm0, DWORD PTR c$6430[rsp+8]
	mov	rax, QWORD PTR result$[rsp]
	movss	DWORD PTR [rax+8], xmm0
$LN1@SampleLigh:
$LN5@SampleLigh:
; Line 164
	jmp	$LN7@SampleLigh
$LN6@SampleLigh:
; Line 165
	mov	rcx, rsp
	lea	rdx, OFFSET FLAT:?SampleLights@@YAXPEBUSphere@@IPEAI1PEBUVec@@2PEAU2@@Z$rtcFrameData
	call	_RTC_CheckStackVars
	mov	rcx, QWORD PTR __$ArrayPad$[rsp]
	xor	rcx, rsp
	call	__security_check_cookie
	add	rsp, 312				; 00000138H
	pop	rdi
	pop	rsi
	ret	0
?SampleLights@@YAXPEBUSphere@@IPEAI1PEBUVec@@2PEAU2@@Z ENDP ; SampleLights
_TEXT	ENDS
pdata	SEGMENT
$pdata$?UniformSampleSphere@@YAXMMPEAUVec@@@Z DD imagerel ?UniformSampleSphere@@YAXMMPEAUVec@@@Z
	DD	imagerel ?UniformSampleSphere@@YAXMMPEAUVec@@@Z+301
	DD	imagerel $unwind$?UniformSampleSphere@@YAXMMPEAUVec@@@Z
pdata	ENDS
xdata	SEGMENT
$unwind$?UniformSampleSphere@@YAXMMPEAUVec@@@Z DD 022501H
	DD	070127216H
; Function compile flags: /Odtp /RTCsu
xdata	ENDS
_TEXT	SEGMENT
zz$ = 32
r$ = 36
phi$ = 40
xx$ = 44
yy$ = 48
tv74 = 52
u1$ = 80
u2$ = 88
v$ = 96
?UniformSampleSphere@@YAXMMPEAUVec@@@Z PROC		; UniformSampleSphere
; Line 61
	mov	QWORD PTR [rsp+24], r8
	movss	DWORD PTR [rsp+16], xmm1
	movss	DWORD PTR [rsp+8], xmm0
	push	rdi
	sub	rsp, 64					; 00000040H
	mov	rdi, rsp
	mov	ecx, 16
	mov	eax, -858993460				; ccccccccH
	rep stosd
; Line 62
	movss	xmm0, DWORD PTR __real@40000000
	mulss	xmm0, DWORD PTR u1$[rsp]
	movss	xmm1, DWORD PTR __real@3f800000
	subss	xmm1, xmm0
	movaps	xmm0, xmm1
	movss	DWORD PTR zz$[rsp], xmm0
; Line 63
	movss	xmm0, DWORD PTR zz$[rsp]
	mulss	xmm0, DWORD PTR zz$[rsp]
	movss	xmm1, DWORD PTR __real@3f800000
	subss	xmm1, xmm0
	movaps	xmm0, xmm1
	xorps	xmm1, xmm1
	comiss	xmm1, xmm0
	jbe	SHORT $LN3@UniformSam
	xorps	xmm0, xmm0
	movss	DWORD PTR tv74[rsp], xmm0
	jmp	SHORT $LN4@UniformSam
$LN3@UniformSam:
	movss	xmm0, DWORD PTR zz$[rsp]
	mulss	xmm0, DWORD PTR zz$[rsp]
	movss	xmm1, DWORD PTR __real@3f800000
	subss	xmm1, xmm0
	movaps	xmm0, xmm1
	movss	DWORD PTR tv74[rsp], xmm0
$LN4@UniformSam:
	movss	xmm0, DWORD PTR tv74[rsp]
	call	?sqrt@@YAMM@Z				; sqrt
	movss	DWORD PTR r$[rsp], xmm0
; Line 64
	movss	xmm0, DWORD PTR __real@40c90fdb
	mulss	xmm0, DWORD PTR u2$[rsp]
	movss	DWORD PTR phi$[rsp], xmm0
; Line 65
	movss	xmm0, DWORD PTR phi$[rsp]
	call	?cos@@YAMM@Z				; cos
	movss	xmm1, DWORD PTR r$[rsp]
	mulss	xmm1, xmm0
	movaps	xmm0, xmm1
	movss	DWORD PTR xx$[rsp], xmm0
; Line 66
	movss	xmm0, DWORD PTR phi$[rsp]
	call	?sin@@YAMM@Z				; sin
	movss	xmm1, DWORD PTR r$[rsp]
	mulss	xmm1, xmm0
	movaps	xmm0, xmm1
	movss	DWORD PTR yy$[rsp], xmm0
; Line 68
	mov	rax, QWORD PTR v$[rsp]
	movss	xmm0, DWORD PTR xx$[rsp]
	movss	DWORD PTR [rax], xmm0
	mov	rax, QWORD PTR v$[rsp]
	movss	xmm0, DWORD PTR yy$[rsp]
	movss	DWORD PTR [rax+4], xmm0
	mov	rax, QWORD PTR v$[rsp]
	movss	xmm0, DWORD PTR zz$[rsp]
	movss	DWORD PTR [rax+8], xmm0
; Line 69
	add	rsp, 64					; 00000040H
	pop	rdi
	ret	0
?UniformSampleSphere@@YAXMMPEAUVec@@@Z ENDP		; UniformSampleSphere
_TEXT	ENDS
pdata	SEGMENT
$pdata$?IntersectP@@YAHPEBUSphere@@IPEBURay@@M@Z DD imagerel ?IntersectP@@YAHPEBUSphere@@IPEBURay@@M@Z
	DD	imagerel ?IntersectP@@YAHPEBUSphere@@IPEBURay@@M@Z+163
	DD	imagerel $unwind$?IntersectP@@YAHPEBUSphere@@IPEBURay@@M@Z
pdata	ENDS
xdata	SEGMENT
$unwind$?IntersectP@@YAHPEBUSphere@@IPEBURay@@M@Z DD 022d01H
	DD	070155219H
; Function compile flags: /Odtp /RTCsu
xdata	ENDS
_TEXT	SEGMENT
i$ = 32
d$6400 = 36
tv65 = 40
spheres$ = 64
sphereCount$ = 72
r$ = 80
maxt$ = 88
?IntersectP@@YAHPEBUSphere@@IPEBURay@@M@Z PROC		; IntersectP
; Line 101
	movss	DWORD PTR [rsp+32], xmm3
	mov	QWORD PTR [rsp+24], r8
	mov	DWORD PTR [rsp+16], edx
	mov	QWORD PTR [rsp+8], rcx
	push	rdi
	sub	rsp, 48					; 00000030H
	mov	rdi, rsp
	mov	ecx, 12
	mov	eax, -858993460				; ccccccccH
	rep stosd
	mov	rcx, QWORD PTR [rsp+64]
; Line 102
	mov	eax, DWORD PTR sphereCount$[rsp]
	mov	DWORD PTR i$[rsp], eax
$LN3@IntersectP:
; Line 103
	mov	eax, DWORD PTR i$[rsp]
	mov	DWORD PTR tv65[rsp], eax
	mov	eax, DWORD PTR i$[rsp]
	dec	eax
	mov	DWORD PTR i$[rsp], eax
	cmp	DWORD PTR tv65[rsp], 0
	je	SHORT $LN2@IntersectP
; Line 104
	mov	eax, DWORD PTR i$[rsp]
	imul	rax, 44					; 0000002cH
	mov	rcx, QWORD PTR spheres$[rsp]
	add	rcx, rax
	mov	rax, rcx
	mov	rdx, QWORD PTR r$[rsp]
	mov	rcx, rax
	call	?SphereIntersect@@YAMPEBUSphere@@PEBURay@@@Z ; SphereIntersect
	movss	DWORD PTR d$6400[rsp], xmm0
; Line 105
	movss	xmm0, DWORD PTR d$6400[rsp]
	ucomiss	xmm0, DWORD PTR __real@00000000
	jp	SHORT $LN6@IntersectP
	je	SHORT $LN1@IntersectP
$LN6@IntersectP:
	movss	xmm0, DWORD PTR maxt$[rsp]
	comiss	xmm0, DWORD PTR d$6400[rsp]
	jbe	SHORT $LN1@IntersectP
; Line 106
	mov	eax, 1
	jmp	SHORT $LN4@IntersectP
$LN1@IntersectP:
; Line 107
	jmp	SHORT $LN3@IntersectP
$LN2@IntersectP:
; Line 109
	xor	eax, eax
$LN4@IntersectP:
; Line 110
	add	rsp, 48					; 00000030H
	pop	rdi
	ret	0
?IntersectP@@YAHPEBUSphere@@IPEBURay@@M@Z ENDP		; IntersectP
_TEXT	ENDS
PUBLIC	?ReInitSceneCPU@@YAXXZ				; ReInitSceneCPU
pdata	SEGMENT
$pdata$?ReInitSceneCPU@@YAXXZ DD imagerel $LN3
	DD	imagerel $LN3+14
	DD	imagerel $unwind$?ReInitSceneCPU@@YAXXZ
pdata	ENDS
xdata	SEGMENT
$unwind$?ReInitSceneCPU@@YAXXZ DD 010201H
	DD	07002H
; Function compile flags: /Odtp /RTCsu
xdata	ENDS
_TEXT	SEGMENT
?ReInitSceneCPU@@YAXXZ PROC				; ReInitSceneCPU
; File c:\users\mark\documents\smallptgpu-v1.6\smallptcpu.cpp
; Line 134
$LN3:
	push	rdi
; Line 135
	mov	DWORD PTR ?currentSample@@3HA, 0	; currentSample
; Line 136
	pop	rdi
	ret	0
?ReInitSceneCPU@@YAXXZ ENDP				; ReInitSceneCPU
_TEXT	ENDS
PUBLIC	?ReInitScene@@YAXXZ				; ReInitScene
EXTRN	?ReInitSceneGPU@@YAXXZ:PROC			; ReInitSceneGPU
EXTRN	?useOpenCL@@3HA:DWORD				; useOpenCL
pdata	SEGMENT
$pdata$?ReInitScene@@YAXXZ DD imagerel $LN5
	DD	imagerel $LN5+48
	DD	imagerel $unwind$?ReInitScene@@YAXXZ
pdata	ENDS
xdata	SEGMENT
$unwind$?ReInitScene@@YAXXZ DD 021501H
	DD	070023206H
; Function compile flags: /Odtp /RTCsu
xdata	ENDS
_TEXT	SEGMENT
?ReInitScene@@YAXXZ PROC				; ReInitScene
; Line 139
$LN5:
	push	rdi
	sub	rsp, 32					; 00000020H
	mov	rdi, rsp
	mov	ecx, 8
	mov	eax, -858993460				; ccccccccH
	rep stosd
; Line 140
	cmp	DWORD PTR ?useOpenCL@@3HA, 0		; useOpenCL
	je	SHORT $LN2@ReInitScen
; Line 141
	call	?ReInitSceneGPU@@YAXXZ			; ReInitSceneGPU
; Line 142
	jmp	SHORT $LN1@ReInitScen
$LN2@ReInitScen:
; Line 143
	call	?ReInitSceneCPU@@YAXXZ			; ReInitSceneCPU
$LN1@ReInitScen:
; Line 144
	add	rsp, 32					; 00000020H
	pop	rdi
	ret	0
?ReInitScene@@YAXXZ ENDP				; ReInitScene
_TEXT	ENDS
PUBLIC	?ReInitCPU@@YAXH@Z				; ReInitCPU
EXTRN	?UpdateCamera@@YAXXZ:PROC			; UpdateCamera
pdata	SEGMENT
$pdata$?ReInitCPU@@YAXH@Z DD imagerel $LN4
	DD	imagerel $LN4+71
	DD	imagerel $unwind$?ReInitCPU@@YAXH@Z
pdata	ENDS
xdata	SEGMENT
$unwind$?ReInitCPU@@YAXH@Z DD 021c01H
	DD	070053209H
; Function compile flags: /Odtp /RTCsu
xdata	ENDS
_TEXT	SEGMENT
reallocBuffers$ = 48
?ReInitCPU@@YAXH@Z PROC					; ReInitCPU
; Line 146
$LN4:
	mov	DWORD PTR [rsp+8], ecx
	push	rdi
	sub	rsp, 32					; 00000020H
	mov	rdi, rsp
	mov	ecx, 8
	mov	eax, -858993460				; ccccccccH
	rep stosd
	mov	ecx, DWORD PTR [rsp+48]
; Line 148
	cmp	DWORD PTR reallocBuffers$[rsp], 0
	je	SHORT $LN1@ReInitCPU
; Line 149
	call	?FreeBuffers@@YAXXZ			; FreeBuffers
; Line 150
	call	?AllocateBuffers@@YAXXZ			; AllocateBuffers
$LN1@ReInitCPU:
; Line 153
	call	?UpdateCamera@@YAXXZ			; UpdateCamera
; Line 154
	mov	DWORD PTR ?currentSample@@3HA, 0	; currentSample
; Line 155
	call	?UpdateRenderingCPU@@YAXXZ		; UpdateRenderingCPU
; Line 156
	add	rsp, 32					; 00000020H
	pop	rdi
	ret	0
?ReInitCPU@@YAXH@Z ENDP					; ReInitCPU
_TEXT	ENDS
PUBLIC	?ReInit@@YAXH@Z					; ReInit
EXTRN	?ReInitGPU@@YAXH@Z:PROC				; ReInitGPU
pdata	SEGMENT
$pdata$?ReInit@@YAXH@Z DD imagerel $LN5
	DD	imagerel $LN5+63
	DD	imagerel $unwind$?ReInit@@YAXH@Z
pdata	ENDS
xdata	SEGMENT
$unwind$?ReInit@@YAXH@Z DD 021c01H
	DD	070053209H
; Function compile flags: /Odtp /RTCsu
xdata	ENDS
_TEXT	SEGMENT
reallocBuffers$ = 48
?ReInit@@YAXH@Z PROC					; ReInit
; Line 161
$LN5:
	mov	DWORD PTR [rsp+8], ecx
	push	rdi
	sub	rsp, 32					; 00000020H
	mov	rdi, rsp
	mov	ecx, 8
	mov	eax, -858993460				; ccccccccH
	rep stosd
	mov	ecx, DWORD PTR [rsp+48]
; Line 162
	cmp	DWORD PTR ?useOpenCL@@3HA, 0		; useOpenCL
	je	SHORT $LN2@ReInit
; Line 163
	mov	ecx, DWORD PTR reallocBuffers$[rsp]
	call	?ReInitGPU@@YAXH@Z			; ReInitGPU
; Line 164
	jmp	SHORT $LN1@ReInit
$LN2@ReInit:
; Line 165
	mov	ecx, DWORD PTR reallocBuffers$[rsp]
	call	?ReInitCPU@@YAXH@Z			; ReInitCPU
$LN1@ReInit:
; Line 166
	add	rsp, 32					; 00000020H
	pop	rdi
	ret	0
?ReInit@@YAXH@Z ENDP					; ReInit
_TEXT	ENDS
PUBLIC	__real@434c999a
PUBLIC	__real@4233d45e
PUBLIC	__real@434d999a
PUBLIC	__real@42340000
PUBLIC	__real@42480000
PUBLIC	?mainCPU@@YAHHPEAPEAD@Z				; mainCPU
EXTRN	glutMainLoop:PROC
EXTRN	?InitGlut@@YAXHQEAPEADPEAD@Z:PROC		; InitGlut
EXTRN	?amiSmallptCPU@@3HA:DWORD			; amiSmallptCPU
pdata	SEGMENT
$pdata$?mainCPU@@YAHHPEAPEAD@Z DD imagerel $LN3
	DD	imagerel $LN3+207
	DD	imagerel $unwind$?mainCPU@@YAHHPEAPEAD@Z
pdata	ENDS
xdata	SEGMENT
$unwind$?mainCPU@@YAHHPEAPEAD@Z DD 022101H
	DD	0700a320eH
xdata	ENDS
;	COMDAT __real@434c999a
CONST	SEGMENT
__real@434c999a DD 0434c999ar			; 204.6
CONST	ENDS
;	COMDAT __real@4233d45e
CONST	SEGMENT
__real@4233d45e DD 04233d45er			; 44.9574
CONST	ENDS
;	COMDAT __real@434d999a
CONST	SEGMENT
__real@434d999a DD 0434d999ar			; 205.6
CONST	ENDS
;	COMDAT __real@42340000
CONST	SEGMENT
__real@42340000 DD 042340000r			; 45
CONST	ENDS
;	COMDAT __real@42480000
CONST	SEGMENT
__real@42480000 DD 042480000r			; 50
; Function compile flags: /Odtp /RTCsu
CONST	ENDS
_TEXT	SEGMENT
argc$ = 48
argv$ = 56
?mainCPU@@YAHHPEAPEAD@Z PROC				; mainCPU
; Line 169
$LN3:
	mov	QWORD PTR [rsp+16], rdx
	mov	DWORD PTR [rsp+8], ecx
	push	rdi
	sub	rsp, 32					; 00000020H
	mov	rdi, rsp
	mov	ecx, 8
	mov	eax, -858993460				; ccccccccH
	rep stosd
	mov	ecx, DWORD PTR [rsp+48]
; Line 170
	mov	DWORD PTR ?amiSmallptCPU@@3HA, 1	; amiSmallptCPU
; Line 181
	lea	rax, OFFSET FLAT:CornellSpheres
	mov	QWORD PTR ?spheres@@3PEAUSphere@@EA, rax ; spheres
; Line 182
	mov	DWORD PTR ?sphereCount@@3IA, 9		; sphereCount
; Line 184
	movss	xmm0, DWORD PTR __real@42480000
	movss	DWORD PTR ?camera@@3UCamera@@A, xmm0
	movss	xmm0, DWORD PTR __real@42340000
	movss	DWORD PTR ?camera@@3UCamera@@A+4, xmm0
	movss	xmm0, DWORD PTR __real@434d999a
	movss	DWORD PTR ?camera@@3UCamera@@A+8, xmm0
; Line 185
	movss	xmm0, DWORD PTR __real@42480000
	movss	DWORD PTR ?camera@@3UCamera@@A+12, xmm0
	movss	xmm0, DWORD PTR __real@4233d45e
	movss	DWORD PTR ?camera@@3UCamera@@A+16, xmm0
	movss	xmm0, DWORD PTR __real@434c999a
	movss	DWORD PTR ?camera@@3UCamera@@A+20, xmm0
; Line 190
	call	?UpdateCamera@@YAXXZ			; UpdateCamera
; Line 194
	call	?AllocateBuffers@@YAXXZ			; AllocateBuffers
; Line 198
	lea	r8, OFFSET FLAT:$SG8531
	mov	rdx, QWORD PTR argv$[rsp]
	mov	ecx, DWORD PTR argc$[rsp]
	call	?InitGlut@@YAXHQEAPEADPEAD@Z		; InitGlut
; Line 200
	call	glutMainLoop
; Line 202
	xor	eax, eax
; Line 203
	add	rsp, 32					; 00000020H
	pop	rdi
	ret	0
?mainCPU@@YAHHPEAPEAD@Z ENDP				; mainCPU
_TEXT	ENDS
END
